ARM GAS  C:\Users\LUCASC~1\AppData\Local\Temp\cc3ZHWc6.s 			page 1


   1              		.syntax unified
   2              		.cpu cortex-m0
   3              		.fpu softvfp
   4              		.eabi_attribute 20, 1
   5              		.eabi_attribute 21, 1
   6              		.eabi_attribute 23, 3
   7              		.eabi_attribute 24, 1
   8              		.eabi_attribute 25, 1
   9              		.eabi_attribute 26, 1
  10              		.eabi_attribute 30, 1
  11              		.eabi_attribute 34, 0
  12              		.eabi_attribute 18, 4
  13              		.thumb
  14              		.syntax unified
  15              		.file	"main.c"
  16              		.text
  17              	.Ltext0:
  18              		.cfi_sections	.debug_frame
  19              		.section	.text.ISR_Function,"ax",%progbits
  20              		.align	2
  21              		.global	ISR_Function
  22              		.code	16
  23              		.thumb_func
  24              		.type	ISR_Function, %function
  25              	ISR_Function:
  26              	.LFB35:
  27              		.file 1 "main.c"
   1:main.c        **** /* ========================================
   2:main.c        ****  *
   3:main.c        ****  * Copyright YOUR COMPANY, THE YEAR
   4:main.c        ****  * All Rights Reserved
   5:main.c        ****  * UNPUBLISHED, LICENSED SOFTWARE.
   6:main.c        ****  *
   7:main.c        ****  * CONFIDENTIAL AND PROPRIETARY INFORMATION
   8:main.c        ****  * WHICH IS THE PROPERTY OF your company.
   9:main.c        ****  *
  10:main.c        ****  * ========================================
  11:main.c        **** */
  12:main.c        **** #include "project.h"
  13:main.c        **** 
  14:main.c        **** #define LED_OFF  1
  15:main.c        **** #define LED_ON   0
  16:main.c        **** 
  17:main.c        **** CY_ISR_PROTO(ISR_Function);
  18:main.c        **** 
  19:main.c        **** uint8 ISR_Flag =0;
  20:main.c        **** uint16 compare_value;
  21:main.c        **** uint8 Up =1;
  22:main.c        **** 
  23:main.c        **** int main(void)
  24:main.c        **** {
  25:main.c        ****     CyGlobalIntEnable; /* Enable global interrupts. */
  26:main.c        ****     Timer_1_Start();
  27:main.c        ****     Timer1_ISR_StartEx(ISR_Function);
  28:main.c        ****     PWM_1_Start();
  29:main.c        ****     /* Place your initialization/startup code here (e.g. MyInst_Start()) */
  30:main.c        **** 
ARM GAS  C:\Users\LUCASC~1\AppData\Local\Temp\cc3ZHWc6.s 			page 2


  31:main.c        ****     for(;;)
  32:main.c        ****     {
  33:main.c        ****         /* Place your application code here. */
  34:main.c        ****         if(ISR_Flag==1){
  35:main.c        ****             ISR_Flag=0;
  36:main.c        **** 
  37:main.c        ****             PWM_1_WriteCompare(compare_value);
  38:main.c        ****             
  39:main.c        ****             if(Up==1)
  40:main.c        ****             {
  41:main.c        ****                 compare_value+=10;
  42:main.c        ****                 if(compare_value==1000)
  43:main.c        ****                     Up=0;
  44:main.c        ****             }else{
  45:main.c        ****                 compare_value-=10;
  46:main.c        ****                 if(compare_value==0)
  47:main.c        ****                     Up=1;
  48:main.c        ****             }
  49:main.c        ****             
  50:main.c        ****           
  51:main.c        ****             
  52:main.c        ****             //LED_B_Write(~LED_B_Read());
  53:main.c        ****         }        
  54:main.c        ****     }
  55:main.c        **** }
  56:main.c        **** 
  57:main.c        **** CY_ISR(ISR_Function)
  58:main.c        **** {
  28              		.loc 1 58 0
  29              		.cfi_startproc
  30              		@ args = 0, pretend = 0, frame = 0
  31              		@ frame_needed = 0, uses_anonymous_args = 0
  32 0000 10B5     		push	{r4, lr}
  33              		.cfi_def_cfa_offset 8
  34              		.cfi_offset 4, -8
  35              		.cfi_offset 14, -4
  59:main.c        ****     ISR_Flag=1;
  36              		.loc 1 59 0
  37 0002 0122     		movs	r2, #1
  38 0004 024B     		ldr	r3, .L2
  39 0006 1A70     		strb	r2, [r3]
  60:main.c        ****     Timer_1_ClearInterrupt(Timer_1_INTR_MASK_TC);
  40              		.loc 1 60 0
  41 0008 0120     		movs	r0, #1
  42 000a FFF7FEFF 		bl	Timer_1_ClearInterrupt
  43              	.LVL0:
  61:main.c        **** }
  44              		.loc 1 61 0
  45              		@ sp needed
  46 000e 10BD     		pop	{r4, pc}
  47              	.L3:
  48              		.align	2
  49              	.L2:
  50 0010 00000000 		.word	.LANCHOR0
  51              		.cfi_endproc
  52              	.LFE35:
  53              		.size	ISR_Function, .-ISR_Function
ARM GAS  C:\Users\LUCASC~1\AppData\Local\Temp\cc3ZHWc6.s 			page 3


  54              		.section	.text.main,"ax",%progbits
  55              		.align	2
  56              		.global	main
  57              		.code	16
  58              		.thumb_func
  59              		.type	main, %function
  60              	main:
  61              	.LFB34:
  24:main.c        ****     CyGlobalIntEnable; /* Enable global interrupts. */
  62              		.loc 1 24 0
  63              		.cfi_startproc
  64              		@ Volatile: function does not return.
  65              		@ args = 0, pretend = 0, frame = 0
  66              		@ frame_needed = 0, uses_anonymous_args = 0
  67 0000 10B5     		push	{r4, lr}
  68              		.cfi_def_cfa_offset 8
  69              		.cfi_offset 4, -8
  70              		.cfi_offset 14, -4
  25:main.c        ****     Timer_1_Start();
  71              		.loc 1 25 0
  72              		.syntax divided
  73              	@ 25 "main.c" 1
  74 0002 62B6     		CPSIE   i
  75              	@ 0 "" 2
  26:main.c        ****     Timer1_ISR_StartEx(ISR_Function);
  76              		.loc 1 26 0
  77              		.thumb
  78              		.syntax unified
  79 0004 FFF7FEFF 		bl	Timer_1_Start
  80              	.LVL1:
  27:main.c        ****     PWM_1_Start();
  81              		.loc 1 27 0
  82 0008 1548     		ldr	r0, .L9
  83 000a FFF7FEFF 		bl	Timer1_ISR_StartEx
  84              	.LVL2:
  28:main.c        ****     /* Place your initialization/startup code here (e.g. MyInst_Start()) */
  85              		.loc 1 28 0
  86 000e FFF7FEFF 		bl	PWM_1_Start
  87              	.LVL3:
  88              	.L6:
  34:main.c        ****             ISR_Flag=0;
  89              		.loc 1 34 0
  90 0012 144B     		ldr	r3, .L9+4
  91 0014 1B78     		ldrb	r3, [r3]
  92 0016 012B     		cmp	r3, #1
  93 0018 FBD1     		bne	.L6
  35:main.c        **** 
  94              		.loc 1 35 0
  95 001a 0022     		movs	r2, #0
  96 001c 114B     		ldr	r3, .L9+4
  97 001e 1A70     		strb	r2, [r3]
  37:main.c        ****             
  98              		.loc 1 37 0
  99 0020 114B     		ldr	r3, .L9+8
 100 0022 1888     		ldrh	r0, [r3]
 101 0024 FFF7FEFF 		bl	PWM_1_WriteCompare
 102              	.LVL4:
ARM GAS  C:\Users\LUCASC~1\AppData\Local\Temp\cc3ZHWc6.s 			page 4


  39:main.c        ****             {
 103              		.loc 1 39 0
 104 0028 104B     		ldr	r3, .L9+12
 105 002a 1B78     		ldrb	r3, [r3]
 106 002c 012B     		cmp	r3, #1
 107 002e 0CD1     		bne	.L7
  41:main.c        ****                 if(compare_value==1000)
 108              		.loc 1 41 0
 109 0030 0D4A     		ldr	r2, .L9+8
 110 0032 1388     		ldrh	r3, [r2]
 111 0034 0A33     		adds	r3, r3, #10
 112 0036 9BB2     		uxth	r3, r3
 113 0038 1380     		strh	r3, [r2]
  42:main.c        ****                     Up=0;
 114              		.loc 1 42 0
 115 003a FA22     		movs	r2, #250
 116 003c 9200     		lsls	r2, r2, #2
 117 003e 9342     		cmp	r3, r2
 118 0040 E7D1     		bne	.L6
  43:main.c        ****             }else{
 119              		.loc 1 43 0
 120 0042 0022     		movs	r2, #0
 121 0044 094B     		ldr	r3, .L9+12
 122 0046 1A70     		strb	r2, [r3]
 123 0048 E3E7     		b	.L6
 124              	.L7:
  45:main.c        ****                 if(compare_value==0)
 125              		.loc 1 45 0
 126 004a 074A     		ldr	r2, .L9+8
 127 004c 1388     		ldrh	r3, [r2]
 128 004e 0A3B     		subs	r3, r3, #10
 129 0050 9BB2     		uxth	r3, r3
 130 0052 1380     		strh	r3, [r2]
  46:main.c        ****                     Up=1;
 131              		.loc 1 46 0
 132 0054 002B     		cmp	r3, #0
 133 0056 DCD1     		bne	.L6
  47:main.c        ****             }
 134              		.loc 1 47 0
 135 0058 0122     		movs	r2, #1
 136 005a 044B     		ldr	r3, .L9+12
 137 005c 1A70     		strb	r2, [r3]
 138 005e D8E7     		b	.L6
 139              	.L10:
 140              		.align	2
 141              	.L9:
 142 0060 00000000 		.word	ISR_Function
 143 0064 00000000 		.word	.LANCHOR0
 144 0068 00000000 		.word	compare_value
 145 006c 00000000 		.word	.LANCHOR1
 146              		.cfi_endproc
 147              	.LFE34:
 148              		.size	main, .-main
 149              		.global	Up
 150              		.comm	compare_value,2,2
 151              		.global	ISR_Flag
 152              		.data
ARM GAS  C:\Users\LUCASC~1\AppData\Local\Temp\cc3ZHWc6.s 			page 5


 153              		.set	.LANCHOR1,. + 0
 154              		.type	Up, %object
 155              		.size	Up, 1
 156              	Up:
 157 0000 01       		.byte	1
 158              		.bss
 159              		.set	.LANCHOR0,. + 0
 160              		.type	ISR_Flag, %object
 161              		.size	ISR_Flag, 1
 162              	ISR_Flag:
 163 0000 00       		.space	1
 164              		.text
 165              	.Letext0:
 166              		.file 2 "Generated_Source\\PSoC4/cytypes.h"
 167              		.file 3 "Generated_Source\\PSoC4/Timer_1.h"
 168              		.file 4 "Generated_Source\\PSoC4/Timer1_ISR.h"
 169              		.file 5 "Generated_Source\\PSoC4/PWM_1.h"