ARM GAS  C:\Users\User\AppData\Local\Temp\ccuMFHPA.s 			page 1


   1              		.syntax unified
   2              		.cpu cortex-m0
   3              		.fpu softvfp
   4              		.eabi_attribute 20, 1
   5              		.eabi_attribute 21, 1
   6              		.eabi_attribute 23, 3
   7              		.eabi_attribute 24, 1
   8              		.eabi_attribute 25, 1
   9              		.eabi_attribute 26, 1
  10              		.eabi_attribute 30, 1
  11              		.eabi_attribute 34, 0
  12              		.eabi_attribute 18, 4
  13              		.thumb
  14              		.syntax unified
  15              		.file	"main.c"
  16              		.text
  17              	.Ltext0:
  18              		.cfi_sections	.debug_frame
  19              		.section	.text.KEY_ISR_Function,"ax",%progbits
  20              		.align	2
  21              		.global	KEY_ISR_Function
  22              		.code	16
  23              		.thumb_func
  24              		.type	KEY_ISR_Function, %function
  25              	KEY_ISR_Function:
  26              	.LFB35:
  27              		.file 1 "main.c"
   1:main.c        **** /* ========================================
   2:main.c        ****  *
   3:main.c        ****  * Copyright YOUR COMPANY, THE YEAR
   4:main.c        ****  * All Rights Reserved
   5:main.c        ****  * UNPUBLISHED, LICENSED SOFTWARE.
   6:main.c        ****  *
   7:main.c        ****  * CONFIDENTIAL AND PROPRIETARY INFORMATION
   8:main.c        ****  * WHICH IS THE PROPERTY OF your company.
   9:main.c        ****  *
  10:main.c        ****  * ========================================
  11:main.c        **** */
  12:main.c        **** #include "project.h"
  13:main.c        **** 
  14:main.c        **** CY_ISR_PROTO(KEY_ISR_Function);
  15:main.c        **** uint8 flag=0;
  16:main.c        **** 
  17:main.c        **** int main(void)
  18:main.c        **** {
  19:main.c        ****     CyGlobalIntEnable; /* Enable global interrupts. */
  20:main.c        ****     
  21:main.c        ****     KEY_ISR_StartEx(KEY_ISR_Function);
  22:main.c        **** 
  23:main.c        ****     /* Place your initialization/startup code here (e.g. MyInst_Start()) */
  24:main.c        **** 
  25:main.c        ****     for(;;)
  26:main.c        ****     {
  27:main.c        ****         /* Place your application code here. */
  28:main.c        ****         if(flag==1)
  29:main.c        ****         {            
  30:main.c        ****             CyDelayUs(10);            
ARM GAS  C:\Users\User\AppData\Local\Temp\ccuMFHPA.s 			page 2


  31:main.c        ****             if(SW2_Read()==1)
  32:main.c        ****             {
  33:main.c        ****                 LED_R_Write(~LED_R_Read());
  34:main.c        ****             }
  35:main.c        ****             flag=0;
  36:main.c        ****         }
  37:main.c        ****     }
  38:main.c        **** }
  39:main.c        **** 
  40:main.c        **** CY_ISR(KEY_ISR_Function)
  41:main.c        **** {
  28              		.loc 1 41 0
  29              		.cfi_startproc
  30              		@ args = 0, pretend = 0, frame = 0
  31              		@ frame_needed = 0, uses_anonymous_args = 0
  32 0000 10B5     		push	{r4, lr}
  33              		.cfi_def_cfa_offset 8
  34              		.cfi_offset 4, -8
  35              		.cfi_offset 14, -4
  42:main.c        ****     flag=1;
  36              		.loc 1 42 0
  37 0002 0122     		movs	r2, #1
  38 0004 024B     		ldr	r3, .L2
  39 0006 1A70     		strb	r2, [r3]
  43:main.c        ****     SW2_ClearInterrupt();
  40              		.loc 1 43 0
  41 0008 FFF7FEFF 		bl	SW2_ClearInterrupt
  42              	.LVL0:
  44:main.c        **** }
  43              		.loc 1 44 0
  44              		@ sp needed
  45 000c 10BD     		pop	{r4, pc}
  46              	.L3:
  47 000e C046     		.align	2
  48              	.L2:
  49 0010 00000000 		.word	.LANCHOR0
  50              		.cfi_endproc
  51              	.LFE35:
  52              		.size	KEY_ISR_Function, .-KEY_ISR_Function
  53              		.section	.text.main,"ax",%progbits
  54              		.align	2
  55              		.global	main
  56              		.code	16
  57              		.thumb_func
  58              		.type	main, %function
  59              	main:
  60              	.LFB34:
  18:main.c        ****     CyGlobalIntEnable; /* Enable global interrupts. */
  61              		.loc 1 18 0
  62              		.cfi_startproc
  63              		@ Volatile: function does not return.
  64              		@ args = 0, pretend = 0, frame = 0
  65              		@ frame_needed = 0, uses_anonymous_args = 0
  66 0000 10B5     		push	{r4, lr}
  67              		.cfi_def_cfa_offset 8
  68              		.cfi_offset 4, -8
  69              		.cfi_offset 14, -4
ARM GAS  C:\Users\User\AppData\Local\Temp\ccuMFHPA.s 			page 3


  19:main.c        ****     
  70              		.loc 1 19 0
  71              		.syntax divided
  72              	@ 19 "main.c" 1
  73 0002 62B6     		CPSIE   i
  74              	@ 0 "" 2
  21:main.c        **** 
  75              		.loc 1 21 0
  76              		.thumb
  77              		.syntax unified
  78 0004 0B48     		ldr	r0, .L8
  79 0006 FFF7FEFF 		bl	KEY_ISR_StartEx
  80              	.LVL1:
  81              	.L5:
  28:main.c        ****         {            
  82              		.loc 1 28 0
  83 000a 0B4B     		ldr	r3, .L8+4
  84 000c 1B78     		ldrb	r3, [r3]
  85 000e 012B     		cmp	r3, #1
  86 0010 FBD1     		bne	.L5
  30:main.c        ****             if(SW2_Read()==1)
  87              		.loc 1 30 0
  88 0012 0A20     		movs	r0, #10
  89 0014 FFF7FEFF 		bl	CyDelayUs
  90              	.LVL2:
  31:main.c        ****             {
  91              		.loc 1 31 0
  92 0018 FFF7FEFF 		bl	SW2_Read
  93              	.LVL3:
  94 001c 0128     		cmp	r0, #1
  95 001e 05D1     		bne	.L6
  33:main.c        ****             }
  96              		.loc 1 33 0
  97 0020 FFF7FEFF 		bl	LED_R_Read
  98              	.LVL4:
  99 0024 C043     		mvns	r0, r0
 100 0026 C0B2     		uxtb	r0, r0
 101 0028 FFF7FEFF 		bl	LED_R_Write
 102              	.LVL5:
 103              	.L6:
  35:main.c        ****         }
 104              		.loc 1 35 0
 105 002c 0022     		movs	r2, #0
 106 002e 024B     		ldr	r3, .L8+4
 107 0030 1A70     		strb	r2, [r3]
 108 0032 EAE7     		b	.L5
 109              	.L9:
 110              		.align	2
 111              	.L8:
 112 0034 00000000 		.word	KEY_ISR_Function
 113 0038 00000000 		.word	.LANCHOR0
 114              		.cfi_endproc
 115              	.LFE34:
 116              		.size	main, .-main
 117              		.global	flag
 118              		.bss
 119              		.set	.LANCHOR0,. + 0
ARM GAS  C:\Users\User\AppData\Local\Temp\ccuMFHPA.s 			page 4


 120              		.type	flag, %object
 121              		.size	flag, 1
 122              	flag:
 123 0000 00       		.space	1
 124              		.text
 125              	.Letext0:
 126              		.file 2 "Generated_Source\\PSoC4/SW2.h"
 127              		.file 3 "Generated_Source\\PSoC4/KEY_ISR.h"
 128              		.file 4 "Generated_Source\\PSoC4/CyLib.h"
 129              		.file 5 "Generated_Source\\PSoC4/LED_R.h"
 130              		.file 6 "Generated_Source\\PSoC4/cytypes.h"