ARM GAS  C:\Users\User\AppData\Local\Temp\ccieNkfn.s 			page 1


   1              		.syntax unified
   2              		.cpu cortex-m0
   3              		.fpu softvfp
   4              		.eabi_attribute 20, 1
   5              		.eabi_attribute 21, 1
   6              		.eabi_attribute 23, 3
   7              		.eabi_attribute 24, 1
   8              		.eabi_attribute 25, 1
   9              		.eabi_attribute 26, 1
  10              		.eabi_attribute 30, 1
  11              		.eabi_attribute 34, 0
  12              		.eabi_attribute 18, 4
  13              		.thumb
  14              		.syntax unified
  15              		.file	"USBFS_std.c"
  16              		.text
  17              	.Ltext0:
  18              		.cfi_sections	.debug_frame
  19              		.section	.text.USBFS_ConfigReg,"ax",%progbits
  20              		.align	2
  21              		.global	USBFS_ConfigReg
  22              		.code	16
  23              		.thumb_func
  24              		.type	USBFS_ConfigReg, %function
  25              	USBFS_ConfigReg:
  26              	.LFB2:
  27              		.file 1 "Generated_Source\\PSoC4\\USBFS_std.c"
   1:Generated_Source\PSoC4/USBFS_std.c **** /***************************************************************************//**
   2:Generated_Source\PSoC4/USBFS_std.c **** * \file USBFS_std.c
   3:Generated_Source\PSoC4/USBFS_std.c **** * \version 3.20
   4:Generated_Source\PSoC4/USBFS_std.c **** *
   5:Generated_Source\PSoC4/USBFS_std.c **** * \brief
   6:Generated_Source\PSoC4/USBFS_std.c **** *  This file contains the USB Standard request handler.
   7:Generated_Source\PSoC4/USBFS_std.c **** *
   8:Generated_Source\PSoC4/USBFS_std.c **** ********************************************************************************
   9:Generated_Source\PSoC4/USBFS_std.c **** * \copyright
  10:Generated_Source\PSoC4/USBFS_std.c **** * Copyright 2008-2016, Cypress Semiconductor Corporation.  All rights reserved.
  11:Generated_Source\PSoC4/USBFS_std.c **** * You may use this file only in accordance with the license, terms, conditions,
  12:Generated_Source\PSoC4/USBFS_std.c **** * disclaimers, and limitations in the end user license agreement accompanying
  13:Generated_Source\PSoC4/USBFS_std.c **** * the software package with which this file was provided.
  14:Generated_Source\PSoC4/USBFS_std.c **** *******************************************************************************/
  15:Generated_Source\PSoC4/USBFS_std.c **** 
  16:Generated_Source\PSoC4/USBFS_std.c **** #include "USBFS_pvt.h"
  17:Generated_Source\PSoC4/USBFS_std.c **** 
  18:Generated_Source\PSoC4/USBFS_std.c **** /***************************************
  19:Generated_Source\PSoC4/USBFS_std.c **** *   Static data allocation
  20:Generated_Source\PSoC4/USBFS_std.c **** ***************************************/
  21:Generated_Source\PSoC4/USBFS_std.c **** 
  22:Generated_Source\PSoC4/USBFS_std.c **** #if defined(USBFS_ENABLE_FWSN_STRING)
  23:Generated_Source\PSoC4/USBFS_std.c ****     static volatile uint8* USBFS_fwSerialNumberStringDescriptor;
  24:Generated_Source\PSoC4/USBFS_std.c ****     static volatile uint8  USBFS_snStringConfirm = USBFS_FALSE;
  25:Generated_Source\PSoC4/USBFS_std.c **** #endif  /* (USBFS_ENABLE_FWSN_STRING) */
  26:Generated_Source\PSoC4/USBFS_std.c **** 
  27:Generated_Source\PSoC4/USBFS_std.c **** #if defined(USBFS_ENABLE_FWSN_STRING)
  28:Generated_Source\PSoC4/USBFS_std.c ****     /***************************************************************************
  29:Generated_Source\PSoC4/USBFS_std.c ****     * Function Name: USBFS_SerialNumString
  30:Generated_Source\PSoC4/USBFS_std.c ****     ************************************************************************//**
ARM GAS  C:\Users\User\AppData\Local\Temp\ccieNkfn.s 			page 2


  31:Generated_Source\PSoC4/USBFS_std.c ****     *
  32:Generated_Source\PSoC4/USBFS_std.c ****     *  This function is available only when the User Call Back option in the 
  33:Generated_Source\PSoC4/USBFS_std.c ****     *  Serial Number String descriptor properties is selected. Application 
  34:Generated_Source\PSoC4/USBFS_std.c ****     *  firmware can provide the source of the USB device serial number string 
  35:Generated_Source\PSoC4/USBFS_std.c ****     *  descriptor during run time. The default string is used if the application 
  36:Generated_Source\PSoC4/USBFS_std.c ****     *  firmware does not use this function or sets the wrong string descriptor.
  37:Generated_Source\PSoC4/USBFS_std.c ****     *
  38:Generated_Source\PSoC4/USBFS_std.c ****     *  \param snString:  Pointer to the user-defined string descriptor. The 
  39:Generated_Source\PSoC4/USBFS_std.c ****     *  string descriptor should meet the Universal Serial Bus Specification 
  40:Generated_Source\PSoC4/USBFS_std.c ****     *  revision 2.0 chapter 9.6.7
  41:Generated_Source\PSoC4/USBFS_std.c ****     *  Offset|Size|Value|Description
  42:Generated_Source\PSoC4/USBFS_std.c ****     *  ------|----|------|---------------------------------
  43:Generated_Source\PSoC4/USBFS_std.c ****     *  0     |1   |N     |Size of this descriptor in bytes
  44:Generated_Source\PSoC4/USBFS_std.c ****     *  1     |1   |0x03  |STRING Descriptor Type
  45:Generated_Source\PSoC4/USBFS_std.c ****     *  2     |N-2 |Number|UNICODE encoded string
  46:Generated_Source\PSoC4/USBFS_std.c ****     *  
  47:Generated_Source\PSoC4/USBFS_std.c ****     * *For example:* uint8 snString[16]={0x0E,0x03,'F',0,'W',0,'S',0,'N',0,'0',0,'1',0};
  48:Generated_Source\PSoC4/USBFS_std.c ****     *
  49:Generated_Source\PSoC4/USBFS_std.c ****     * \reentrant
  50:Generated_Source\PSoC4/USBFS_std.c ****     *  No.
  51:Generated_Source\PSoC4/USBFS_std.c ****     *
  52:Generated_Source\PSoC4/USBFS_std.c ****     ***************************************************************************/
  53:Generated_Source\PSoC4/USBFS_std.c ****     void  USBFS_SerialNumString(uint8 snString[]) 
  54:Generated_Source\PSoC4/USBFS_std.c ****     {
  55:Generated_Source\PSoC4/USBFS_std.c ****         USBFS_snStringConfirm = USBFS_FALSE;
  56:Generated_Source\PSoC4/USBFS_std.c ****         
  57:Generated_Source\PSoC4/USBFS_std.c ****         if (snString != NULL)
  58:Generated_Source\PSoC4/USBFS_std.c ****         {
  59:Generated_Source\PSoC4/USBFS_std.c ****             /* Check descriptor validation */
  60:Generated_Source\PSoC4/USBFS_std.c ****             if ((snString[0u] > 1u) && (snString[1u] == USBFS_DESCR_STRING))
  61:Generated_Source\PSoC4/USBFS_std.c ****             {
  62:Generated_Source\PSoC4/USBFS_std.c ****                 USBFS_fwSerialNumberStringDescriptor = snString;
  63:Generated_Source\PSoC4/USBFS_std.c ****                 USBFS_snStringConfirm = USBFS_TRUE;
  64:Generated_Source\PSoC4/USBFS_std.c ****             }
  65:Generated_Source\PSoC4/USBFS_std.c ****         }
  66:Generated_Source\PSoC4/USBFS_std.c ****     }
  67:Generated_Source\PSoC4/USBFS_std.c **** #endif  /* USBFS_ENABLE_FWSN_STRING */
  68:Generated_Source\PSoC4/USBFS_std.c **** 
  69:Generated_Source\PSoC4/USBFS_std.c **** 
  70:Generated_Source\PSoC4/USBFS_std.c **** /*******************************************************************************
  71:Generated_Source\PSoC4/USBFS_std.c **** * Function Name: USBFS_HandleStandardRqst
  72:Generated_Source\PSoC4/USBFS_std.c **** ****************************************************************************//**
  73:Generated_Source\PSoC4/USBFS_std.c **** *
  74:Generated_Source\PSoC4/USBFS_std.c **** *  This Routine dispatches standard requests
  75:Generated_Source\PSoC4/USBFS_std.c **** *
  76:Generated_Source\PSoC4/USBFS_std.c **** *
  77:Generated_Source\PSoC4/USBFS_std.c **** * \return
  78:Generated_Source\PSoC4/USBFS_std.c **** *  TRUE if request handled.
  79:Generated_Source\PSoC4/USBFS_std.c **** *
  80:Generated_Source\PSoC4/USBFS_std.c **** * \reentrant
  81:Generated_Source\PSoC4/USBFS_std.c **** *  No.
  82:Generated_Source\PSoC4/USBFS_std.c **** *
  83:Generated_Source\PSoC4/USBFS_std.c **** *******************************************************************************/
  84:Generated_Source\PSoC4/USBFS_std.c **** uint8 USBFS_HandleStandardRqst(void) 
  85:Generated_Source\PSoC4/USBFS_std.c **** {
  86:Generated_Source\PSoC4/USBFS_std.c ****     uint8 requestHandled = USBFS_FALSE;
  87:Generated_Source\PSoC4/USBFS_std.c ****     uint32 interfaceNumber;
ARM GAS  C:\Users\User\AppData\Local\Temp\ccieNkfn.s 			page 3


  88:Generated_Source\PSoC4/USBFS_std.c ****     uint32 configurationN;
  89:Generated_Source\PSoC4/USBFS_std.c ****     uint32 bmRequestType = USBFS_bmRequestTypeReg;
  90:Generated_Source\PSoC4/USBFS_std.c **** 
  91:Generated_Source\PSoC4/USBFS_std.c **** #if defined(USBFS_ENABLE_STRINGS)
  92:Generated_Source\PSoC4/USBFS_std.c ****     volatile uint8 *pStr = 0u;
  93:Generated_Source\PSoC4/USBFS_std.c ****     #if defined(USBFS_ENABLE_DESCRIPTOR_STRINGS)
  94:Generated_Source\PSoC4/USBFS_std.c ****         uint8 nStr;
  95:Generated_Source\PSoC4/USBFS_std.c ****         uint8 descrLength;
  96:Generated_Source\PSoC4/USBFS_std.c ****     #endif /* (USBFS_ENABLE_DESCRIPTOR_STRINGS) */
  97:Generated_Source\PSoC4/USBFS_std.c **** #endif /* (USBFS_ENABLE_STRINGS) */
  98:Generated_Source\PSoC4/USBFS_std.c ****     
  99:Generated_Source\PSoC4/USBFS_std.c ****     static volatile uint8 USBFS_tBuffer[USBFS_STATUS_LENGTH_MAX];
 100:Generated_Source\PSoC4/USBFS_std.c ****     const T_USBFS_LUT CYCODE *pTmp;
 101:Generated_Source\PSoC4/USBFS_std.c **** 
 102:Generated_Source\PSoC4/USBFS_std.c ****     USBFS_currentTD.count = 0u;
 103:Generated_Source\PSoC4/USBFS_std.c **** 
 104:Generated_Source\PSoC4/USBFS_std.c ****     if (USBFS_RQST_DIR_D2H == (bmRequestType & USBFS_RQST_DIR_MASK))
 105:Generated_Source\PSoC4/USBFS_std.c ****     {
 106:Generated_Source\PSoC4/USBFS_std.c ****         /* Control Read */
 107:Generated_Source\PSoC4/USBFS_std.c ****         switch (USBFS_bRequestReg)
 108:Generated_Source\PSoC4/USBFS_std.c ****         {
 109:Generated_Source\PSoC4/USBFS_std.c ****             case USBFS_GET_DESCRIPTOR:
 110:Generated_Source\PSoC4/USBFS_std.c ****                 if (USBFS_DESCR_DEVICE ==USBFS_wValueHiReg)
 111:Generated_Source\PSoC4/USBFS_std.c ****                 {
 112:Generated_Source\PSoC4/USBFS_std.c ****                     pTmp = USBFS_GetDeviceTablePtr();
 113:Generated_Source\PSoC4/USBFS_std.c ****                     USBFS_currentTD.pData = (volatile uint8 *)pTmp->p_list;
 114:Generated_Source\PSoC4/USBFS_std.c ****                     USBFS_currentTD.count = USBFS_DEVICE_DESCR_LENGTH;
 115:Generated_Source\PSoC4/USBFS_std.c ****                     
 116:Generated_Source\PSoC4/USBFS_std.c ****                     requestHandled  = USBFS_InitControlRead();
 117:Generated_Source\PSoC4/USBFS_std.c ****                 }
 118:Generated_Source\PSoC4/USBFS_std.c ****                 else if (USBFS_DESCR_CONFIG == USBFS_wValueHiReg)
 119:Generated_Source\PSoC4/USBFS_std.c ****                 {
 120:Generated_Source\PSoC4/USBFS_std.c ****                     pTmp = USBFS_GetConfigTablePtr((uint8) USBFS_wValueLoReg);
 121:Generated_Source\PSoC4/USBFS_std.c ****                     
 122:Generated_Source\PSoC4/USBFS_std.c ****                     /* Verify that requested descriptor exists */
 123:Generated_Source\PSoC4/USBFS_std.c ****                     if (pTmp != NULL)
 124:Generated_Source\PSoC4/USBFS_std.c ****                     {
 125:Generated_Source\PSoC4/USBFS_std.c ****                         USBFS_currentTD.pData = (volatile uint8 *)pTmp->p_list;
 126:Generated_Source\PSoC4/USBFS_std.c ****                         USBFS_currentTD.count = (uint16)((uint16)(USBFS_currentTD.pData)[USBFS_CONF
 127:Generated_Source\PSoC4/USBFS_std.c ****                                                                             (USBFS_currentTD.pData)
 128:Generated_Source\PSoC4/USBFS_std.c ****                         requestHandled  = USBFS_InitControlRead();
 129:Generated_Source\PSoC4/USBFS_std.c ****                     }
 130:Generated_Source\PSoC4/USBFS_std.c ****                 }
 131:Generated_Source\PSoC4/USBFS_std.c ****                 
 132:Generated_Source\PSoC4/USBFS_std.c ****             #if(USBFS_BOS_ENABLE)
 133:Generated_Source\PSoC4/USBFS_std.c ****                 else if (USBFS_DESCR_BOS == USBFS_wValueHiReg)
 134:Generated_Source\PSoC4/USBFS_std.c ****                 {
 135:Generated_Source\PSoC4/USBFS_std.c ****                     pTmp = USBFS_GetBOSPtr();
 136:Generated_Source\PSoC4/USBFS_std.c ****                     
 137:Generated_Source\PSoC4/USBFS_std.c ****                     /* Verify that requested descriptor exists */
 138:Generated_Source\PSoC4/USBFS_std.c ****                     if (pTmp != NULL)
 139:Generated_Source\PSoC4/USBFS_std.c ****                     {
 140:Generated_Source\PSoC4/USBFS_std.c ****                         USBFS_currentTD.pData = (volatile uint8 *)pTmp;
 141:Generated_Source\PSoC4/USBFS_std.c ****                         USBFS_currentTD.count = ((uint16)((uint16)(USBFS_currentTD.pData)[USBFS_BOS
 142:Generated_Source\PSoC4/USBFS_std.c ****                                                                              (USBFS_currentTD.pData
 143:Generated_Source\PSoC4/USBFS_std.c ****                         requestHandled  = USBFS_InitControlRead();
 144:Generated_Source\PSoC4/USBFS_std.c ****                     }
ARM GAS  C:\Users\User\AppData\Local\Temp\ccieNkfn.s 			page 4


 145:Generated_Source\PSoC4/USBFS_std.c ****                 }
 146:Generated_Source\PSoC4/USBFS_std.c ****             #endif /*(USBFS_BOS_ENABLE)*/
 147:Generated_Source\PSoC4/USBFS_std.c ****             
 148:Generated_Source\PSoC4/USBFS_std.c ****             #if defined(USBFS_ENABLE_STRINGS)
 149:Generated_Source\PSoC4/USBFS_std.c ****                 else if (USBFS_DESCR_STRING == USBFS_wValueHiReg)
 150:Generated_Source\PSoC4/USBFS_std.c ****                 {
 151:Generated_Source\PSoC4/USBFS_std.c ****                 /* Descriptor Strings */
 152:Generated_Source\PSoC4/USBFS_std.c ****                 #if defined(USBFS_ENABLE_DESCRIPTOR_STRINGS)
 153:Generated_Source\PSoC4/USBFS_std.c ****                     nStr = 0u;
 154:Generated_Source\PSoC4/USBFS_std.c ****                     pStr = (volatile uint8 *) &USBFS_STRING_DESCRIPTORS[0u];
 155:Generated_Source\PSoC4/USBFS_std.c ****                     
 156:Generated_Source\PSoC4/USBFS_std.c ****                     while ((USBFS_wValueLoReg > nStr) && (*pStr != 0u))
 157:Generated_Source\PSoC4/USBFS_std.c ****                     {
 158:Generated_Source\PSoC4/USBFS_std.c ****                         /* Read descriptor length from 1st byte */
 159:Generated_Source\PSoC4/USBFS_std.c ****                         descrLength = *pStr;
 160:Generated_Source\PSoC4/USBFS_std.c ****                         /* Move to next string descriptor */
 161:Generated_Source\PSoC4/USBFS_std.c ****                         pStr = &pStr[descrLength];
 162:Generated_Source\PSoC4/USBFS_std.c ****                         nStr++;
 163:Generated_Source\PSoC4/USBFS_std.c ****                     }
 164:Generated_Source\PSoC4/USBFS_std.c ****                 #endif /* (USBFS_ENABLE_DESCRIPTOR_STRINGS) */
 165:Generated_Source\PSoC4/USBFS_std.c ****                 
 166:Generated_Source\PSoC4/USBFS_std.c ****                 /* Microsoft OS String */
 167:Generated_Source\PSoC4/USBFS_std.c ****                 #if defined(USBFS_ENABLE_MSOS_STRING)
 168:Generated_Source\PSoC4/USBFS_std.c ****                     if (USBFS_STRING_MSOS == USBFS_wValueLoReg)
 169:Generated_Source\PSoC4/USBFS_std.c ****                     {
 170:Generated_Source\PSoC4/USBFS_std.c ****                         pStr = (volatile uint8 *)& USBFS_MSOS_DESCRIPTOR[0u];
 171:Generated_Source\PSoC4/USBFS_std.c ****                     }
 172:Generated_Source\PSoC4/USBFS_std.c ****                 #endif /* (USBFS_ENABLE_MSOS_STRING) */
 173:Generated_Source\PSoC4/USBFS_std.c ****                 
 174:Generated_Source\PSoC4/USBFS_std.c ****                 /* SN string */
 175:Generated_Source\PSoC4/USBFS_std.c ****                 #if defined(USBFS_ENABLE_SN_STRING)
 176:Generated_Source\PSoC4/USBFS_std.c ****                     if ((USBFS_wValueLoReg != 0u) && 
 177:Generated_Source\PSoC4/USBFS_std.c ****                         (USBFS_wValueLoReg == USBFS_DEVICE0_DESCR[USBFS_DEVICE_DESCR_SN_SHIFT]))
 178:Generated_Source\PSoC4/USBFS_std.c ****                     {
 179:Generated_Source\PSoC4/USBFS_std.c ****                     #if defined(USBFS_ENABLE_IDSN_STRING)
 180:Generated_Source\PSoC4/USBFS_std.c ****                         /* Read DIE ID and generate string descriptor in RAM */
 181:Generated_Source\PSoC4/USBFS_std.c ****                         USBFS_ReadDieID(USBFS_idSerialNumberStringDescriptor);
 182:Generated_Source\PSoC4/USBFS_std.c ****                         pStr = USBFS_idSerialNumberStringDescriptor;
 183:Generated_Source\PSoC4/USBFS_std.c ****                     #elif defined(USBFS_ENABLE_FWSN_STRING)
 184:Generated_Source\PSoC4/USBFS_std.c ****                         
 185:Generated_Source\PSoC4/USBFS_std.c ****                         if(USBFS_snStringConfirm != USBFS_FALSE)
 186:Generated_Source\PSoC4/USBFS_std.c ****                         {
 187:Generated_Source\PSoC4/USBFS_std.c ****                             pStr = USBFS_fwSerialNumberStringDescriptor;
 188:Generated_Source\PSoC4/USBFS_std.c ****                         }
 189:Generated_Source\PSoC4/USBFS_std.c ****                         else
 190:Generated_Source\PSoC4/USBFS_std.c ****                         {
 191:Generated_Source\PSoC4/USBFS_std.c ****                             pStr = (volatile uint8 *)&USBFS_SN_STRING_DESCRIPTOR[0u];
 192:Generated_Source\PSoC4/USBFS_std.c ****                         }
 193:Generated_Source\PSoC4/USBFS_std.c ****                     #else
 194:Generated_Source\PSoC4/USBFS_std.c ****                         pStr = (volatile uint8 *)&USBFS_SN_STRING_DESCRIPTOR[0u];
 195:Generated_Source\PSoC4/USBFS_std.c ****                     #endif  /* (USBFS_ENABLE_IDSN_STRING) */
 196:Generated_Source\PSoC4/USBFS_std.c ****                     }
 197:Generated_Source\PSoC4/USBFS_std.c ****                 #endif /* (USBFS_ENABLE_SN_STRING) */
 198:Generated_Source\PSoC4/USBFS_std.c ****                 
 199:Generated_Source\PSoC4/USBFS_std.c ****                     if (*pStr != 0u)
 200:Generated_Source\PSoC4/USBFS_std.c ****                     {
 201:Generated_Source\PSoC4/USBFS_std.c ****                         USBFS_currentTD.count = *pStr;
ARM GAS  C:\Users\User\AppData\Local\Temp\ccieNkfn.s 			page 5


 202:Generated_Source\PSoC4/USBFS_std.c ****                         USBFS_currentTD.pData = pStr;
 203:Generated_Source\PSoC4/USBFS_std.c ****                         requestHandled  = USBFS_InitControlRead();
 204:Generated_Source\PSoC4/USBFS_std.c ****                     }
 205:Generated_Source\PSoC4/USBFS_std.c ****                 }
 206:Generated_Source\PSoC4/USBFS_std.c ****             #endif /*  USBFS_ENABLE_STRINGS */
 207:Generated_Source\PSoC4/USBFS_std.c ****                 else
 208:Generated_Source\PSoC4/USBFS_std.c ****                 {
 209:Generated_Source\PSoC4/USBFS_std.c ****                     requestHandled = USBFS_DispatchClassRqst();
 210:Generated_Source\PSoC4/USBFS_std.c ****                 }
 211:Generated_Source\PSoC4/USBFS_std.c ****                 break;
 212:Generated_Source\PSoC4/USBFS_std.c ****                 
 213:Generated_Source\PSoC4/USBFS_std.c ****             case USBFS_GET_STATUS:
 214:Generated_Source\PSoC4/USBFS_std.c ****                 switch (bmRequestType & USBFS_RQST_RCPT_MASK)
 215:Generated_Source\PSoC4/USBFS_std.c ****                 {
 216:Generated_Source\PSoC4/USBFS_std.c ****                     case USBFS_RQST_RCPT_EP:
 217:Generated_Source\PSoC4/USBFS_std.c ****                         USBFS_currentTD.count = USBFS_EP_STATUS_LENGTH;
 218:Generated_Source\PSoC4/USBFS_std.c ****                         USBFS_tBuffer[0u]     = USBFS_EP[USBFS_wIndexLoReg & USBFS_DIR_UNUSED].hwEp
 219:Generated_Source\PSoC4/USBFS_std.c ****                         USBFS_tBuffer[1u]     = 0u;
 220:Generated_Source\PSoC4/USBFS_std.c ****                         USBFS_currentTD.pData = &USBFS_tBuffer[0u];
 221:Generated_Source\PSoC4/USBFS_std.c ****                         
 222:Generated_Source\PSoC4/USBFS_std.c ****                         requestHandled  = USBFS_InitControlRead();
 223:Generated_Source\PSoC4/USBFS_std.c ****                         break;
 224:Generated_Source\PSoC4/USBFS_std.c ****                     case USBFS_RQST_RCPT_DEV:
 225:Generated_Source\PSoC4/USBFS_std.c ****                         USBFS_currentTD.count = USBFS_DEVICE_STATUS_LENGTH;
 226:Generated_Source\PSoC4/USBFS_std.c ****                         USBFS_tBuffer[0u]     = USBFS_deviceStatus;
 227:Generated_Source\PSoC4/USBFS_std.c ****                         USBFS_tBuffer[1u]     = 0u;
 228:Generated_Source\PSoC4/USBFS_std.c ****                         USBFS_currentTD.pData = &USBFS_tBuffer[0u];
 229:Generated_Source\PSoC4/USBFS_std.c ****                         
 230:Generated_Source\PSoC4/USBFS_std.c ****                         requestHandled  = USBFS_InitControlRead();
 231:Generated_Source\PSoC4/USBFS_std.c ****                         break;
 232:Generated_Source\PSoC4/USBFS_std.c ****                     default:    /* requestHandled is initialized as FALSE by default */
 233:Generated_Source\PSoC4/USBFS_std.c ****                         break;
 234:Generated_Source\PSoC4/USBFS_std.c ****                 }
 235:Generated_Source\PSoC4/USBFS_std.c ****                 break;
 236:Generated_Source\PSoC4/USBFS_std.c ****                 
 237:Generated_Source\PSoC4/USBFS_std.c ****             case USBFS_GET_CONFIGURATION:
 238:Generated_Source\PSoC4/USBFS_std.c ****                 USBFS_currentTD.count = 1u;
 239:Generated_Source\PSoC4/USBFS_std.c ****                 USBFS_currentTD.pData = (volatile uint8 *) &USBFS_configuration;
 240:Generated_Source\PSoC4/USBFS_std.c ****                 requestHandled  = USBFS_InitControlRead();
 241:Generated_Source\PSoC4/USBFS_std.c ****                 break;
 242:Generated_Source\PSoC4/USBFS_std.c ****                 
 243:Generated_Source\PSoC4/USBFS_std.c ****             case USBFS_GET_INTERFACE:
 244:Generated_Source\PSoC4/USBFS_std.c ****                 USBFS_currentTD.count = 1u;
 245:Generated_Source\PSoC4/USBFS_std.c ****                 USBFS_currentTD.pData = (volatile uint8 *) &USBFS_interfaceSetting[USBFS_wIndexLoRe
 246:Generated_Source\PSoC4/USBFS_std.c ****                 requestHandled  = USBFS_InitControlRead();
 247:Generated_Source\PSoC4/USBFS_std.c ****                 break;
 248:Generated_Source\PSoC4/USBFS_std.c ****                 
 249:Generated_Source\PSoC4/USBFS_std.c ****             default: /* requestHandled is initialized as FALSE by default */
 250:Generated_Source\PSoC4/USBFS_std.c ****                 break;
 251:Generated_Source\PSoC4/USBFS_std.c ****         }
 252:Generated_Source\PSoC4/USBFS_std.c ****     }
 253:Generated_Source\PSoC4/USBFS_std.c ****     else
 254:Generated_Source\PSoC4/USBFS_std.c ****     {
 255:Generated_Source\PSoC4/USBFS_std.c ****         /* Control Write */
 256:Generated_Source\PSoC4/USBFS_std.c ****         switch (USBFS_bRequestReg)
 257:Generated_Source\PSoC4/USBFS_std.c ****         {
 258:Generated_Source\PSoC4/USBFS_std.c ****             case USBFS_SET_ADDRESS:
ARM GAS  C:\Users\User\AppData\Local\Temp\ccieNkfn.s 			page 6


 259:Generated_Source\PSoC4/USBFS_std.c ****                 /* Store address to be set in USBFS_NoDataControlStatusStage(). */
 260:Generated_Source\PSoC4/USBFS_std.c ****                 USBFS_deviceAddress = (uint8) USBFS_wValueLoReg;
 261:Generated_Source\PSoC4/USBFS_std.c ****                 requestHandled = USBFS_InitNoDataControlTransfer();
 262:Generated_Source\PSoC4/USBFS_std.c ****                 break;
 263:Generated_Source\PSoC4/USBFS_std.c ****                 
 264:Generated_Source\PSoC4/USBFS_std.c ****             case USBFS_SET_CONFIGURATION:
 265:Generated_Source\PSoC4/USBFS_std.c ****                 configurationN = USBFS_wValueLoReg;
 266:Generated_Source\PSoC4/USBFS_std.c ****                 
 267:Generated_Source\PSoC4/USBFS_std.c ****                 /* Verify that configuration descriptor exists */
 268:Generated_Source\PSoC4/USBFS_std.c ****                 if(configurationN > 0u)
 269:Generated_Source\PSoC4/USBFS_std.c ****                 {
 270:Generated_Source\PSoC4/USBFS_std.c ****                     pTmp = USBFS_GetConfigTablePtr((uint8) configurationN - 1u);
 271:Generated_Source\PSoC4/USBFS_std.c ****                 }
 272:Generated_Source\PSoC4/USBFS_std.c ****                 
 273:Generated_Source\PSoC4/USBFS_std.c ****                 /* Responds with a Request Error when configuration number is invalid */
 274:Generated_Source\PSoC4/USBFS_std.c ****                 if (((configurationN > 0u) && (pTmp != NULL)) || (configurationN == 0u))
 275:Generated_Source\PSoC4/USBFS_std.c ****                 {
 276:Generated_Source\PSoC4/USBFS_std.c ****                     /* Set new configuration if it has been changed */
 277:Generated_Source\PSoC4/USBFS_std.c ****                     if(configurationN != USBFS_configuration)
 278:Generated_Source\PSoC4/USBFS_std.c ****                     {
 279:Generated_Source\PSoC4/USBFS_std.c ****                         USBFS_configuration = (uint8) configurationN;
 280:Generated_Source\PSoC4/USBFS_std.c ****                         USBFS_configurationChanged = USBFS_TRUE;
 281:Generated_Source\PSoC4/USBFS_std.c ****                         USBFS_Config(USBFS_TRUE);
 282:Generated_Source\PSoC4/USBFS_std.c ****                     }
 283:Generated_Source\PSoC4/USBFS_std.c ****                     requestHandled = USBFS_InitNoDataControlTransfer();
 284:Generated_Source\PSoC4/USBFS_std.c ****                 }
 285:Generated_Source\PSoC4/USBFS_std.c ****                 break;
 286:Generated_Source\PSoC4/USBFS_std.c ****                 
 287:Generated_Source\PSoC4/USBFS_std.c ****             case USBFS_SET_INTERFACE:
 288:Generated_Source\PSoC4/USBFS_std.c ****                 if (0u != USBFS_ValidateAlternateSetting())
 289:Generated_Source\PSoC4/USBFS_std.c ****                 {
 290:Generated_Source\PSoC4/USBFS_std.c ****                     /* Get interface number from the request. */
 291:Generated_Source\PSoC4/USBFS_std.c ****                     interfaceNumber = USBFS_wIndexLoReg;
 292:Generated_Source\PSoC4/USBFS_std.c ****                     USBFS_interfaceNumber = (uint8) USBFS_wIndexLoReg;
 293:Generated_Source\PSoC4/USBFS_std.c ****                      
 294:Generated_Source\PSoC4/USBFS_std.c ****                     /* Check if alternate settings is changed for interface. */
 295:Generated_Source\PSoC4/USBFS_std.c ****                     if (USBFS_interfaceSettingLast[interfaceNumber] != USBFS_interfaceSetting[inter
 296:Generated_Source\PSoC4/USBFS_std.c ****                     {
 297:Generated_Source\PSoC4/USBFS_std.c ****                         USBFS_configurationChanged = USBFS_TRUE;
 298:Generated_Source\PSoC4/USBFS_std.c ****                     
 299:Generated_Source\PSoC4/USBFS_std.c ****                         /* Change alternate setting for the endpoints. */
 300:Generated_Source\PSoC4/USBFS_std.c ****                     #if (USBFS_EP_MANAGEMENT_MANUAL && USBFS_EP_ALLOC_DYNAMIC)
 301:Generated_Source\PSoC4/USBFS_std.c ****                         USBFS_Config(USBFS_FALSE);
 302:Generated_Source\PSoC4/USBFS_std.c ****                     #else
 303:Generated_Source\PSoC4/USBFS_std.c ****                         USBFS_ConfigAltChanged();
 304:Generated_Source\PSoC4/USBFS_std.c ****                     #endif /* (USBFS_EP_MANAGEMENT_MANUAL && USBFS_EP_ALLOC_DYNAMIC) */
 305:Generated_Source\PSoC4/USBFS_std.c ****                     }
 306:Generated_Source\PSoC4/USBFS_std.c ****                     
 307:Generated_Source\PSoC4/USBFS_std.c ****                     requestHandled = USBFS_InitNoDataControlTransfer();
 308:Generated_Source\PSoC4/USBFS_std.c ****                 }
 309:Generated_Source\PSoC4/USBFS_std.c ****                 break;
 310:Generated_Source\PSoC4/USBFS_std.c ****                 
 311:Generated_Source\PSoC4/USBFS_std.c ****             case USBFS_CLEAR_FEATURE:
 312:Generated_Source\PSoC4/USBFS_std.c ****                 switch (bmRequestType & USBFS_RQST_RCPT_MASK)
 313:Generated_Source\PSoC4/USBFS_std.c ****                 {
 314:Generated_Source\PSoC4/USBFS_std.c ****                     case USBFS_RQST_RCPT_EP:
 315:Generated_Source\PSoC4/USBFS_std.c ****                         if (USBFS_wValueLoReg == USBFS_ENDPOINT_HALT)
ARM GAS  C:\Users\User\AppData\Local\Temp\ccieNkfn.s 			page 7


 316:Generated_Source\PSoC4/USBFS_std.c ****                         {
 317:Generated_Source\PSoC4/USBFS_std.c ****                             requestHandled = USBFS_ClearEndpointHalt();
 318:Generated_Source\PSoC4/USBFS_std.c ****                         }
 319:Generated_Source\PSoC4/USBFS_std.c ****                         break;
 320:Generated_Source\PSoC4/USBFS_std.c ****                     case USBFS_RQST_RCPT_DEV:
 321:Generated_Source\PSoC4/USBFS_std.c ****                         /* Clear device REMOTE_WAKEUP */
 322:Generated_Source\PSoC4/USBFS_std.c ****                         if (USBFS_wValueLoReg == USBFS_DEVICE_REMOTE_WAKEUP)
 323:Generated_Source\PSoC4/USBFS_std.c ****                         {
 324:Generated_Source\PSoC4/USBFS_std.c ****                             USBFS_deviceStatus &= (uint8)~USBFS_DEVICE_STATUS_REMOTE_WAKEUP;
 325:Generated_Source\PSoC4/USBFS_std.c ****                             requestHandled = USBFS_InitNoDataControlTransfer();
 326:Generated_Source\PSoC4/USBFS_std.c ****                         }
 327:Generated_Source\PSoC4/USBFS_std.c ****                         break;
 328:Generated_Source\PSoC4/USBFS_std.c ****                     case USBFS_RQST_RCPT_IFC:
 329:Generated_Source\PSoC4/USBFS_std.c ****                         /* Validate interfaceNumber */
 330:Generated_Source\PSoC4/USBFS_std.c ****                         if (USBFS_wIndexLoReg < USBFS_MAX_INTERFACES_NUMBER)
 331:Generated_Source\PSoC4/USBFS_std.c ****                         {
 332:Generated_Source\PSoC4/USBFS_std.c ****                             USBFS_interfaceStatus[USBFS_wIndexLoReg] &= (uint8) ~USBFS_wValueLoReg;
 333:Generated_Source\PSoC4/USBFS_std.c ****                             requestHandled = USBFS_InitNoDataControlTransfer();
 334:Generated_Source\PSoC4/USBFS_std.c ****                         }
 335:Generated_Source\PSoC4/USBFS_std.c ****                         break;
 336:Generated_Source\PSoC4/USBFS_std.c ****                     default:    /* requestHandled is initialized as FALSE by default */
 337:Generated_Source\PSoC4/USBFS_std.c ****                         break;
 338:Generated_Source\PSoC4/USBFS_std.c ****                 }
 339:Generated_Source\PSoC4/USBFS_std.c ****                 break;
 340:Generated_Source\PSoC4/USBFS_std.c ****                 
 341:Generated_Source\PSoC4/USBFS_std.c ****             case USBFS_SET_FEATURE:
 342:Generated_Source\PSoC4/USBFS_std.c ****                 switch (bmRequestType & USBFS_RQST_RCPT_MASK)
 343:Generated_Source\PSoC4/USBFS_std.c ****                 {
 344:Generated_Source\PSoC4/USBFS_std.c ****                     case USBFS_RQST_RCPT_EP:
 345:Generated_Source\PSoC4/USBFS_std.c ****                         if (USBFS_wValueLoReg == USBFS_ENDPOINT_HALT)
 346:Generated_Source\PSoC4/USBFS_std.c ****                         {
 347:Generated_Source\PSoC4/USBFS_std.c ****                             requestHandled = USBFS_SetEndpointHalt();
 348:Generated_Source\PSoC4/USBFS_std.c ****                         }
 349:Generated_Source\PSoC4/USBFS_std.c ****                         break;
 350:Generated_Source\PSoC4/USBFS_std.c ****                         
 351:Generated_Source\PSoC4/USBFS_std.c ****                     case USBFS_RQST_RCPT_DEV:
 352:Generated_Source\PSoC4/USBFS_std.c ****                         /* Set device REMOTE_WAKEUP */
 353:Generated_Source\PSoC4/USBFS_std.c ****                         if (USBFS_wValueLoReg == USBFS_DEVICE_REMOTE_WAKEUP)
 354:Generated_Source\PSoC4/USBFS_std.c ****                         {
 355:Generated_Source\PSoC4/USBFS_std.c ****                             USBFS_deviceStatus |= USBFS_DEVICE_STATUS_REMOTE_WAKEUP;
 356:Generated_Source\PSoC4/USBFS_std.c ****                             requestHandled = USBFS_InitNoDataControlTransfer();
 357:Generated_Source\PSoC4/USBFS_std.c ****                         }
 358:Generated_Source\PSoC4/USBFS_std.c ****                         break;
 359:Generated_Source\PSoC4/USBFS_std.c ****                         
 360:Generated_Source\PSoC4/USBFS_std.c ****                     case USBFS_RQST_RCPT_IFC:
 361:Generated_Source\PSoC4/USBFS_std.c ****                         /* Validate interfaceNumber */
 362:Generated_Source\PSoC4/USBFS_std.c ****                         if (USBFS_wIndexLoReg < USBFS_MAX_INTERFACES_NUMBER)
 363:Generated_Source\PSoC4/USBFS_std.c ****                         {
 364:Generated_Source\PSoC4/USBFS_std.c ****                             USBFS_interfaceStatus[USBFS_wIndexLoReg] &= (uint8) ~USBFS_wValueLoReg;
 365:Generated_Source\PSoC4/USBFS_std.c ****                             requestHandled = USBFS_InitNoDataControlTransfer();
 366:Generated_Source\PSoC4/USBFS_std.c ****                         }
 367:Generated_Source\PSoC4/USBFS_std.c ****                         break;
 368:Generated_Source\PSoC4/USBFS_std.c ****                     
 369:Generated_Source\PSoC4/USBFS_std.c ****                     default:    /* requestHandled is initialized as FALSE by default */
 370:Generated_Source\PSoC4/USBFS_std.c ****                         break;
 371:Generated_Source\PSoC4/USBFS_std.c ****                 }
 372:Generated_Source\PSoC4/USBFS_std.c ****                 break;
ARM GAS  C:\Users\User\AppData\Local\Temp\ccieNkfn.s 			page 8


 373:Generated_Source\PSoC4/USBFS_std.c ****                 
 374:Generated_Source\PSoC4/USBFS_std.c ****             default:    /* requestHandled is initialized as FALSE by default */
 375:Generated_Source\PSoC4/USBFS_std.c ****                 break;
 376:Generated_Source\PSoC4/USBFS_std.c ****         }
 377:Generated_Source\PSoC4/USBFS_std.c ****     }
 378:Generated_Source\PSoC4/USBFS_std.c ****     
 379:Generated_Source\PSoC4/USBFS_std.c ****     return (requestHandled);
 380:Generated_Source\PSoC4/USBFS_std.c **** }
 381:Generated_Source\PSoC4/USBFS_std.c **** 
 382:Generated_Source\PSoC4/USBFS_std.c **** 
 383:Generated_Source\PSoC4/USBFS_std.c **** #if defined(USBFS_ENABLE_IDSN_STRING)
 384:Generated_Source\PSoC4/USBFS_std.c ****     /***************************************************************************
 385:Generated_Source\PSoC4/USBFS_std.c ****     * Function Name: USBFS_ReadDieID
 386:Generated_Source\PSoC4/USBFS_std.c ****     ************************************************************************//**
 387:Generated_Source\PSoC4/USBFS_std.c ****     *
 388:Generated_Source\PSoC4/USBFS_std.c ****     *  This routine read Die ID and generate Serial Number string descriptor.
 389:Generated_Source\PSoC4/USBFS_std.c ****     *
 390:Generated_Source\PSoC4/USBFS_std.c ****     *  \param descr:  pointer on string descriptor. This string size has to be equal or
 391:Generated_Source\PSoC4/USBFS_std.c ****     *          greater than USBFS_IDSN_DESCR_LENGTH.
 392:Generated_Source\PSoC4/USBFS_std.c ****     *
 393:Generated_Source\PSoC4/USBFS_std.c ****     *
 394:Generated_Source\PSoC4/USBFS_std.c ****     * \reentrant
 395:Generated_Source\PSoC4/USBFS_std.c ****     *  No.
 396:Generated_Source\PSoC4/USBFS_std.c ****     *
 397:Generated_Source\PSoC4/USBFS_std.c ****     ***************************************************************************/
 398:Generated_Source\PSoC4/USBFS_std.c ****     void USBFS_ReadDieID(uint8 descr[]) 
 399:Generated_Source\PSoC4/USBFS_std.c ****     {
 400:Generated_Source\PSoC4/USBFS_std.c ****         const char8 CYCODE hex[] = "0123456789ABCDEF";
 401:Generated_Source\PSoC4/USBFS_std.c ****         uint32 i;
 402:Generated_Source\PSoC4/USBFS_std.c ****         uint32 j = 0u;
 403:Generated_Source\PSoC4/USBFS_std.c ****         uint8 uniqueId[8u];
 404:Generated_Source\PSoC4/USBFS_std.c **** 
 405:Generated_Source\PSoC4/USBFS_std.c ****         if (NULL != descr)
 406:Generated_Source\PSoC4/USBFS_std.c ****         {
 407:Generated_Source\PSoC4/USBFS_std.c ****             /* Initialize descriptor header. */
 408:Generated_Source\PSoC4/USBFS_std.c ****             descr[0u] = USBFS_IDSN_DESCR_LENGTH;
 409:Generated_Source\PSoC4/USBFS_std.c ****             descr[1u] = USBFS_DESCR_STRING;
 410:Generated_Source\PSoC4/USBFS_std.c ****             
 411:Generated_Source\PSoC4/USBFS_std.c ****             /* Unique ID size is 8 bytes. */
 412:Generated_Source\PSoC4/USBFS_std.c ****             CyGetUniqueId((uint32 *) uniqueId);
 413:Generated_Source\PSoC4/USBFS_std.c **** 
 414:Generated_Source\PSoC4/USBFS_std.c ****             /* Fill descriptor with unique device ID. */
 415:Generated_Source\PSoC4/USBFS_std.c ****             for (i = 2u; i < USBFS_IDSN_DESCR_LENGTH; i += 4u)
 416:Generated_Source\PSoC4/USBFS_std.c ****             {
 417:Generated_Source\PSoC4/USBFS_std.c ****                 descr[i]      = (uint8) hex[(uniqueId[j] >> 4u)];
 418:Generated_Source\PSoC4/USBFS_std.c ****                 descr[i + 1u] = 0u;
 419:Generated_Source\PSoC4/USBFS_std.c ****                 descr[i + 2u] = (uint8) hex[(uniqueId[j] & 0x0Fu)];
 420:Generated_Source\PSoC4/USBFS_std.c ****                 descr[i + 3u] = 0u;
 421:Generated_Source\PSoC4/USBFS_std.c ****                 ++j;
 422:Generated_Source\PSoC4/USBFS_std.c ****             }
 423:Generated_Source\PSoC4/USBFS_std.c ****         }
 424:Generated_Source\PSoC4/USBFS_std.c ****     }
 425:Generated_Source\PSoC4/USBFS_std.c **** #endif /* (USBFS_ENABLE_IDSN_STRING) */
 426:Generated_Source\PSoC4/USBFS_std.c **** 
 427:Generated_Source\PSoC4/USBFS_std.c **** 
 428:Generated_Source\PSoC4/USBFS_std.c **** /*******************************************************************************
 429:Generated_Source\PSoC4/USBFS_std.c **** * Function Name: USBFS_ConfigReg
ARM GAS  C:\Users\User\AppData\Local\Temp\ccieNkfn.s 			page 9


 430:Generated_Source\PSoC4/USBFS_std.c **** ****************************************************************************//**
 431:Generated_Source\PSoC4/USBFS_std.c **** *
 432:Generated_Source\PSoC4/USBFS_std.c **** *  This routine configures hardware registers from the variables.
 433:Generated_Source\PSoC4/USBFS_std.c **** *  It is called from USBFS_Config() function and from RestoreConfig
 434:Generated_Source\PSoC4/USBFS_std.c **** *  after Wakeup.
 435:Generated_Source\PSoC4/USBFS_std.c **** *
 436:Generated_Source\PSoC4/USBFS_std.c **** *******************************************************************************/
 437:Generated_Source\PSoC4/USBFS_std.c **** void USBFS_ConfigReg(void) 
 438:Generated_Source\PSoC4/USBFS_std.c **** {
  28              		.loc 1 438 0
  29              		.cfi_startproc
  30              		@ args = 0, pretend = 0, frame = 0
  31              		@ frame_needed = 0, uses_anonymous_args = 0
  32 0000 10B5     		push	{r4, lr}
  33              		.cfi_def_cfa_offset 8
  34              		.cfi_offset 4, -8
  35              		.cfi_offset 14, -4
  36              	.LVL0:
 439:Generated_Source\PSoC4/USBFS_std.c ****     uint32 ep;
 440:Generated_Source\PSoC4/USBFS_std.c **** 
 441:Generated_Source\PSoC4/USBFS_std.c **** #if (USBFS_EP_MANAGEMENT_DMA_AUTO)
 442:Generated_Source\PSoC4/USBFS_std.c ****     uint8 epType = 0u;
 443:Generated_Source\PSoC4/USBFS_std.c **** #endif /* (USBFS_EP_MANAGEMENT_DMA_AUTO) */
 444:Generated_Source\PSoC4/USBFS_std.c **** 
 445:Generated_Source\PSoC4/USBFS_std.c ****     /* Go thought all endpoints and set hardware configuration */
 446:Generated_Source\PSoC4/USBFS_std.c ****     for (ep = USBFS_EP1; ep < USBFS_MAX_EP; ++ep)
  37              		.loc 1 446 0
  38 0002 0123     		movs	r3, #1
  39 0004 38E0     		b	.L2
  40              	.LVL1:
  41              	.L6:
 447:Generated_Source\PSoC4/USBFS_std.c ****     {
 448:Generated_Source\PSoC4/USBFS_std.c ****         USBFS_ARB_EP_BASE.arbEp[ep].epCfg = USBFS_ARB_EPX_CFG_DEFAULT;
  42              		.loc 1 448 0
  43 0006 9A01     		lsls	r2, r3, #6
  44 0008 0C20     		movs	r0, #12
  45 000a 1E49     		ldr	r1, .L7
  46 000c 5050     		str	r0, [r2, r1]
 449:Generated_Source\PSoC4/USBFS_std.c ****         
 450:Generated_Source\PSoC4/USBFS_std.c ****     #if (USBFS_EP_MANAGEMENT_DMA)
 451:Generated_Source\PSoC4/USBFS_std.c ****         /* Enable arbiter endpoint interrupt sources */
 452:Generated_Source\PSoC4/USBFS_std.c ****         USBFS_ARB_EP_BASE.arbEp[ep].epIntEn = USBFS_ARB_EPX_INT_MASK;
 453:Generated_Source\PSoC4/USBFS_std.c ****     #endif /* (USBFS_EP_MANAGEMENT_DMA) */
 454:Generated_Source\PSoC4/USBFS_std.c ****     
 455:Generated_Source\PSoC4/USBFS_std.c ****         if (USBFS_EP[ep].epMode != USBFS_MODE_DISABLE)
  47              		.loc 1 455 0
  48 000e 5900     		lsls	r1, r3, #1
  49 0010 C918     		adds	r1, r1, r3
  50 0012 8A00     		lsls	r2, r1, #2
  51 0014 1C49     		ldr	r1, .L7+4
  52 0016 8A18     		adds	r2, r1, r2
  53 0018 5279     		ldrb	r2, [r2, #5]
  54 001a 002A     		cmp	r2, #0
  55 001c 16D0     		beq	.L3
 456:Generated_Source\PSoC4/USBFS_std.c ****         {
 457:Generated_Source\PSoC4/USBFS_std.c ****             if (0u != (USBFS_EP[ep].addr & USBFS_DIR_IN))
  56              		.loc 1 457 0
ARM GAS  C:\Users\User\AppData\Local\Temp\ccieNkfn.s 			page 10


  57 001e 5900     		lsls	r1, r3, #1
  58 0020 C918     		adds	r1, r1, r3
  59 0022 8A00     		lsls	r2, r1, #2
  60 0024 1849     		ldr	r1, .L7+4
  61 0026 8A18     		adds	r2, r1, r2
  62 0028 1279     		ldrb	r2, [r2, #4]
  63 002a 52B2     		sxtb	r2, r2
  64 002c 002A     		cmp	r2, #0
  65 002e 06DA     		bge	.L4
 458:Generated_Source\PSoC4/USBFS_std.c ****             {
 459:Generated_Source\PSoC4/USBFS_std.c ****                 USBFS_SIE_EP_BASE.sieEp[ep].epCr0 = USBFS_MODE_NAK_IN;
  66              		.loc 1 459 0
  67 0030 9A01     		lsls	r2, r3, #6
  68 0032 1649     		ldr	r1, .L7+8
  69 0034 8C46     		mov	ip, r1
  70 0036 6244     		add	r2, r2, ip
  71 0038 0C21     		movs	r1, #12
  72 003a 9160     		str	r1, [r2, #8]
  73 003c 0CE0     		b	.L5
  74              	.L4:
 460:Generated_Source\PSoC4/USBFS_std.c ****                 
 461:Generated_Source\PSoC4/USBFS_std.c ****             #if (USBFS_EP_MANAGEMENT_DMA_AUTO && CY_PSOC4)
 462:Generated_Source\PSoC4/USBFS_std.c ****                 /* Clear DMA_TERMIN for IN endpoint. */
 463:Generated_Source\PSoC4/USBFS_std.c ****                 USBFS_ARB_EP_BASE.arbEp[ep].epIntEn &= (uint32) ~USBFS_ARB_EPX_INT_DMA_TERMIN;
 464:Generated_Source\PSoC4/USBFS_std.c ****             #endif /* (USBFS_EP_MANAGEMENT_DMA_AUTO && CY_PSOC4) */
 465:Generated_Source\PSoC4/USBFS_std.c ****             }
 466:Generated_Source\PSoC4/USBFS_std.c ****             else
 467:Generated_Source\PSoC4/USBFS_std.c ****             {
 468:Generated_Source\PSoC4/USBFS_std.c ****                 USBFS_SIE_EP_BASE.sieEp[ep].epCr0 = USBFS_MODE_NAK_OUT;
  75              		.loc 1 468 0
  76 003e 9A01     		lsls	r2, r3, #6
  77 0040 1249     		ldr	r1, .L7+8
  78 0042 8C46     		mov	ip, r1
  79 0044 6244     		add	r2, r2, ip
  80 0046 0821     		movs	r1, #8
  81 0048 9160     		str	r1, [r2, #8]
  82 004a 05E0     		b	.L5
  83              	.L3:
 469:Generated_Source\PSoC4/USBFS_std.c **** 
 470:Generated_Source\PSoC4/USBFS_std.c ****             #if (USBFS_EP_MANAGEMENT_DMA_AUTO)
 471:Generated_Source\PSoC4/USBFS_std.c ****                 /* (CY_PSOC4): DMA_TERMIN for OUT endpoint is set above. */
 472:Generated_Source\PSoC4/USBFS_std.c ****                 
 473:Generated_Source\PSoC4/USBFS_std.c ****                 /* Prepare endpoint type mask. */
 474:Generated_Source\PSoC4/USBFS_std.c ****                 epType |= (uint8) (0x01u << (ep - USBFS_EP1));
 475:Generated_Source\PSoC4/USBFS_std.c ****             #endif /* (USBFS_EP_MANAGEMENT_DMA_AUTO) */
 476:Generated_Source\PSoC4/USBFS_std.c ****             }
 477:Generated_Source\PSoC4/USBFS_std.c ****         }
 478:Generated_Source\PSoC4/USBFS_std.c ****         else
 479:Generated_Source\PSoC4/USBFS_std.c ****         {
 480:Generated_Source\PSoC4/USBFS_std.c ****             USBFS_SIE_EP_BASE.sieEp[ep].epCr0 = USBFS_MODE_STALL_DATA_EP;
  84              		.loc 1 480 0
  85 004c 9A01     		lsls	r2, r3, #6
  86 004e 0F49     		ldr	r1, .L7+8
  87 0050 8C46     		mov	ip, r1
  88 0052 6244     		add	r2, r2, ip
  89 0054 8021     		movs	r1, #128
  90 0056 9160     		str	r1, [r2, #8]
ARM GAS  C:\Users\User\AppData\Local\Temp\ccieNkfn.s 			page 11


  91              	.L5:
 481:Generated_Source\PSoC4/USBFS_std.c ****         }
 482:Generated_Source\PSoC4/USBFS_std.c ****         
 483:Generated_Source\PSoC4/USBFS_std.c ****     #if (!USBFS_EP_MANAGEMENT_DMA_AUTO)
 484:Generated_Source\PSoC4/USBFS_std.c ****         #if (CY_PSOC4)
 485:Generated_Source\PSoC4/USBFS_std.c ****             USBFS_ARB_EP16_BASE.arbEp[ep].rwRa16  = (uint32) USBFS_EP[ep].buffOffset;
  92              		.loc 1 485 0 discriminator 2
  93 0058 5900     		lsls	r1, r3, #1
  94 005a C918     		adds	r1, r1, r3
  95 005c 8A00     		lsls	r2, r1, #2
  96 005e 0A49     		ldr	r1, .L7+4
  97 0060 8A18     		adds	r2, r1, r2
  98 0062 D188     		ldrh	r1, [r2, #6]
  99 0064 89B2     		uxth	r1, r1
 100 0066 9801     		lsls	r0, r3, #6
 101 0068 094C     		ldr	r4, .L7+12
 102 006a 0419     		adds	r4, r0, r4
 103 006c A160     		str	r1, [r4, #8]
 486:Generated_Source\PSoC4/USBFS_std.c ****             USBFS_ARB_EP16_BASE.arbEp[ep].rwWa16  = (uint32) USBFS_EP[ep].buffOffset;
 104              		.loc 1 486 0 discriminator 2
 105 006e D288     		ldrh	r2, [r2, #6]
 106 0070 92B2     		uxth	r2, r2
 107 0072 0749     		ldr	r1, .L7+12
 108 0074 4250     		str	r2, [r0, r1]
 446:Generated_Source\PSoC4/USBFS_std.c ****     {
 109              		.loc 1 446 0 discriminator 2
 110 0076 0133     		adds	r3, r3, #1
 111              	.LVL2:
 112              	.L2:
 446:Generated_Source\PSoC4/USBFS_std.c ****     {
 113              		.loc 1 446 0 is_stmt 0 discriminator 1
 114 0078 082B     		cmp	r3, #8
 115 007a C4D9     		bls	.L6
 487:Generated_Source\PSoC4/USBFS_std.c ****         #else
 488:Generated_Source\PSoC4/USBFS_std.c ****             USBFS_ARB_EP_BASE.arbEp[ep].rwRa    = LO8(USBFS_EP[ep].buffOffset);
 489:Generated_Source\PSoC4/USBFS_std.c ****             USBFS_ARB_EP_BASE.arbEp[ep].rwRaMsb = HI8(USBFS_EP[ep].buffOffset);
 490:Generated_Source\PSoC4/USBFS_std.c ****             USBFS_ARB_EP_BASE.arbEp[ep].rwWa    = LO8(USBFS_EP[ep].buffOffset);
 491:Generated_Source\PSoC4/USBFS_std.c ****             USBFS_ARB_EP_BASE.arbEp[ep].rwWaMsb = HI8(USBFS_EP[ep].buffOffset);
 492:Generated_Source\PSoC4/USBFS_std.c ****         #endif /* (CY_PSOC4) */
 493:Generated_Source\PSoC4/USBFS_std.c ****     #endif /* (!USBFS_EP_MANAGEMENT_DMA_AUTO) */
 494:Generated_Source\PSoC4/USBFS_std.c ****     }
 495:Generated_Source\PSoC4/USBFS_std.c **** 
 496:Generated_Source\PSoC4/USBFS_std.c **** #if (USBFS_EP_MANAGEMENT_DMA_AUTO)
 497:Generated_Source\PSoC4/USBFS_std.c ****      /* BUF_SIZE depend on DMA_THRESS value:0x55-32 bytes  0x44-16 bytes 0x33-8 bytes 0x22-4 bytes 
 498:Generated_Source\PSoC4/USBFS_std.c ****     USBFS_BUF_SIZE_REG = USBFS_DMA_BUF_SIZE;
 499:Generated_Source\PSoC4/USBFS_std.c **** 
 500:Generated_Source\PSoC4/USBFS_std.c ****     /* Configure DMA burst threshold */
 501:Generated_Source\PSoC4/USBFS_std.c **** #if (CY_PSOC4)
 502:Generated_Source\PSoC4/USBFS_std.c ****     USBFS_DMA_THRES16_REG   = USBFS_DMA_BYTES_PER_BURST;
 503:Generated_Source\PSoC4/USBFS_std.c **** #else
 504:Generated_Source\PSoC4/USBFS_std.c ****     USBFS_DMA_THRES_REG     = USBFS_DMA_BYTES_PER_BURST;
 505:Generated_Source\PSoC4/USBFS_std.c ****     USBFS_DMA_THRES_MSB_REG = 0u;
 506:Generated_Source\PSoC4/USBFS_std.c **** #endif /* (CY_PSOC4) */
 507:Generated_Source\PSoC4/USBFS_std.c ****     USBFS_EP_ACTIVE_REG = USBFS_DEFAULT_ARB_INT_EN;
 508:Generated_Source\PSoC4/USBFS_std.c ****     USBFS_EP_TYPE_REG   = epType;
 509:Generated_Source\PSoC4/USBFS_std.c ****     
 510:Generated_Source\PSoC4/USBFS_std.c ****     /* Cfg_cmp bit set to 1 once configuration is complete. */
ARM GAS  C:\Users\User\AppData\Local\Temp\ccieNkfn.s 			page 12


 511:Generated_Source\PSoC4/USBFS_std.c ****     /* Lock arbiter configtuation */
 512:Generated_Source\PSoC4/USBFS_std.c ****     USBFS_ARB_CFG_REG |= (uint32)  USBFS_ARB_CFG_CFG_CMP;
 513:Generated_Source\PSoC4/USBFS_std.c ****     /* Cfg_cmp bit set to 0 during configuration of PFSUSB Registers. */
 514:Generated_Source\PSoC4/USBFS_std.c ****     USBFS_ARB_CFG_REG &= (uint32) ~USBFS_ARB_CFG_CFG_CMP;
 515:Generated_Source\PSoC4/USBFS_std.c **** 
 516:Generated_Source\PSoC4/USBFS_std.c **** #endif /* (USBFS_EP_MANAGEMENT_DMA_AUTO) */
 517:Generated_Source\PSoC4/USBFS_std.c **** 
 518:Generated_Source\PSoC4/USBFS_std.c ****     /* Enable interrupt SIE interurpt source from EP0-EP1 */
 519:Generated_Source\PSoC4/USBFS_std.c ****     USBFS_SIE_EP_INT_EN_REG = (uint32) USBFS_DEFAULT_SIE_EP_INT_EN;
 116              		.loc 1 519 0 is_stmt 1
 117 007c FF22     		movs	r2, #255
 118 007e 054B     		ldr	r3, .L7+16
 119              	.LVL3:
 120 0080 1A60     		str	r2, [r3]
 520:Generated_Source\PSoC4/USBFS_std.c **** }
 121              		.loc 1 520 0
 122              		@ sp needed
 123 0082 10BD     		pop	{r4, pc}
 124              	.L8:
 125              		.align	2
 126              	.L7:
 127 0084 C0012C40 		.word	1076625856
 128 0088 00000000 		.word	USBFS_EP
 129 008c F0FF2B40 		.word	1076625392
 130 0090 D0112C40 		.word	1076629968
 131 0094 28002C40 		.word	1076625448
 132              		.cfi_endproc
 133              	.LFE2:
 134              		.size	USBFS_ConfigReg, .-USBFS_ConfigReg
 135              		.section	.text.USBFS_EpStateInit,"ax",%progbits
 136              		.align	2
 137              		.global	USBFS_EpStateInit
 138              		.code	16
 139              		.thumb_func
 140              		.type	USBFS_EpStateInit, %function
 141              	USBFS_EpStateInit:
 142              	.LFB3:
 521:Generated_Source\PSoC4/USBFS_std.c **** 
 522:Generated_Source\PSoC4/USBFS_std.c **** 
 523:Generated_Source\PSoC4/USBFS_std.c **** /*******************************************************************************
 524:Generated_Source\PSoC4/USBFS_std.c **** * Function Name: USBFS_EpStateInit
 525:Generated_Source\PSoC4/USBFS_std.c **** ****************************************************************************//**
 526:Generated_Source\PSoC4/USBFS_std.c **** *
 527:Generated_Source\PSoC4/USBFS_std.c **** *  This routine initialize state of Data end points based of its type: 
 528:Generated_Source\PSoC4/USBFS_std.c **** *   IN  - USBFS_IN_BUFFER_EMPTY (USBFS_EVENT_PENDING)
 529:Generated_Source\PSoC4/USBFS_std.c **** *   OUT - USBFS_OUT_BUFFER_EMPTY (USBFS_NO_EVENT_PENDING)
 530:Generated_Source\PSoC4/USBFS_std.c **** *
 531:Generated_Source\PSoC4/USBFS_std.c **** *******************************************************************************/
 532:Generated_Source\PSoC4/USBFS_std.c **** void USBFS_EpStateInit(void) 
 533:Generated_Source\PSoC4/USBFS_std.c **** {
 143              		.loc 1 533 0
 144              		.cfi_startproc
 145              		@ args = 0, pretend = 0, frame = 0
 146              		@ frame_needed = 0, uses_anonymous_args = 0
 147              		@ link register save eliminated.
 148              	.LVL4:
 534:Generated_Source\PSoC4/USBFS_std.c ****     uint8 i;
ARM GAS  C:\Users\User\AppData\Local\Temp\ccieNkfn.s 			page 13


 535:Generated_Source\PSoC4/USBFS_std.c **** 
 536:Generated_Source\PSoC4/USBFS_std.c ****     for (i = USBFS_EP1; i < USBFS_MAX_EP; i++)
 149              		.loc 1 536 0
 150 0000 0123     		movs	r3, #1
 151 0002 19E0     		b	.L10
 152              	.LVL5:
 153              	.L13:
 537:Generated_Source\PSoC4/USBFS_std.c ****     { 
 538:Generated_Source\PSoC4/USBFS_std.c ****         if (0u != (USBFS_EP[i].addr & USBFS_DIR_IN))
 154              		.loc 1 538 0
 155 0004 5900     		lsls	r1, r3, #1
 156 0006 C918     		adds	r1, r1, r3
 157 0008 8A00     		lsls	r2, r1, #2
 158 000a 0D49     		ldr	r1, .L14
 159 000c 8A18     		adds	r2, r1, r2
 160 000e 1279     		ldrb	r2, [r2, #4]
 161 0010 52B2     		sxtb	r2, r2
 162 0012 002A     		cmp	r2, #0
 163 0014 07DA     		bge	.L11
 539:Generated_Source\PSoC4/USBFS_std.c ****         {
 540:Generated_Source\PSoC4/USBFS_std.c ****             /* IN Endpoint */
 541:Generated_Source\PSoC4/USBFS_std.c ****             USBFS_EP[i].apiEpState = USBFS_EVENT_PENDING;
 164              		.loc 1 541 0
 165 0016 5900     		lsls	r1, r3, #1
 166 0018 C918     		adds	r1, r1, r3
 167 001a 8A00     		lsls	r2, r1, #2
 168 001c 0849     		ldr	r1, .L14
 169 001e 8A18     		adds	r2, r1, r2
 170 0020 0121     		movs	r1, #1
 171 0022 5170     		strb	r1, [r2, #1]
 172 0024 06E0     		b	.L12
 173              	.L11:
 542:Generated_Source\PSoC4/USBFS_std.c ****         }
 543:Generated_Source\PSoC4/USBFS_std.c ****         else
 544:Generated_Source\PSoC4/USBFS_std.c ****         {
 545:Generated_Source\PSoC4/USBFS_std.c ****             /* OUT Endpoint */
 546:Generated_Source\PSoC4/USBFS_std.c ****             USBFS_EP[i].apiEpState = USBFS_NO_EVENT_PENDING;
 174              		.loc 1 546 0
 175 0026 5900     		lsls	r1, r3, #1
 176 0028 C918     		adds	r1, r1, r3
 177 002a 8A00     		lsls	r2, r1, #2
 178 002c 0449     		ldr	r1, .L14
 179 002e 8A18     		adds	r2, r1, r2
 180 0030 0021     		movs	r1, #0
 181 0032 5170     		strb	r1, [r2, #1]
 182              	.L12:
 536:Generated_Source\PSoC4/USBFS_std.c ****     { 
 183              		.loc 1 536 0 discriminator 2
 184 0034 0133     		adds	r3, r3, #1
 185              	.LVL6:
 186 0036 DBB2     		uxtb	r3, r3
 187              	.LVL7:
 188              	.L10:
 536:Generated_Source\PSoC4/USBFS_std.c ****     { 
 189              		.loc 1 536 0 is_stmt 0 discriminator 1
 190 0038 082B     		cmp	r3, #8
 191 003a E3D9     		bls	.L13
ARM GAS  C:\Users\User\AppData\Local\Temp\ccieNkfn.s 			page 14


 547:Generated_Source\PSoC4/USBFS_std.c ****         }
 548:Generated_Source\PSoC4/USBFS_std.c ****     }
 549:Generated_Source\PSoC4/USBFS_std.c ****                     
 550:Generated_Source\PSoC4/USBFS_std.c **** }
 192              		.loc 1 550 0 is_stmt 1
 193              		@ sp needed
 194 003c 7047     		bx	lr
 195              	.L15:
 196 003e C046     		.align	2
 197              	.L14:
 198 0040 00000000 		.word	USBFS_EP
 199              		.cfi_endproc
 200              	.LFE3:
 201              		.size	USBFS_EpStateInit, .-USBFS_EpStateInit
 202              		.section	.text.USBFS_GetConfigTablePtr,"ax",%progbits
 203              		.align	2
 204              		.global	USBFS_GetConfigTablePtr
 205              		.code	16
 206              		.thumb_func
 207              		.type	USBFS_GetConfigTablePtr, %function
 208              	USBFS_GetConfigTablePtr:
 209              	.LFB6:
 551:Generated_Source\PSoC4/USBFS_std.c **** 
 552:Generated_Source\PSoC4/USBFS_std.c **** 
 553:Generated_Source\PSoC4/USBFS_std.c **** /*******************************************************************************
 554:Generated_Source\PSoC4/USBFS_std.c **** * Function Name: USBFS_Config
 555:Generated_Source\PSoC4/USBFS_std.c **** ****************************************************************************//**
 556:Generated_Source\PSoC4/USBFS_std.c **** *
 557:Generated_Source\PSoC4/USBFS_std.c **** *  This routine configures endpoints for the entire configuration by scanning
 558:Generated_Source\PSoC4/USBFS_std.c **** *  the configuration descriptor.
 559:Generated_Source\PSoC4/USBFS_std.c **** *
 560:Generated_Source\PSoC4/USBFS_std.c **** *  \param clearAltSetting: It configures the bAlternateSetting 0 for each interface.
 561:Generated_Source\PSoC4/USBFS_std.c **** *
 562:Generated_Source\PSoC4/USBFS_std.c **** * USBFS_interfaceClass - Initialized class array for each interface.
 563:Generated_Source\PSoC4/USBFS_std.c **** *   It is used for handling Class specific requests depend on interface class.
 564:Generated_Source\PSoC4/USBFS_std.c **** *   Different classes in multiple Alternate settings does not supported.
 565:Generated_Source\PSoC4/USBFS_std.c **** *
 566:Generated_Source\PSoC4/USBFS_std.c **** * \reentrant
 567:Generated_Source\PSoC4/USBFS_std.c **** *  No.
 568:Generated_Source\PSoC4/USBFS_std.c **** *
 569:Generated_Source\PSoC4/USBFS_std.c **** *******************************************************************************/
 570:Generated_Source\PSoC4/USBFS_std.c **** void USBFS_Config(uint8 clearAltSetting) 
 571:Generated_Source\PSoC4/USBFS_std.c **** {
 572:Generated_Source\PSoC4/USBFS_std.c ****     uint8 ep;
 573:Generated_Source\PSoC4/USBFS_std.c ****     uint8 curEp;
 574:Generated_Source\PSoC4/USBFS_std.c ****     uint8 i;
 575:Generated_Source\PSoC4/USBFS_std.c ****     uint8 epType;
 576:Generated_Source\PSoC4/USBFS_std.c ****     const uint8 *pDescr;
 577:Generated_Source\PSoC4/USBFS_std.c ****     
 578:Generated_Source\PSoC4/USBFS_std.c ****     #if (!USBFS_EP_MANAGEMENT_DMA_AUTO)
 579:Generated_Source\PSoC4/USBFS_std.c ****         uint16 buffCount = 0u;
 580:Generated_Source\PSoC4/USBFS_std.c ****     #endif /* (!USBFS_EP_MANAGEMENT_DMA_AUTO) */
 581:Generated_Source\PSoC4/USBFS_std.c **** 
 582:Generated_Source\PSoC4/USBFS_std.c ****     const T_USBFS_LUT CYCODE *pTmp;
 583:Generated_Source\PSoC4/USBFS_std.c ****     const T_USBFS_EP_SETTINGS_BLOCK CYCODE *pEP;
 584:Generated_Source\PSoC4/USBFS_std.c **** 
 585:Generated_Source\PSoC4/USBFS_std.c ****     /* Clear endpoints settings */
ARM GAS  C:\Users\User\AppData\Local\Temp\ccieNkfn.s 			page 15


 586:Generated_Source\PSoC4/USBFS_std.c ****     for (ep = 0u; ep < USBFS_MAX_EP; ++ep)
 587:Generated_Source\PSoC4/USBFS_std.c ****     {
 588:Generated_Source\PSoC4/USBFS_std.c ****         USBFS_EP[ep].attrib     = 0u;
 589:Generated_Source\PSoC4/USBFS_std.c ****         USBFS_EP[ep].hwEpState  = 0u;
 590:Generated_Source\PSoC4/USBFS_std.c ****         USBFS_EP[ep].epToggle   = 0u;
 591:Generated_Source\PSoC4/USBFS_std.c ****         USBFS_EP[ep].bufferSize = 0u;
 592:Generated_Source\PSoC4/USBFS_std.c ****         USBFS_EP[ep].interface  = 0u;
 593:Generated_Source\PSoC4/USBFS_std.c ****         USBFS_EP[ep].apiEpState = USBFS_NO_EVENT_PENDING;
 594:Generated_Source\PSoC4/USBFS_std.c ****         USBFS_EP[ep].epMode     = USBFS_MODE_DISABLE;   
 595:Generated_Source\PSoC4/USBFS_std.c ****     }
 596:Generated_Source\PSoC4/USBFS_std.c **** 
 597:Generated_Source\PSoC4/USBFS_std.c ****     /* Clear Alternate settings for all interfaces. */
 598:Generated_Source\PSoC4/USBFS_std.c ****     if (0u != clearAltSetting)
 599:Generated_Source\PSoC4/USBFS_std.c ****     {
 600:Generated_Source\PSoC4/USBFS_std.c ****         for (i = 0u; i < USBFS_MAX_INTERFACES_NUMBER; ++i)
 601:Generated_Source\PSoC4/USBFS_std.c ****         {
 602:Generated_Source\PSoC4/USBFS_std.c ****             USBFS_interfaceSetting[i]     = 0u;
 603:Generated_Source\PSoC4/USBFS_std.c ****             USBFS_interfaceSettingLast[i] = 0u;
 604:Generated_Source\PSoC4/USBFS_std.c ****         }
 605:Generated_Source\PSoC4/USBFS_std.c ****     }
 606:Generated_Source\PSoC4/USBFS_std.c **** 
 607:Generated_Source\PSoC4/USBFS_std.c ****     /* Init Endpoints and Device Status if configured */
 608:Generated_Source\PSoC4/USBFS_std.c ****     if (USBFS_configuration > 0u)
 609:Generated_Source\PSoC4/USBFS_std.c ****     {
 610:Generated_Source\PSoC4/USBFS_std.c ****         #if defined(USBFS_ENABLE_CDC_CLASS)
 611:Generated_Source\PSoC4/USBFS_std.c ****             uint8 cdcComNums = 0u;
 612:Generated_Source\PSoC4/USBFS_std.c ****         #endif  /* (USBFS_ENABLE_CDC_CLASS) */  
 613:Generated_Source\PSoC4/USBFS_std.c **** 
 614:Generated_Source\PSoC4/USBFS_std.c ****         pTmp = USBFS_GetConfigTablePtr(USBFS_configuration - 1u);
 615:Generated_Source\PSoC4/USBFS_std.c ****         
 616:Generated_Source\PSoC4/USBFS_std.c ****         /* Set Power status for current configuration */
 617:Generated_Source\PSoC4/USBFS_std.c ****         pDescr = (const uint8 *)pTmp->p_list;
 618:Generated_Source\PSoC4/USBFS_std.c ****         if ((pDescr[USBFS_CONFIG_DESCR_ATTRIB] & USBFS_CONFIG_DESCR_ATTRIB_SELF_POWERED) != 0u)
 619:Generated_Source\PSoC4/USBFS_std.c ****         {
 620:Generated_Source\PSoC4/USBFS_std.c ****             USBFS_deviceStatus |= (uint8)  USBFS_DEVICE_STATUS_SELF_POWERED;
 621:Generated_Source\PSoC4/USBFS_std.c ****         }
 622:Generated_Source\PSoC4/USBFS_std.c ****         else
 623:Generated_Source\PSoC4/USBFS_std.c ****         {
 624:Generated_Source\PSoC4/USBFS_std.c ****             USBFS_deviceStatus &= (uint8) ~USBFS_DEVICE_STATUS_SELF_POWERED;
 625:Generated_Source\PSoC4/USBFS_std.c ****         }
 626:Generated_Source\PSoC4/USBFS_std.c ****         
 627:Generated_Source\PSoC4/USBFS_std.c ****         /* Move to next element */
 628:Generated_Source\PSoC4/USBFS_std.c ****         pTmp = &pTmp[1u];
 629:Generated_Source\PSoC4/USBFS_std.c ****         ep = pTmp->c;  /* For this table, c is the number of endpoints configurations  */
 630:Generated_Source\PSoC4/USBFS_std.c **** 
 631:Generated_Source\PSoC4/USBFS_std.c ****         #if (USBFS_EP_MANAGEMENT_MANUAL && USBFS_EP_ALLOC_DYNAMIC)
 632:Generated_Source\PSoC4/USBFS_std.c ****             /* Configure for dynamic EP memory allocation */
 633:Generated_Source\PSoC4/USBFS_std.c ****             /* p_list points the endpoint setting table. */
 634:Generated_Source\PSoC4/USBFS_std.c ****             pEP = (T_USBFS_EP_SETTINGS_BLOCK *) pTmp->p_list;
 635:Generated_Source\PSoC4/USBFS_std.c ****             
 636:Generated_Source\PSoC4/USBFS_std.c ****             for (i = 0u; i < ep; i++)
 637:Generated_Source\PSoC4/USBFS_std.c ****             {     
 638:Generated_Source\PSoC4/USBFS_std.c ****                 /* Compare current Alternate setting with EP Alt */
 639:Generated_Source\PSoC4/USBFS_std.c ****                 if (USBFS_interfaceSetting[pEP->interface] == pEP->altSetting)
 640:Generated_Source\PSoC4/USBFS_std.c ****                 {                                                          
 641:Generated_Source\PSoC4/USBFS_std.c ****                     curEp  = pEP->addr & USBFS_DIR_UNUSED;
 642:Generated_Source\PSoC4/USBFS_std.c ****                     epType = pEP->attributes & USBFS_EP_TYPE_MASK;
ARM GAS  C:\Users\User\AppData\Local\Temp\ccieNkfn.s 			page 16


 643:Generated_Source\PSoC4/USBFS_std.c ****                     
 644:Generated_Source\PSoC4/USBFS_std.c ****                     USBFS_EP[curEp].addr       = pEP->addr;
 645:Generated_Source\PSoC4/USBFS_std.c ****                     USBFS_EP[curEp].attrib     = pEP->attributes;
 646:Generated_Source\PSoC4/USBFS_std.c ****                     USBFS_EP[curEp].bufferSize = pEP->bufferSize;
 647:Generated_Source\PSoC4/USBFS_std.c **** 
 648:Generated_Source\PSoC4/USBFS_std.c ****                     if (0u != (pEP->addr & USBFS_DIR_IN))
 649:Generated_Source\PSoC4/USBFS_std.c ****                     {
 650:Generated_Source\PSoC4/USBFS_std.c ****                         /* IN Endpoint */
 651:Generated_Source\PSoC4/USBFS_std.c ****                         USBFS_EP[curEp].epMode     = USBFS_GET_ACTIVE_IN_EP_CR0_MODE(epType);
 652:Generated_Source\PSoC4/USBFS_std.c ****                         USBFS_EP[curEp].apiEpState = USBFS_EVENT_PENDING;
 653:Generated_Source\PSoC4/USBFS_std.c ****                     
 654:Generated_Source\PSoC4/USBFS_std.c ****                     #if (defined(USBFS_ENABLE_MIDI_STREAMING) && (USBFS_MIDI_IN_BUFF_SIZE > 0))
 655:Generated_Source\PSoC4/USBFS_std.c ****                         if ((pEP->bMisc == USBFS_CLASS_AUDIO) && (epType == USBFS_EP_TYPE_BULK))
 656:Generated_Source\PSoC4/USBFS_std.c ****                         {
 657:Generated_Source\PSoC4/USBFS_std.c ****                             USBFS_midi_in_ep = curEp;
 658:Generated_Source\PSoC4/USBFS_std.c ****                         }
 659:Generated_Source\PSoC4/USBFS_std.c ****                     #endif  /* (USBFS_ENABLE_MIDI_STREAMING) */
 660:Generated_Source\PSoC4/USBFS_std.c ****                     }
 661:Generated_Source\PSoC4/USBFS_std.c ****                     else
 662:Generated_Source\PSoC4/USBFS_std.c ****                     {
 663:Generated_Source\PSoC4/USBFS_std.c ****                         /* OUT Endpoint */
 664:Generated_Source\PSoC4/USBFS_std.c ****                         USBFS_EP[curEp].epMode     = USBFS_GET_ACTIVE_OUT_EP_CR0_MODE(epType);
 665:Generated_Source\PSoC4/USBFS_std.c ****                         USBFS_EP[curEp].apiEpState = USBFS_NO_EVENT_PENDING;
 666:Generated_Source\PSoC4/USBFS_std.c ****                         
 667:Generated_Source\PSoC4/USBFS_std.c ****                     #if (defined(USBFS_ENABLE_MIDI_STREAMING) && (USBFS_MIDI_OUT_BUFF_SIZE > 0))
 668:Generated_Source\PSoC4/USBFS_std.c ****                         if ((pEP->bMisc == USBFS_CLASS_AUDIO) && (epType == USBFS_EP_TYPE_BULK))
 669:Generated_Source\PSoC4/USBFS_std.c ****                         {
 670:Generated_Source\PSoC4/USBFS_std.c ****                             USBFS_midi_out_ep = curEp;
 671:Generated_Source\PSoC4/USBFS_std.c ****                         }
 672:Generated_Source\PSoC4/USBFS_std.c ****                     #endif  /* (USBFS_ENABLE_MIDI_STREAMING) */
 673:Generated_Source\PSoC4/USBFS_std.c ****                     }
 674:Generated_Source\PSoC4/USBFS_std.c **** 
 675:Generated_Source\PSoC4/USBFS_std.c ****                 #if(defined (USBFS_ENABLE_CDC_CLASS))
 676:Generated_Source\PSoC4/USBFS_std.c ****                     if((pEP->bMisc == USBFS_CLASS_CDC_DATA) ||(pEP->bMisc == USBFS_CLASS_CDC))
 677:Generated_Source\PSoC4/USBFS_std.c ****                     {
 678:Generated_Source\PSoC4/USBFS_std.c ****                         cdcComNums = USBFS_Cdc_EpInit(pEP, curEp, cdcComNums);
 679:Generated_Source\PSoC4/USBFS_std.c ****                     }
 680:Generated_Source\PSoC4/USBFS_std.c ****                 #endif  /* (USBFS_ENABLE_CDC_CLASS) */
 681:Generated_Source\PSoC4/USBFS_std.c ****                 }
 682:Generated_Source\PSoC4/USBFS_std.c ****                 
 683:Generated_Source\PSoC4/USBFS_std.c ****                 pEP = &pEP[1u];
 684:Generated_Source\PSoC4/USBFS_std.c ****             }
 685:Generated_Source\PSoC4/USBFS_std.c ****             
 686:Generated_Source\PSoC4/USBFS_std.c ****         #else
 687:Generated_Source\PSoC4/USBFS_std.c ****             for (i = USBFS_EP1; i < USBFS_MAX_EP; ++i)
 688:Generated_Source\PSoC4/USBFS_std.c ****             {
 689:Generated_Source\PSoC4/USBFS_std.c ****                 /* p_list points the endpoint setting table. */
 690:Generated_Source\PSoC4/USBFS_std.c ****                 pEP = (const T_USBFS_EP_SETTINGS_BLOCK CYCODE *) pTmp->p_list;
 691:Generated_Source\PSoC4/USBFS_std.c ****                 /* Find max length for each EP and select it (length could be different in differen
 692:Generated_Source\PSoC4/USBFS_std.c ****                 /* but other settings should be correct with regards to Interface alt Setting */
 693:Generated_Source\PSoC4/USBFS_std.c ****                 
 694:Generated_Source\PSoC4/USBFS_std.c ****                 for (curEp = 0u; curEp < ep; ++curEp)
 695:Generated_Source\PSoC4/USBFS_std.c ****                 {
 696:Generated_Source\PSoC4/USBFS_std.c ****                     if (i == (pEP->addr & USBFS_DIR_UNUSED))
 697:Generated_Source\PSoC4/USBFS_std.c ****                     {
 698:Generated_Source\PSoC4/USBFS_std.c ****                         /* Compare endpoint buffers size with current size to find greater. */
 699:Generated_Source\PSoC4/USBFS_std.c ****                         if (USBFS_EP[i].bufferSize < pEP->bufferSize)
ARM GAS  C:\Users\User\AppData\Local\Temp\ccieNkfn.s 			page 17


 700:Generated_Source\PSoC4/USBFS_std.c ****                         {
 701:Generated_Source\PSoC4/USBFS_std.c ****                             USBFS_EP[i].bufferSize = pEP->bufferSize;
 702:Generated_Source\PSoC4/USBFS_std.c ****                         }
 703:Generated_Source\PSoC4/USBFS_std.c ****                         
 704:Generated_Source\PSoC4/USBFS_std.c ****                         /* Compare current Alternate setting with EP Alt */
 705:Generated_Source\PSoC4/USBFS_std.c ****                         if (USBFS_interfaceSetting[pEP->interface] == pEP->altSetting)
 706:Generated_Source\PSoC4/USBFS_std.c ****                         {                            
 707:Generated_Source\PSoC4/USBFS_std.c ****                             USBFS_EP[i].addr = pEP->addr;
 708:Generated_Source\PSoC4/USBFS_std.c ****                             USBFS_EP[i].attrib = pEP->attributes;
 709:Generated_Source\PSoC4/USBFS_std.c ****                             
 710:Generated_Source\PSoC4/USBFS_std.c ****                             epType = pEP->attributes & USBFS_EP_TYPE_MASK;
 711:Generated_Source\PSoC4/USBFS_std.c ****                             
 712:Generated_Source\PSoC4/USBFS_std.c ****                             if (0u != (pEP->addr & USBFS_DIR_IN))
 713:Generated_Source\PSoC4/USBFS_std.c ****                             {
 714:Generated_Source\PSoC4/USBFS_std.c ****                                 /* IN Endpoint */
 715:Generated_Source\PSoC4/USBFS_std.c ****                                 USBFS_EP[i].epMode     = USBFS_GET_ACTIVE_IN_EP_CR0_MODE(epType);
 716:Generated_Source\PSoC4/USBFS_std.c ****                                 USBFS_EP[i].apiEpState = USBFS_EVENT_PENDING;
 717:Generated_Source\PSoC4/USBFS_std.c ****                                 
 718:Generated_Source\PSoC4/USBFS_std.c ****                             #if (defined(USBFS_ENABLE_MIDI_STREAMING) && (USBFS_MIDI_IN_BUFF_SIZE >
 719:Generated_Source\PSoC4/USBFS_std.c ****                                 if ((pEP->bMisc == USBFS_CLASS_AUDIO) && (epType == USBFS_EP_TYPE_B
 720:Generated_Source\PSoC4/USBFS_std.c ****                                 {
 721:Generated_Source\PSoC4/USBFS_std.c ****                                     USBFS_midi_in_ep = i;
 722:Generated_Source\PSoC4/USBFS_std.c ****                                 }
 723:Generated_Source\PSoC4/USBFS_std.c ****                             #endif  /* (USBFS_ENABLE_MIDI_STREAMING) */
 724:Generated_Source\PSoC4/USBFS_std.c ****                             }
 725:Generated_Source\PSoC4/USBFS_std.c ****                             else
 726:Generated_Source\PSoC4/USBFS_std.c ****                             {
 727:Generated_Source\PSoC4/USBFS_std.c ****                                 /* OUT Endpoint */
 728:Generated_Source\PSoC4/USBFS_std.c ****                                 USBFS_EP[i].epMode     = USBFS_GET_ACTIVE_OUT_EP_CR0_MODE(epType);
 729:Generated_Source\PSoC4/USBFS_std.c ****                                 USBFS_EP[i].apiEpState = USBFS_NO_EVENT_PENDING;
 730:Generated_Source\PSoC4/USBFS_std.c ****                                 
 731:Generated_Source\PSoC4/USBFS_std.c ****                             #if (defined(USBFS_ENABLE_MIDI_STREAMING) && (USBFS_MIDI_OUT_BUFF_SIZE 
 732:Generated_Source\PSoC4/USBFS_std.c ****                                 if ((pEP->bMisc == USBFS_CLASS_AUDIO) && (epType == USBFS_EP_TYPE_B
 733:Generated_Source\PSoC4/USBFS_std.c ****                                 {
 734:Generated_Source\PSoC4/USBFS_std.c ****                                     USBFS_midi_out_ep = i;
 735:Generated_Source\PSoC4/USBFS_std.c ****                                 }
 736:Generated_Source\PSoC4/USBFS_std.c ****                             #endif  /* (USBFS_ENABLE_MIDI_STREAMING) */
 737:Generated_Source\PSoC4/USBFS_std.c ****                             }
 738:Generated_Source\PSoC4/USBFS_std.c **** 
 739:Generated_Source\PSoC4/USBFS_std.c ****                         #if (defined(USBFS_ENABLE_CDC_CLASS))
 740:Generated_Source\PSoC4/USBFS_std.c ****                             if((pEP->bMisc == USBFS_CLASS_CDC_DATA) ||(pEP->bMisc == USBFS_CLASS_CD
 741:Generated_Source\PSoC4/USBFS_std.c ****                             {
 742:Generated_Source\PSoC4/USBFS_std.c ****                                 cdcComNums = USBFS_Cdc_EpInit(pEP, i, cdcComNums);
 743:Generated_Source\PSoC4/USBFS_std.c ****                             }
 744:Generated_Source\PSoC4/USBFS_std.c ****                         #endif  /* (USBFS_ENABLE_CDC_CLASS) */
 745:Generated_Source\PSoC4/USBFS_std.c **** 
 746:Generated_Source\PSoC4/USBFS_std.c ****                             #if (USBFS_EP_MANAGEMENT_DMA_AUTO)
 747:Generated_Source\PSoC4/USBFS_std.c ****                                 break;  /* Use first EP setting in Auto memory management */
 748:Generated_Source\PSoC4/USBFS_std.c ****                             #endif /* (USBFS_EP_MANAGEMENT_DMA_AUTO) */
 749:Generated_Source\PSoC4/USBFS_std.c ****                         }
 750:Generated_Source\PSoC4/USBFS_std.c ****                     }
 751:Generated_Source\PSoC4/USBFS_std.c ****                     
 752:Generated_Source\PSoC4/USBFS_std.c ****                     pEP = &pEP[1u];
 753:Generated_Source\PSoC4/USBFS_std.c ****                 }
 754:Generated_Source\PSoC4/USBFS_std.c ****             }
 755:Generated_Source\PSoC4/USBFS_std.c ****         #endif /*  (USBFS_EP_MANAGEMENT_MANUAL && USBFS_EP_ALLOC_DYNAMIC) */
 756:Generated_Source\PSoC4/USBFS_std.c **** 
ARM GAS  C:\Users\User\AppData\Local\Temp\ccieNkfn.s 			page 18


 757:Generated_Source\PSoC4/USBFS_std.c ****         /* Init class array for each interface and interface number for each EP.
 758:Generated_Source\PSoC4/USBFS_std.c ****         *  It is used for handling Class specific requests directed to either an
 759:Generated_Source\PSoC4/USBFS_std.c ****         *  interface or the endpoint.
 760:Generated_Source\PSoC4/USBFS_std.c ****         */
 761:Generated_Source\PSoC4/USBFS_std.c ****         /* p_list points the endpoint setting table. */
 762:Generated_Source\PSoC4/USBFS_std.c ****         pEP = (const T_USBFS_EP_SETTINGS_BLOCK CYCODE *) pTmp->p_list;
 763:Generated_Source\PSoC4/USBFS_std.c ****         for (i = 0u; i < ep; i++)
 764:Generated_Source\PSoC4/USBFS_std.c ****         {
 765:Generated_Source\PSoC4/USBFS_std.c ****             /* Configure interface number for each EP */
 766:Generated_Source\PSoC4/USBFS_std.c ****             USBFS_EP[pEP->addr & USBFS_DIR_UNUSED].interface = pEP->interface;
 767:Generated_Source\PSoC4/USBFS_std.c ****             pEP = &pEP[1u];
 768:Generated_Source\PSoC4/USBFS_std.c ****         }
 769:Generated_Source\PSoC4/USBFS_std.c ****         
 770:Generated_Source\PSoC4/USBFS_std.c ****         /* Init pointer on interface class table */
 771:Generated_Source\PSoC4/USBFS_std.c ****         USBFS_interfaceClass = USBFS_GetInterfaceClassTablePtr();
 772:Generated_Source\PSoC4/USBFS_std.c ****         
 773:Generated_Source\PSoC4/USBFS_std.c ****     /* Set the endpoint buffer addresses */
 774:Generated_Source\PSoC4/USBFS_std.c ****     #if (!USBFS_EP_MANAGEMENT_DMA_AUTO)
 775:Generated_Source\PSoC4/USBFS_std.c ****         buffCount = 0u;
 776:Generated_Source\PSoC4/USBFS_std.c ****         for (ep = USBFS_EP1; ep < USBFS_MAX_EP; ++ep)
 777:Generated_Source\PSoC4/USBFS_std.c ****         {
 778:Generated_Source\PSoC4/USBFS_std.c ****             USBFS_EP[ep].buffOffset = buffCount;        
 779:Generated_Source\PSoC4/USBFS_std.c ****             buffCount += USBFS_EP[ep].bufferSize;
 780:Generated_Source\PSoC4/USBFS_std.c ****             
 781:Generated_Source\PSoC4/USBFS_std.c ****         #if (USBFS_GEN_16BITS_EP_ACCESS)
 782:Generated_Source\PSoC4/USBFS_std.c ****             /* Align EP buffers to be event size to access 16-bits DR register. */
 783:Generated_Source\PSoC4/USBFS_std.c ****             buffCount += (0u != (buffCount & 0x01u)) ? 1u : 0u;
 784:Generated_Source\PSoC4/USBFS_std.c ****         #endif /* (USBFS_GEN_16BITS_EP_ACCESS) */            
 785:Generated_Source\PSoC4/USBFS_std.c ****         }
 786:Generated_Source\PSoC4/USBFS_std.c ****     #endif /* (!USBFS_EP_MANAGEMENT_DMA_AUTO) */
 787:Generated_Source\PSoC4/USBFS_std.c **** 
 788:Generated_Source\PSoC4/USBFS_std.c ****         /* Configure hardware registers */
 789:Generated_Source\PSoC4/USBFS_std.c ****         USBFS_ConfigReg();
 790:Generated_Source\PSoC4/USBFS_std.c ****     }
 791:Generated_Source\PSoC4/USBFS_std.c **** }
 792:Generated_Source\PSoC4/USBFS_std.c **** 
 793:Generated_Source\PSoC4/USBFS_std.c **** 
 794:Generated_Source\PSoC4/USBFS_std.c **** /*******************************************************************************
 795:Generated_Source\PSoC4/USBFS_std.c **** * Function Name: USBFS_ConfigAltChanged
 796:Generated_Source\PSoC4/USBFS_std.c **** ****************************************************************************//**
 797:Generated_Source\PSoC4/USBFS_std.c **** *
 798:Generated_Source\PSoC4/USBFS_std.c **** *  This routine update configuration for the required endpoints only.
 799:Generated_Source\PSoC4/USBFS_std.c **** *  It is called after SET_INTERFACE request when Static memory allocation used.
 800:Generated_Source\PSoC4/USBFS_std.c **** *
 801:Generated_Source\PSoC4/USBFS_std.c **** * \reentrant
 802:Generated_Source\PSoC4/USBFS_std.c **** *  No.
 803:Generated_Source\PSoC4/USBFS_std.c **** *
 804:Generated_Source\PSoC4/USBFS_std.c **** *******************************************************************************/
 805:Generated_Source\PSoC4/USBFS_std.c **** void USBFS_ConfigAltChanged(void) 
 806:Generated_Source\PSoC4/USBFS_std.c **** {
 807:Generated_Source\PSoC4/USBFS_std.c ****     uint32 ep;
 808:Generated_Source\PSoC4/USBFS_std.c ****     uint32 curEp;
 809:Generated_Source\PSoC4/USBFS_std.c ****     uint32 epType;
 810:Generated_Source\PSoC4/USBFS_std.c ****     uint32 i;
 811:Generated_Source\PSoC4/USBFS_std.c ****     uint8 interfaceNum;
 812:Generated_Source\PSoC4/USBFS_std.c **** 
 813:Generated_Source\PSoC4/USBFS_std.c ****     const T_USBFS_LUT CYCODE *pTmp;
ARM GAS  C:\Users\User\AppData\Local\Temp\ccieNkfn.s 			page 19


 814:Generated_Source\PSoC4/USBFS_std.c ****     const T_USBFS_EP_SETTINGS_BLOCK CYCODE *pEP;
 815:Generated_Source\PSoC4/USBFS_std.c **** 
 816:Generated_Source\PSoC4/USBFS_std.c ****     /* Init Endpoints and Device Status if configured */
 817:Generated_Source\PSoC4/USBFS_std.c ****     if (USBFS_configuration > 0u)
 818:Generated_Source\PSoC4/USBFS_std.c ****     {
 819:Generated_Source\PSoC4/USBFS_std.c ****         /* Get number of endpoints configurations (ep). */
 820:Generated_Source\PSoC4/USBFS_std.c ****         pTmp = USBFS_GetConfigTablePtr(USBFS_configuration - 1u);
 821:Generated_Source\PSoC4/USBFS_std.c ****         pTmp = &pTmp[1u];
 822:Generated_Source\PSoC4/USBFS_std.c ****         ep = pTmp->c;
 823:Generated_Source\PSoC4/USBFS_std.c **** 
 824:Generated_Source\PSoC4/USBFS_std.c ****         /* Get pointer to endpoints setting table (pEP). */
 825:Generated_Source\PSoC4/USBFS_std.c ****         pEP = (const T_USBFS_EP_SETTINGS_BLOCK CYCODE *) pTmp->p_list;
 826:Generated_Source\PSoC4/USBFS_std.c ****         
 827:Generated_Source\PSoC4/USBFS_std.c ****         /* Look through all possible endpoint configurations. Find endpoints 
 828:Generated_Source\PSoC4/USBFS_std.c ****         * which belong to current interface and alternate settings for 
 829:Generated_Source\PSoC4/USBFS_std.c ****         * re-configuration.
 830:Generated_Source\PSoC4/USBFS_std.c ****         */
 831:Generated_Source\PSoC4/USBFS_std.c ****         interfaceNum = USBFS_interfaceNumber;
 832:Generated_Source\PSoC4/USBFS_std.c ****         for (i = 0u; i < ep; i++)
 833:Generated_Source\PSoC4/USBFS_std.c ****         {
 834:Generated_Source\PSoC4/USBFS_std.c ****             /* Find endpoints which belong to current interface and alternate settings. */
 835:Generated_Source\PSoC4/USBFS_std.c ****             if ((interfaceNum == pEP->interface) && 
 836:Generated_Source\PSoC4/USBFS_std.c ****                 (USBFS_interfaceSetting[interfaceNum] == pEP->altSetting))
 837:Generated_Source\PSoC4/USBFS_std.c ****             {
 838:Generated_Source\PSoC4/USBFS_std.c ****                 curEp  = ((uint32) pEP->addr & USBFS_DIR_UNUSED);
 839:Generated_Source\PSoC4/USBFS_std.c ****                 epType = ((uint32) pEP->attributes & USBFS_EP_TYPE_MASK);
 840:Generated_Source\PSoC4/USBFS_std.c ****                 
 841:Generated_Source\PSoC4/USBFS_std.c ****                 /* Change the SIE mode for the selected EP to NAK ALL */
 842:Generated_Source\PSoC4/USBFS_std.c ****                 USBFS_EP[curEp].epToggle   = 0u;
 843:Generated_Source\PSoC4/USBFS_std.c ****                 USBFS_EP[curEp].addr       = pEP->addr;
 844:Generated_Source\PSoC4/USBFS_std.c ****                 USBFS_EP[curEp].attrib     = pEP->attributes;
 845:Generated_Source\PSoC4/USBFS_std.c ****                 USBFS_EP[curEp].bufferSize = pEP->bufferSize;
 846:Generated_Source\PSoC4/USBFS_std.c **** 
 847:Generated_Source\PSoC4/USBFS_std.c ****                 if (0u != (pEP->addr & USBFS_DIR_IN))
 848:Generated_Source\PSoC4/USBFS_std.c ****                 {
 849:Generated_Source\PSoC4/USBFS_std.c ****                     /* IN Endpoint */
 850:Generated_Source\PSoC4/USBFS_std.c ****                     USBFS_EP[curEp].epMode     = USBFS_GET_ACTIVE_IN_EP_CR0_MODE(epType);
 851:Generated_Source\PSoC4/USBFS_std.c ****                     USBFS_EP[curEp].apiEpState = USBFS_EVENT_PENDING;
 852:Generated_Source\PSoC4/USBFS_std.c ****                 }
 853:Generated_Source\PSoC4/USBFS_std.c ****                 else
 854:Generated_Source\PSoC4/USBFS_std.c ****                 {
 855:Generated_Source\PSoC4/USBFS_std.c ****                     /* OUT Endpoint */
 856:Generated_Source\PSoC4/USBFS_std.c ****                     USBFS_EP[curEp].epMode     = USBFS_GET_ACTIVE_OUT_EP_CR0_MODE(epType);
 857:Generated_Source\PSoC4/USBFS_std.c ****                     USBFS_EP[curEp].apiEpState = USBFS_NO_EVENT_PENDING;
 858:Generated_Source\PSoC4/USBFS_std.c ****                 }
 859:Generated_Source\PSoC4/USBFS_std.c ****                 
 860:Generated_Source\PSoC4/USBFS_std.c ****                 /* Make SIE to NAK any endpoint requests */
 861:Generated_Source\PSoC4/USBFS_std.c ****                 USBFS_SIE_EP_BASE.sieEp[curEp].epCr0 = USBFS_MODE_NAK_IN_OUT;
 862:Generated_Source\PSoC4/USBFS_std.c **** 
 863:Generated_Source\PSoC4/USBFS_std.c ****             #if (USBFS_EP_MANAGEMENT_DMA_AUTO)
 864:Generated_Source\PSoC4/USBFS_std.c ****                 /* Clear IN data ready. */
 865:Generated_Source\PSoC4/USBFS_std.c ****                 USBFS_ARB_EP_BASE.arbEp[curEp].epCfg &= (uint32) ~USBFS_ARB_EPX_CFG_IN_DATA_RDY;
 866:Generated_Source\PSoC4/USBFS_std.c **** 
 867:Generated_Source\PSoC4/USBFS_std.c ****                 /* Select endpoint number of reconfiguration */
 868:Generated_Source\PSoC4/USBFS_std.c ****                 USBFS_DYN_RECONFIG_REG = (uint32) ((curEp - 1u) << USBFS_DYN_RECONFIG_EP_SHIFT);
 869:Generated_Source\PSoC4/USBFS_std.c ****                 
 870:Generated_Source\PSoC4/USBFS_std.c ****                 /* Request for dynamic re-configuration of endpoint. */
ARM GAS  C:\Users\User\AppData\Local\Temp\ccieNkfn.s 			page 20


 871:Generated_Source\PSoC4/USBFS_std.c ****                 USBFS_DYN_RECONFIG_REG |= USBFS_DYN_RECONFIG_ENABLE;
 872:Generated_Source\PSoC4/USBFS_std.c ****                 
 873:Generated_Source\PSoC4/USBFS_std.c ****                 /* Wait until block is ready for re-configuration */
 874:Generated_Source\PSoC4/USBFS_std.c ****                 while (0u == (USBFS_DYN_RECONFIG_REG & USBFS_DYN_RECONFIG_RDY_STS))
 875:Generated_Source\PSoC4/USBFS_std.c ****                 {
 876:Generated_Source\PSoC4/USBFS_std.c ****                 }
 877:Generated_Source\PSoC4/USBFS_std.c ****                 
 878:Generated_Source\PSoC4/USBFS_std.c ****                 /* Once DYN_RECONFIG_RDY_STS bit is set, FW can change the EP configuration. */
 879:Generated_Source\PSoC4/USBFS_std.c ****                 /* Change EP Type with new direction */
 880:Generated_Source\PSoC4/USBFS_std.c ****                 if (0u != (pEP->addr & USBFS_DIR_IN))
 881:Generated_Source\PSoC4/USBFS_std.c ****                 {
 882:Generated_Source\PSoC4/USBFS_std.c ****                     /* Set endpoint type: 0 - IN and 1 - OUT. */
 883:Generated_Source\PSoC4/USBFS_std.c ****                     USBFS_EP_TYPE_REG &= (uint32) ~(uint32)((uint32) 0x01u << (curEp - 1u));
 884:Generated_Source\PSoC4/USBFS_std.c ****                     
 885:Generated_Source\PSoC4/USBFS_std.c ****                 #if (CY_PSOC4)
 886:Generated_Source\PSoC4/USBFS_std.c ****                     /* Clear DMA_TERMIN for IN endpoint */
 887:Generated_Source\PSoC4/USBFS_std.c ****                     USBFS_ARB_EP_BASE.arbEp[curEp].epIntEn &= (uint32) ~USBFS_ARB_EPX_INT_DMA_TERMI
 888:Generated_Source\PSoC4/USBFS_std.c ****                 #endif /* (CY_PSOC4) */
 889:Generated_Source\PSoC4/USBFS_std.c ****                 }
 890:Generated_Source\PSoC4/USBFS_std.c ****                 else
 891:Generated_Source\PSoC4/USBFS_std.c ****                 {
 892:Generated_Source\PSoC4/USBFS_std.c ****                     /* Set endpoint type: 0 - IN and 1- OUT. */
 893:Generated_Source\PSoC4/USBFS_std.c ****                     USBFS_EP_TYPE_REG |= (uint32) ((uint32) 0x01u << (curEp - 1u));
 894:Generated_Source\PSoC4/USBFS_std.c ****                     
 895:Generated_Source\PSoC4/USBFS_std.c ****                 #if (CY_PSOC4)
 896:Generated_Source\PSoC4/USBFS_std.c ****                     /* Set DMA_TERMIN for OUT endpoint */
 897:Generated_Source\PSoC4/USBFS_std.c ****                     USBFS_ARB_EP_BASE.arbEp[curEp].epIntEn |= (uint32) USBFS_ARB_EPX_INT_DMA_TERMIN
 898:Generated_Source\PSoC4/USBFS_std.c ****                 #endif /* (CY_PSOC4) */
 899:Generated_Source\PSoC4/USBFS_std.c ****                 }
 900:Generated_Source\PSoC4/USBFS_std.c ****                 
 901:Generated_Source\PSoC4/USBFS_std.c ****                 /* Complete dynamic re-configuration: all endpoint related status and signals 
 902:Generated_Source\PSoC4/USBFS_std.c ****                 * are set into the default state.
 903:Generated_Source\PSoC4/USBFS_std.c ****                 */
 904:Generated_Source\PSoC4/USBFS_std.c ****                 USBFS_DYN_RECONFIG_REG &= (uint32) ~USBFS_DYN_RECONFIG_ENABLE;
 905:Generated_Source\PSoC4/USBFS_std.c **** 
 906:Generated_Source\PSoC4/USBFS_std.c ****             #else
 907:Generated_Source\PSoC4/USBFS_std.c ****                 USBFS_SIE_EP_BASE.sieEp[curEp].epCnt0 = HI8(USBFS_EP[curEp].bufferSize);
 908:Generated_Source\PSoC4/USBFS_std.c ****                 USBFS_SIE_EP_BASE.sieEp[curEp].epCnt1 = LO8(USBFS_EP[curEp].bufferSize);
 909:Generated_Source\PSoC4/USBFS_std.c ****                 
 910:Generated_Source\PSoC4/USBFS_std.c ****                 #if (CY_PSOC4)
 911:Generated_Source\PSoC4/USBFS_std.c ****                     USBFS_ARB_EP16_BASE.arbEp[curEp].rwRa16  = (uint32) USBFS_EP[curEp].buffOffset;
 912:Generated_Source\PSoC4/USBFS_std.c ****                     USBFS_ARB_EP16_BASE.arbEp[curEp].rwWa16  = (uint32) USBFS_EP[curEp].buffOffset;
 913:Generated_Source\PSoC4/USBFS_std.c ****                 #else
 914:Generated_Source\PSoC4/USBFS_std.c ****                     USBFS_ARB_EP_BASE.arbEp[curEp].rwRa    = LO8(USBFS_EP[curEp].buffOffset);
 915:Generated_Source\PSoC4/USBFS_std.c ****                     USBFS_ARB_EP_BASE.arbEp[curEp].rwRaMsb = HI8(USBFS_EP[curEp].buffOffset);
 916:Generated_Source\PSoC4/USBFS_std.c ****                     USBFS_ARB_EP_BASE.arbEp[curEp].rwWa    = LO8(USBFS_EP[curEp].buffOffset);
 917:Generated_Source\PSoC4/USBFS_std.c ****                     USBFS_ARB_EP_BASE.arbEp[curEp].rwWaMsb = HI8(USBFS_EP[curEp].buffOffset);
 918:Generated_Source\PSoC4/USBFS_std.c ****                 #endif /* (CY_PSOC4) */                
 919:Generated_Source\PSoC4/USBFS_std.c ****             #endif /* (USBFS_EP_MANAGEMENT_DMA_AUTO) */
 920:Generated_Source\PSoC4/USBFS_std.c ****             }
 921:Generated_Source\PSoC4/USBFS_std.c ****             
 922:Generated_Source\PSoC4/USBFS_std.c ****             pEP = &pEP[1u]; /* Get next EP element */
 923:Generated_Source\PSoC4/USBFS_std.c ****         }
 924:Generated_Source\PSoC4/USBFS_std.c ****         
 925:Generated_Source\PSoC4/USBFS_std.c ****         /* The main loop has to re-enable DMA and OUT endpoint */
 926:Generated_Source\PSoC4/USBFS_std.c ****     }
 927:Generated_Source\PSoC4/USBFS_std.c **** }
ARM GAS  C:\Users\User\AppData\Local\Temp\ccieNkfn.s 			page 21


 928:Generated_Source\PSoC4/USBFS_std.c **** 
 929:Generated_Source\PSoC4/USBFS_std.c **** 
 930:Generated_Source\PSoC4/USBFS_std.c **** /*******************************************************************************
 931:Generated_Source\PSoC4/USBFS_std.c **** * Function Name: USBFS_GetConfigTablePtr
 932:Generated_Source\PSoC4/USBFS_std.c **** ****************************************************************************//**
 933:Generated_Source\PSoC4/USBFS_std.c **** *
 934:Generated_Source\PSoC4/USBFS_std.c **** *  This routine returns a pointer a configuration table entry
 935:Generated_Source\PSoC4/USBFS_std.c **** *
 936:Generated_Source\PSoC4/USBFS_std.c **** *  \param confIndex:  Configuration Index
 937:Generated_Source\PSoC4/USBFS_std.c **** *
 938:Generated_Source\PSoC4/USBFS_std.c **** * \return
 939:Generated_Source\PSoC4/USBFS_std.c **** *  Device Descriptor pointer or NULL when descriptor does not exist.
 940:Generated_Source\PSoC4/USBFS_std.c **** *
 941:Generated_Source\PSoC4/USBFS_std.c **** *******************************************************************************/
 942:Generated_Source\PSoC4/USBFS_std.c **** const T_USBFS_LUT CYCODE *USBFS_GetConfigTablePtr(uint8 confIndex)
 943:Generated_Source\PSoC4/USBFS_std.c ****                                                         
 944:Generated_Source\PSoC4/USBFS_std.c **** {
 210              		.loc 1 944 0
 211              		.cfi_startproc
 212              		@ args = 0, pretend = 0, frame = 0
 213              		@ frame_needed = 0, uses_anonymous_args = 0
 214              		@ link register save eliminated.
 215              	.LVL8:
 945:Generated_Source\PSoC4/USBFS_std.c ****     /* Device Table */
 946:Generated_Source\PSoC4/USBFS_std.c ****     const T_USBFS_LUT CYCODE *pTmp;
 947:Generated_Source\PSoC4/USBFS_std.c **** 
 948:Generated_Source\PSoC4/USBFS_std.c ****     pTmp = (const T_USBFS_LUT CYCODE *) USBFS_TABLE[USBFS_device].p_list;
 216              		.loc 1 948 0
 217 0000 074B     		ldr	r3, .L19
 218 0002 1B78     		ldrb	r3, [r3]
 219 0004 DB00     		lsls	r3, r3, #3
 220 0006 074A     		ldr	r2, .L19+4
 221 0008 D318     		adds	r3, r2, r3
 222 000a 5B68     		ldr	r3, [r3, #4]
 223              	.LVL9:
 949:Generated_Source\PSoC4/USBFS_std.c **** 
 950:Generated_Source\PSoC4/USBFS_std.c ****     /* The first entry points to the Device Descriptor,
 951:Generated_Source\PSoC4/USBFS_std.c ****     *  the second entry point to the BOS Descriptor
 952:Generated_Source\PSoC4/USBFS_std.c ****     *  the rest configuration entries.
 953:Generated_Source\PSoC4/USBFS_std.c ****     *  Set pointer to the first Configuration Descriptor
 954:Generated_Source\PSoC4/USBFS_std.c ****     */
 955:Generated_Source\PSoC4/USBFS_std.c ****     pTmp = &pTmp[2u];
 956:Generated_Source\PSoC4/USBFS_std.c ****     /* For this table, c is the number of configuration descriptors  */
 957:Generated_Source\PSoC4/USBFS_std.c ****     if(confIndex >= pTmp->c)   /* Verify that required configuration descriptor exists */
 224              		.loc 1 957 0
 225 000c 1A7C     		ldrb	r2, [r3, #16]
 226 000e 8242     		cmp	r2, r0
 227 0010 04D9     		bls	.L18
 958:Generated_Source\PSoC4/USBFS_std.c ****     {
 959:Generated_Source\PSoC4/USBFS_std.c ****         pTmp = (const T_USBFS_LUT CYCODE *) NULL;
 960:Generated_Source\PSoC4/USBFS_std.c ****     }
 961:Generated_Source\PSoC4/USBFS_std.c ****     else
 962:Generated_Source\PSoC4/USBFS_std.c ****     {
 963:Generated_Source\PSoC4/USBFS_std.c ****         pTmp = (const T_USBFS_LUT CYCODE *) pTmp[confIndex].p_list;
 228              		.loc 1 963 0
 229 0012 C000     		lsls	r0, r0, #3
 230              	.LVL10:
ARM GAS  C:\Users\User\AppData\Local\Temp\ccieNkfn.s 			page 22


 231 0014 1030     		adds	r0, r0, #16
 232 0016 1818     		adds	r0, r3, r0
 233 0018 4068     		ldr	r0, [r0, #4]
 234              	.LVL11:
 235 001a 00E0     		b	.L17
 236              	.LVL12:
 237              	.L18:
 959:Generated_Source\PSoC4/USBFS_std.c ****     }
 238              		.loc 1 959 0
 239 001c 0020     		movs	r0, #0
 240              	.LVL13:
 241              	.L17:
 964:Generated_Source\PSoC4/USBFS_std.c ****     }
 965:Generated_Source\PSoC4/USBFS_std.c **** 
 966:Generated_Source\PSoC4/USBFS_std.c ****     return (pTmp);
 967:Generated_Source\PSoC4/USBFS_std.c **** }
 242              		.loc 1 967 0
 243              		@ sp needed
 244 001e 7047     		bx	lr
 245              	.L20:
 246              		.align	2
 247              	.L19:
 248 0020 00000000 		.word	USBFS_device
 249 0024 00000000 		.word	USBFS_TABLE
 250              		.cfi_endproc
 251              	.LFE6:
 252              		.size	USBFS_GetConfigTablePtr, .-USBFS_GetConfigTablePtr
 253              		.section	.text.USBFS_ConfigAltChanged,"ax",%progbits
 254              		.align	2
 255              		.global	USBFS_ConfigAltChanged
 256              		.code	16
 257              		.thumb_func
 258              		.type	USBFS_ConfigAltChanged, %function
 259              	USBFS_ConfigAltChanged:
 260              	.LFB5:
 806:Generated_Source\PSoC4/USBFS_std.c ****     uint32 ep;
 261              		.loc 1 806 0
 262              		.cfi_startproc
 263              		@ args = 0, pretend = 0, frame = 0
 264              		@ frame_needed = 0, uses_anonymous_args = 0
 265 0000 F0B5     		push	{r4, r5, r6, r7, lr}
 266              		.cfi_def_cfa_offset 20
 267              		.cfi_offset 4, -20
 268              		.cfi_offset 5, -16
 269              		.cfi_offset 6, -12
 270              		.cfi_offset 7, -8
 271              		.cfi_offset 14, -4
 272 0002 5746     		mov	r7, r10
 273 0004 4E46     		mov	r6, r9
 274 0006 4546     		mov	r5, r8
 275 0008 E0B4     		push	{r5, r6, r7}
 276              		.cfi_def_cfa_offset 32
 277              		.cfi_offset 8, -32
 278              		.cfi_offset 9, -28
 279              		.cfi_offset 10, -24
 817:Generated_Source\PSoC4/USBFS_std.c ****     {
 280              		.loc 1 817 0
ARM GAS  C:\Users\User\AppData\Local\Temp\ccieNkfn.s 			page 23


 281 000a 3F4B     		ldr	r3, .L32
 282 000c 1B78     		ldrb	r3, [r3]
 283 000e 002B     		cmp	r3, #0
 284 0010 75D0     		beq	.L21
 820:Generated_Source\PSoC4/USBFS_std.c ****         pTmp = &pTmp[1u];
 285              		.loc 1 820 0
 286 0012 3D4B     		ldr	r3, .L32
 287 0014 1878     		ldrb	r0, [r3]
 288 0016 0138     		subs	r0, r0, #1
 289 0018 C0B2     		uxtb	r0, r0
 290 001a FFF7FEFF 		bl	USBFS_GetConfigTablePtr
 291              	.LVL14:
 822:Generated_Source\PSoC4/USBFS_std.c **** 
 292              		.loc 1 822 0
 293 001e 047A     		ldrb	r4, [r0, #8]
 294              	.LVL15:
 825:Generated_Source\PSoC4/USBFS_std.c ****         
 295              		.loc 1 825 0
 296 0020 C368     		ldr	r3, [r0, #12]
 297              	.LVL16:
 831:Generated_Source\PSoC4/USBFS_std.c ****         for (i = 0u; i < ep; i++)
 298              		.loc 1 831 0
 299 0022 3A4A     		ldr	r2, .L32+4
 300 0024 1078     		ldrb	r0, [r2]
 301              	.LVL17:
 302 0026 C0B2     		uxtb	r0, r0
 303              	.LVL18:
 832:Generated_Source\PSoC4/USBFS_std.c ****         {
 304              		.loc 1 832 0
 305 0028 0022     		movs	r2, #0
 306 002a 66E0     		b	.L23
 307              	.LVL19:
 308              	.L29:
 835:Generated_Source\PSoC4/USBFS_std.c ****                 (USBFS_interfaceSetting[interfaceNum] == pEP->altSetting))
 309              		.loc 1 835 0
 310 002c 1978     		ldrb	r1, [r3]
 311 002e 8842     		cmp	r0, r1
 312 0030 61D1     		bne	.L24
 836:Generated_Source\PSoC4/USBFS_std.c ****             {
 313              		.loc 1 836 0 discriminator 1
 314 0032 3749     		ldr	r1, .L32+8
 315 0034 095C     		ldrb	r1, [r1, r0]
 316 0036 C9B2     		uxtb	r1, r1
 317 0038 5D78     		ldrb	r5, [r3, #1]
 835:Generated_Source\PSoC4/USBFS_std.c ****                 (USBFS_interfaceSetting[interfaceNum] == pEP->altSetting))
 318              		.loc 1 835 0 discriminator 1
 319 003a A942     		cmp	r1, r5
 320 003c 5BD1     		bne	.L24
 838:Generated_Source\PSoC4/USBFS_std.c ****                 epType = ((uint32) pEP->attributes & USBFS_EP_TYPE_MASK);
 321              		.loc 1 838 0
 322 003e 9978     		ldrb	r1, [r3, #2]
 323 0040 7F25     		movs	r5, #127
 324 0042 2940     		ands	r1, r5
 325              	.LVL20:
 839:Generated_Source\PSoC4/USBFS_std.c ****                 
 326              		.loc 1 839 0
 327 0044 DD78     		ldrb	r5, [r3, #3]
ARM GAS  C:\Users\User\AppData\Local\Temp\ccieNkfn.s 			page 24


 328 0046 0326     		movs	r6, #3
 329 0048 2E40     		ands	r6, r5
 330 004a B446     		mov	ip, r6
 331              	.LVL21:
 842:Generated_Source\PSoC4/USBFS_std.c ****                 USBFS_EP[curEp].addr       = pEP->addr;
 332              		.loc 1 842 0
 333 004c 314D     		ldr	r5, .L32+12
 334 004e A846     		mov	r8, r5
 335 0050 4E00     		lsls	r6, r1, #1
 336              	.LVL22:
 337 0052 7718     		adds	r7, r6, r1
 338 0054 BD00     		lsls	r5, r7, #2
 339 0056 4544     		add	r5, r5, r8
 340 0058 AA46     		mov	r10, r5
 341 005a 0027     		movs	r7, #0
 342 005c EF70     		strb	r7, [r5, #3]
 843:Generated_Source\PSoC4/USBFS_std.c ****                 USBFS_EP[curEp].attrib     = pEP->attributes;
 343              		.loc 1 843 0
 344 005e 9F78     		ldrb	r7, [r3, #2]
 345 0060 2F71     		strb	r7, [r5, #4]
 844:Generated_Source\PSoC4/USBFS_std.c ****                 USBFS_EP[curEp].bufferSize = pEP->bufferSize;
 346              		.loc 1 844 0
 347 0062 DF78     		ldrb	r7, [r3, #3]
 348 0064 B946     		mov	r9, r7
 349 0066 7618     		adds	r6, r6, r1
 350 0068 B700     		lsls	r7, r6, #2
 351 006a 4646     		mov	r6, r8
 352 006c 4D46     		mov	r5, r9
 353 006e BD55     		strb	r5, [r7, r6]
 845:Generated_Source\PSoC4/USBFS_std.c **** 
 354              		.loc 1 845 0
 355 0070 9E88     		ldrh	r6, [r3, #4]
 356 0072 5546     		mov	r5, r10
 357 0074 2E81     		strh	r6, [r5, #8]
 847:Generated_Source\PSoC4/USBFS_std.c ****                 {
 358              		.loc 1 847 0
 359 0076 0225     		movs	r5, #2
 360 0078 5D57     		ldrsb	r5, [r3, r5]
 361 007a 002D     		cmp	r5, #0
 362 007c 0EDA     		bge	.L25
 850:Generated_Source\PSoC4/USBFS_std.c ****                     USBFS_EP[curEp].apiEpState = USBFS_EVENT_PENDING;
 363              		.loc 1 850 0
 364 007e 6546     		mov	r5, ip
 365 0080 012D     		cmp	r5, #1
 366 0082 01D1     		bne	.L30
 367 0084 0727     		movs	r7, #7
 368 0086 00E0     		b	.L26
 369              	.L30:
 370 0088 0D27     		movs	r7, #13
 371              	.L26:
 850:Generated_Source\PSoC4/USBFS_std.c ****                     USBFS_EP[curEp].apiEpState = USBFS_EVENT_PENDING;
 372              		.loc 1 850 0 is_stmt 0 discriminator 4
 373 008a 4E00     		lsls	r6, r1, #1
 374 008c 7618     		adds	r6, r6, r1
 375 008e B500     		lsls	r5, r6, #2
 376 0090 204E     		ldr	r6, .L32+12
 377 0092 7519     		adds	r5, r6, r5
ARM GAS  C:\Users\User\AppData\Local\Temp\ccieNkfn.s 			page 25


 378 0094 6F71     		strb	r7, [r5, #5]
 851:Generated_Source\PSoC4/USBFS_std.c ****                 }
 379              		.loc 1 851 0 is_stmt 1 discriminator 4
 380 0096 0126     		movs	r6, #1
 381 0098 6E70     		strb	r6, [r5, #1]
 382 009a 0DE0     		b	.L27
 383              	.L25:
 856:Generated_Source\PSoC4/USBFS_std.c ****                     USBFS_EP[curEp].apiEpState = USBFS_NO_EVENT_PENDING;
 384              		.loc 1 856 0
 385 009c 6546     		mov	r5, ip
 386 009e 012D     		cmp	r5, #1
 387 00a0 01D1     		bne	.L31
 388              	.LVL23:
 389 00a2 0527     		movs	r7, #5
 390 00a4 00E0     		b	.L28
 391              	.L31:
 392 00a6 0927     		movs	r7, #9
 393              	.L28:
 856:Generated_Source\PSoC4/USBFS_std.c ****                     USBFS_EP[curEp].apiEpState = USBFS_NO_EVENT_PENDING;
 394              		.loc 1 856 0 is_stmt 0 discriminator 4
 395 00a8 4E00     		lsls	r6, r1, #1
 396 00aa 7618     		adds	r6, r6, r1
 397 00ac B500     		lsls	r5, r6, #2
 398              	.LVL24:
 399 00ae 194E     		ldr	r6, .L32+12
 400 00b0 7519     		adds	r5, r6, r5
 401 00b2 6F71     		strb	r7, [r5, #5]
 857:Generated_Source\PSoC4/USBFS_std.c ****                 }
 402              		.loc 1 857 0 is_stmt 1 discriminator 4
 403 00b4 0026     		movs	r6, #0
 404 00b6 6E70     		strb	r6, [r5, #1]
 405              	.L27:
 861:Generated_Source\PSoC4/USBFS_std.c **** 
 406              		.loc 1 861 0
 407 00b8 8D01     		lsls	r5, r1, #6
 408 00ba 174E     		ldr	r6, .L32+16
 409 00bc B146     		mov	r9, r6
 410 00be A944     		add	r9, r9, r5
 411 00c0 0126     		movs	r6, #1
 412 00c2 4F46     		mov	r7, r9
 413 00c4 BE60     		str	r6, [r7, #8]
 907:Generated_Source\PSoC4/USBFS_std.c ****                 USBFS_SIE_EP_BASE.sieEp[curEp].epCnt1 = LO8(USBFS_EP[curEp].bufferSize);
 414              		.loc 1 907 0
 415 00c6 4E00     		lsls	r6, r1, #1
 416 00c8 7118     		adds	r1, r6, r1
 417              	.LVL25:
 418 00ca 8E00     		lsls	r6, r1, #2
 419 00cc 1149     		ldr	r1, .L32+12
 420 00ce 8919     		adds	r1, r1, r6
 421 00d0 0E89     		ldrh	r6, [r1, #8]
 422 00d2 360A     		lsrs	r6, r6, #8
 423 00d4 B046     		mov	r8, r6
 424 00d6 104E     		ldr	r6, .L32+16
 425 00d8 4746     		mov	r7, r8
 426 00da AF51     		str	r7, [r5, r6]
 908:Generated_Source\PSoC4/USBFS_std.c ****                 
 427              		.loc 1 908 0
ARM GAS  C:\Users\User\AppData\Local\Temp\ccieNkfn.s 			page 26


 428 00dc 0E89     		ldrh	r6, [r1, #8]
 429 00de F6B2     		uxtb	r6, r6
 430 00e0 4F46     		mov	r7, r9
 431 00e2 7E60     		str	r6, [r7, #4]
 911:Generated_Source\PSoC4/USBFS_std.c ****                     USBFS_ARB_EP16_BASE.arbEp[curEp].rwWa16  = (uint32) USBFS_EP[curEp].buffOffset;
 432              		.loc 1 911 0
 433 00e4 CE88     		ldrh	r6, [r1, #6]
 434 00e6 B6B2     		uxth	r6, r6
 435 00e8 0C4F     		ldr	r7, .L32+20
 436 00ea EF19     		adds	r7, r5, r7
 437 00ec BE60     		str	r6, [r7, #8]
 912:Generated_Source\PSoC4/USBFS_std.c ****                 #else
 438              		.loc 1 912 0
 439 00ee C988     		ldrh	r1, [r1, #6]
 440 00f0 89B2     		uxth	r1, r1
 441 00f2 0A4E     		ldr	r6, .L32+20
 442 00f4 A951     		str	r1, [r5, r6]
 443              	.LVL26:
 444              	.L24:
 922:Generated_Source\PSoC4/USBFS_std.c ****         }
 445              		.loc 1 922 0 discriminator 2
 446 00f6 0833     		adds	r3, r3, #8
 447              	.LVL27:
 832:Generated_Source\PSoC4/USBFS_std.c ****         {
 448              		.loc 1 832 0 discriminator 2
 449 00f8 0132     		adds	r2, r2, #1
 450              	.LVL28:
 451              	.L23:
 832:Generated_Source\PSoC4/USBFS_std.c ****         {
 452              		.loc 1 832 0 is_stmt 0 discriminator 1
 453 00fa A242     		cmp	r2, r4
 454 00fc 96D3     		bcc	.L29
 455              	.LVL29:
 456              	.L21:
 927:Generated_Source\PSoC4/USBFS_std.c **** 
 457              		.loc 1 927 0 is_stmt 1
 458              		@ sp needed
 459 00fe 1CBC     		pop	{r2, r3, r4}
 460 0100 9046     		mov	r8, r2
 461 0102 9946     		mov	r9, r3
 462 0104 A246     		mov	r10, r4
 463 0106 F0BD     		pop	{r4, r5, r6, r7, pc}
 464              	.L33:
 465              		.align	2
 466              	.L32:
 467 0108 00000000 		.word	USBFS_configuration
 468 010c 00000000 		.word	USBFS_interfaceNumber
 469 0110 00000000 		.word	USBFS_interfaceSetting
 470 0114 00000000 		.word	USBFS_EP
 471 0118 F0FF2B40 		.word	1076625392
 472 011c D0112C40 		.word	1076629968
 473              		.cfi_endproc
 474              	.LFE5:
 475              		.size	USBFS_ConfigAltChanged, .-USBFS_ConfigAltChanged
 476              		.section	.text.USBFS_GetDeviceTablePtr,"ax",%progbits
 477              		.align	2
 478              		.global	USBFS_GetDeviceTablePtr
ARM GAS  C:\Users\User\AppData\Local\Temp\ccieNkfn.s 			page 27


 479              		.code	16
 480              		.thumb_func
 481              		.type	USBFS_GetDeviceTablePtr, %function
 482              	USBFS_GetDeviceTablePtr:
 483              	.LFB7:
 968:Generated_Source\PSoC4/USBFS_std.c **** 
 969:Generated_Source\PSoC4/USBFS_std.c **** 
 970:Generated_Source\PSoC4/USBFS_std.c **** #if (USBFS_BOS_ENABLE)
 971:Generated_Source\PSoC4/USBFS_std.c ****     /*******************************************************************************
 972:Generated_Source\PSoC4/USBFS_std.c ****     * Function Name: USBFS_GetBOSPtr
 973:Generated_Source\PSoC4/USBFS_std.c ****     ****************************************************************************//**
 974:Generated_Source\PSoC4/USBFS_std.c ****     *
 975:Generated_Source\PSoC4/USBFS_std.c ****     *  This routine returns a pointer a BOS table entry
 976:Generated_Source\PSoC4/USBFS_std.c ****     *
 977:Generated_Source\PSoC4/USBFS_std.c ****     *  
 978:Generated_Source\PSoC4/USBFS_std.c ****     *
 979:Generated_Source\PSoC4/USBFS_std.c ****     * \return
 980:Generated_Source\PSoC4/USBFS_std.c ****     *  BOS Descriptor pointer or NULL when descriptor does not exist.
 981:Generated_Source\PSoC4/USBFS_std.c ****     *
 982:Generated_Source\PSoC4/USBFS_std.c ****     *******************************************************************************/
 983:Generated_Source\PSoC4/USBFS_std.c ****     const T_USBFS_LUT CYCODE *USBFS_GetBOSPtr(void)
 984:Generated_Source\PSoC4/USBFS_std.c ****                                                             
 985:Generated_Source\PSoC4/USBFS_std.c ****     {
 986:Generated_Source\PSoC4/USBFS_std.c ****         /* Device Table */
 987:Generated_Source\PSoC4/USBFS_std.c ****         const T_USBFS_LUT CYCODE *pTmp;
 988:Generated_Source\PSoC4/USBFS_std.c **** 
 989:Generated_Source\PSoC4/USBFS_std.c ****         pTmp = (const T_USBFS_LUT CYCODE *) USBFS_TABLE[USBFS_device].p_list;
 990:Generated_Source\PSoC4/USBFS_std.c **** 
 991:Generated_Source\PSoC4/USBFS_std.c ****         /* The first entry points to the Device Descriptor,
 992:Generated_Source\PSoC4/USBFS_std.c ****         *  the second entry points to the BOS Descriptor
 993:Generated_Source\PSoC4/USBFS_std.c ****         */
 994:Generated_Source\PSoC4/USBFS_std.c ****         pTmp = &pTmp[1u];
 995:Generated_Source\PSoC4/USBFS_std.c ****         pTmp = (const T_USBFS_LUT CYCODE *) pTmp->p_list;
 996:Generated_Source\PSoC4/USBFS_std.c ****         return (pTmp);
 997:Generated_Source\PSoC4/USBFS_std.c ****     }
 998:Generated_Source\PSoC4/USBFS_std.c **** #endif /* (USBFS_BOS_ENABLE) */
 999:Generated_Source\PSoC4/USBFS_std.c **** 
1000:Generated_Source\PSoC4/USBFS_std.c **** 
1001:Generated_Source\PSoC4/USBFS_std.c **** /*******************************************************************************
1002:Generated_Source\PSoC4/USBFS_std.c **** * Function Name: USBFS_GetDeviceTablePtr
1003:Generated_Source\PSoC4/USBFS_std.c **** ****************************************************************************//**
1004:Generated_Source\PSoC4/USBFS_std.c **** *
1005:Generated_Source\PSoC4/USBFS_std.c **** *  This routine returns a pointer to the Device table
1006:Generated_Source\PSoC4/USBFS_std.c **** *
1007:Generated_Source\PSoC4/USBFS_std.c **** * \return
1008:Generated_Source\PSoC4/USBFS_std.c **** *  Device Table pointer
1009:Generated_Source\PSoC4/USBFS_std.c **** *
1010:Generated_Source\PSoC4/USBFS_std.c **** *******************************************************************************/
1011:Generated_Source\PSoC4/USBFS_std.c **** const T_USBFS_LUT CYCODE *USBFS_GetDeviceTablePtr(void)
1012:Generated_Source\PSoC4/USBFS_std.c ****                                                             
1013:Generated_Source\PSoC4/USBFS_std.c **** {
 484              		.loc 1 1013 0
 485              		.cfi_startproc
 486              		@ args = 0, pretend = 0, frame = 0
 487              		@ frame_needed = 0, uses_anonymous_args = 0
 488              		@ link register save eliminated.
1014:Generated_Source\PSoC4/USBFS_std.c ****     /* Device Table */
ARM GAS  C:\Users\User\AppData\Local\Temp\ccieNkfn.s 			page 28


1015:Generated_Source\PSoC4/USBFS_std.c ****     return( (const T_USBFS_LUT CYCODE *) USBFS_TABLE[USBFS_device].p_list );
 489              		.loc 1 1015 0
 490 0000 034B     		ldr	r3, .L35
 491 0002 1B78     		ldrb	r3, [r3]
 492 0004 DB00     		lsls	r3, r3, #3
 493 0006 034A     		ldr	r2, .L35+4
 494 0008 D318     		adds	r3, r2, r3
 495 000a 5868     		ldr	r0, [r3, #4]
1016:Generated_Source\PSoC4/USBFS_std.c **** }
 496              		.loc 1 1016 0
 497              		@ sp needed
 498 000c 7047     		bx	lr
 499              	.L36:
 500 000e C046     		.align	2
 501              	.L35:
 502 0010 00000000 		.word	USBFS_device
 503 0014 00000000 		.word	USBFS_TABLE
 504              		.cfi_endproc
 505              	.LFE7:
 506              		.size	USBFS_GetDeviceTablePtr, .-USBFS_GetDeviceTablePtr
 507              		.section	.text.USBFS_GetInterfaceClassTablePtr,"ax",%progbits
 508              		.align	2
 509              		.global	USBFS_GetInterfaceClassTablePtr
 510              		.code	16
 511              		.thumb_func
 512              		.type	USBFS_GetInterfaceClassTablePtr, %function
 513              	USBFS_GetInterfaceClassTablePtr:
 514              	.LFB8:
1017:Generated_Source\PSoC4/USBFS_std.c **** 
1018:Generated_Source\PSoC4/USBFS_std.c **** 
1019:Generated_Source\PSoC4/USBFS_std.c **** /*******************************************************************************
1020:Generated_Source\PSoC4/USBFS_std.c **** * Function Name: USB_GetInterfaceClassTablePtr
1021:Generated_Source\PSoC4/USBFS_std.c **** ****************************************************************************//**
1022:Generated_Source\PSoC4/USBFS_std.c **** *
1023:Generated_Source\PSoC4/USBFS_std.c **** *  This routine returns Interface Class table pointer, which contains
1024:Generated_Source\PSoC4/USBFS_std.c **** *  the relation between interface number and interface class.
1025:Generated_Source\PSoC4/USBFS_std.c **** *
1026:Generated_Source\PSoC4/USBFS_std.c **** * \return
1027:Generated_Source\PSoC4/USBFS_std.c **** *  Interface Class table pointer.
1028:Generated_Source\PSoC4/USBFS_std.c **** *
1029:Generated_Source\PSoC4/USBFS_std.c **** *******************************************************************************/
1030:Generated_Source\PSoC4/USBFS_std.c **** const uint8 CYCODE *USBFS_GetInterfaceClassTablePtr(void)
1031:Generated_Source\PSoC4/USBFS_std.c ****                                                         
1032:Generated_Source\PSoC4/USBFS_std.c **** {
 515              		.loc 1 1032 0
 516              		.cfi_startproc
 517              		@ args = 0, pretend = 0, frame = 0
 518              		@ frame_needed = 0, uses_anonymous_args = 0
 519 0000 10B5     		push	{r4, lr}
 520              		.cfi_def_cfa_offset 8
 521              		.cfi_offset 4, -8
 522              		.cfi_offset 14, -4
1033:Generated_Source\PSoC4/USBFS_std.c ****     const T_USBFS_LUT CYCODE *pTmp;
1034:Generated_Source\PSoC4/USBFS_std.c ****     const uint8 CYCODE *pInterfaceClass;
1035:Generated_Source\PSoC4/USBFS_std.c ****     uint8 currentInterfacesNum;
1036:Generated_Source\PSoC4/USBFS_std.c **** 
1037:Generated_Source\PSoC4/USBFS_std.c ****     pTmp = USBFS_GetConfigTablePtr(USBFS_configuration - 1u);
ARM GAS  C:\Users\User\AppData\Local\Temp\ccieNkfn.s 			page 29


 523              		.loc 1 1037 0
 524 0002 084B     		ldr	r3, .L40
 525 0004 1878     		ldrb	r0, [r3]
 526 0006 0138     		subs	r0, r0, #1
 527 0008 C0B2     		uxtb	r0, r0
 528 000a FFF7FEFF 		bl	USBFS_GetConfigTablePtr
 529              	.LVL30:
1038:Generated_Source\PSoC4/USBFS_std.c ****     if (pTmp != NULL)
 530              		.loc 1 1038 0
 531 000e 0028     		cmp	r0, #0
 532 0010 06D0     		beq	.L39
1039:Generated_Source\PSoC4/USBFS_std.c ****     {
1040:Generated_Source\PSoC4/USBFS_std.c ****         currentInterfacesNum  = ((const uint8 *) pTmp->p_list)[USBFS_CONFIG_DESCR_NUM_INTERFACES];
 533              		.loc 1 1040 0
 534 0012 4368     		ldr	r3, [r0, #4]
 535 0014 1B79     		ldrb	r3, [r3, #4]
 536              	.LVL31:
1041:Generated_Source\PSoC4/USBFS_std.c ****         /* Third entry in the LUT starts the Interface Table pointers */
1042:Generated_Source\PSoC4/USBFS_std.c ****         /* The INTERFACE_CLASS table is located after all interfaces */
1043:Generated_Source\PSoC4/USBFS_std.c ****         pTmp = &pTmp[currentInterfacesNum + 2u];
 537              		.loc 1 1043 0
 538 0016 0233     		adds	r3, r3, #2
 539              	.LVL32:
 540 0018 DB00     		lsls	r3, r3, #3
 541              	.LVL33:
 542 001a C018     		adds	r0, r0, r3
 543              	.LVL34:
1044:Generated_Source\PSoC4/USBFS_std.c ****         pInterfaceClass = (const uint8 CYCODE *) pTmp->p_list;
 544              		.loc 1 1044 0
 545 001c 4068     		ldr	r0, [r0, #4]
 546              	.LVL35:
 547 001e 00E0     		b	.L38
 548              	.LVL36:
 549              	.L39:
1045:Generated_Source\PSoC4/USBFS_std.c ****     }
1046:Generated_Source\PSoC4/USBFS_std.c ****     else
1047:Generated_Source\PSoC4/USBFS_std.c ****     {
1048:Generated_Source\PSoC4/USBFS_std.c ****         pInterfaceClass = (const uint8 CYCODE *) NULL;
 550              		.loc 1 1048 0
 551 0020 0020     		movs	r0, #0
 552              	.LVL37:
 553              	.L38:
1049:Generated_Source\PSoC4/USBFS_std.c ****     }
1050:Generated_Source\PSoC4/USBFS_std.c **** 
1051:Generated_Source\PSoC4/USBFS_std.c ****     return (pInterfaceClass);
1052:Generated_Source\PSoC4/USBFS_std.c **** }
 554              		.loc 1 1052 0
 555              		@ sp needed
 556 0022 10BD     		pop	{r4, pc}
 557              	.L41:
 558              		.align	2
 559              	.L40:
 560 0024 00000000 		.word	USBFS_configuration
 561              		.cfi_endproc
 562              	.LFE8:
 563              		.size	USBFS_GetInterfaceClassTablePtr, .-USBFS_GetInterfaceClassTablePtr
 564              		.section	.text.USBFS_Config,"ax",%progbits
ARM GAS  C:\Users\User\AppData\Local\Temp\ccieNkfn.s 			page 30


 565              		.align	2
 566              		.global	USBFS_Config
 567              		.code	16
 568              		.thumb_func
 569              		.type	USBFS_Config, %function
 570              	USBFS_Config:
 571              	.LFB4:
 571:Generated_Source\PSoC4/USBFS_std.c ****     uint8 ep;
 572              		.loc 1 571 0
 573              		.cfi_startproc
 574              		@ args = 0, pretend = 0, frame = 0
 575              		@ frame_needed = 0, uses_anonymous_args = 0
 576              	.LVL38:
 577 0000 F0B5     		push	{r4, r5, r6, r7, lr}
 578              		.cfi_def_cfa_offset 20
 579              		.cfi_offset 4, -20
 580              		.cfi_offset 5, -16
 581              		.cfi_offset 6, -12
 582              		.cfi_offset 7, -8
 583              		.cfi_offset 14, -4
 584 0002 5746     		mov	r7, r10
 585 0004 4E46     		mov	r6, r9
 586 0006 4546     		mov	r5, r8
 587 0008 E0B4     		push	{r5, r6, r7}
 588              		.cfi_def_cfa_offset 32
 589              		.cfi_offset 8, -32
 590              		.cfi_offset 9, -28
 591              		.cfi_offset 10, -24
 592              	.LVL39:
 586:Generated_Source\PSoC4/USBFS_std.c ****     {
 593              		.loc 1 586 0
 594 000a 0023     		movs	r3, #0
 595 000c 12E0     		b	.L43
 596              	.LVL40:
 597              	.L44:
 588:Generated_Source\PSoC4/USBFS_std.c ****         USBFS_EP[ep].hwEpState  = 0u;
 598              		.loc 1 588 0 discriminator 3
 599 000e 6C4E     		ldr	r6, .L67
 600 0010 5900     		lsls	r1, r3, #1
 601 0012 CC18     		adds	r4, r1, r3
 602 0014 A200     		lsls	r2, r4, #2
 603 0016 0024     		movs	r4, #0
 604 0018 9455     		strb	r4, [r2, r6]
 589:Generated_Source\PSoC4/USBFS_std.c ****         USBFS_EP[ep].epToggle   = 0u;
 605              		.loc 1 589 0 discriminator 3
 606 001a B218     		adds	r2, r6, r2
 607 001c 9470     		strb	r4, [r2, #2]
 590:Generated_Source\PSoC4/USBFS_std.c ****         USBFS_EP[ep].bufferSize = 0u;
 608              		.loc 1 590 0 discriminator 3
 609 001e D470     		strb	r4, [r2, #3]
 591:Generated_Source\PSoC4/USBFS_std.c ****         USBFS_EP[ep].interface  = 0u;
 610              		.loc 1 591 0 discriminator 3
 611 0020 0025     		movs	r5, #0
 612 0022 1481     		strh	r4, [r2, #8]
 592:Generated_Source\PSoC4/USBFS_std.c ****         USBFS_EP[ep].apiEpState = USBFS_NO_EVENT_PENDING;
 613              		.loc 1 592 0 discriminator 3
 614 0024 9572     		strb	r5, [r2, #10]
ARM GAS  C:\Users\User\AppData\Local\Temp\ccieNkfn.s 			page 31


 593:Generated_Source\PSoC4/USBFS_std.c ****         USBFS_EP[ep].epMode     = USBFS_MODE_DISABLE;   
 615              		.loc 1 593 0 discriminator 3
 616 0026 5570     		strb	r5, [r2, #1]
 594:Generated_Source\PSoC4/USBFS_std.c ****     }
 617              		.loc 1 594 0 discriminator 3
 618 0028 C918     		adds	r1, r1, r3
 619 002a 8A00     		lsls	r2, r1, #2
 620 002c B218     		adds	r2, r6, r2
 621 002e 5571     		strb	r5, [r2, #5]
 586:Generated_Source\PSoC4/USBFS_std.c ****     {
 622              		.loc 1 586 0 discriminator 3
 623 0030 0133     		adds	r3, r3, #1
 624              	.LVL41:
 625 0032 DBB2     		uxtb	r3, r3
 626              	.LVL42:
 627              	.L43:
 586:Generated_Source\PSoC4/USBFS_std.c ****     {
 628              		.loc 1 586 0 is_stmt 0 discriminator 1
 629 0034 082B     		cmp	r3, #8
 630 0036 EAD9     		bls	.L44
 598:Generated_Source\PSoC4/USBFS_std.c ****     {
 631              		.loc 1 598 0 is_stmt 1
 632 0038 0028     		cmp	r0, #0
 633 003a 08D1     		bne	.L64
 634 003c 0AE0     		b	.L46
 635              	.LVL43:
 636              	.L47:
 602:Generated_Source\PSoC4/USBFS_std.c ****             USBFS_interfaceSettingLast[i] = 0u;
 637              		.loc 1 602 0 discriminator 3
 638 003e 0022     		movs	r2, #0
 639 0040 6049     		ldr	r1, .L67+4
 640 0042 CA54     		strb	r2, [r1, r3]
 603:Generated_Source\PSoC4/USBFS_std.c ****         }
 641              		.loc 1 603 0 discriminator 3
 642 0044 6049     		ldr	r1, .L67+8
 643 0046 CA54     		strb	r2, [r1, r3]
 600:Generated_Source\PSoC4/USBFS_std.c ****         {
 644              		.loc 1 600 0 discriminator 3
 645 0048 0133     		adds	r3, r3, #1
 646              	.LVL44:
 647 004a DBB2     		uxtb	r3, r3
 648              	.LVL45:
 649 004c 00E0     		b	.L45
 650              	.LVL46:
 651              	.L64:
 652 004e 0023     		movs	r3, #0
 653              	.LVL47:
 654              	.L45:
 600:Generated_Source\PSoC4/USBFS_std.c ****         {
 655              		.loc 1 600 0 is_stmt 0 discriminator 1
 656 0050 002B     		cmp	r3, #0
 657 0052 F4D0     		beq	.L47
 658              	.LVL48:
 659              	.L46:
 608:Generated_Source\PSoC4/USBFS_std.c ****     {
 660              		.loc 1 608 0 is_stmt 1
 661 0054 5D4B     		ldr	r3, .L67+12
ARM GAS  C:\Users\User\AppData\Local\Temp\ccieNkfn.s 			page 32


 662 0056 1B78     		ldrb	r3, [r3]
 663 0058 002B     		cmp	r3, #0
 664 005a 00D1     		bne	.LCB645
 665 005c ABE0     		b	.L42	@long jump
 666              	.LCB645:
 614:Generated_Source\PSoC4/USBFS_std.c ****         
 667              		.loc 1 614 0
 668 005e 5B4B     		ldr	r3, .L67+12
 669 0060 1878     		ldrb	r0, [r3]
 670              	.LVL49:
 671 0062 0138     		subs	r0, r0, #1
 672 0064 C0B2     		uxtb	r0, r0
 673 0066 FFF7FEFF 		bl	USBFS_GetConfigTablePtr
 674              	.LVL50:
 675 006a 8246     		mov	r10, r0
 676              	.LVL51:
 618:Generated_Source\PSoC4/USBFS_std.c ****         {
 677              		.loc 1 618 0
 678 006c 4368     		ldr	r3, [r0, #4]
 679 006e DB79     		ldrb	r3, [r3, #7]
 680 0070 5B06     		lsls	r3, r3, #25
 681 0072 06D5     		bpl	.L49
 620:Generated_Source\PSoC4/USBFS_std.c ****         }
 682              		.loc 1 620 0
 683 0074 564A     		ldr	r2, .L67+16
 684 0076 1178     		ldrb	r1, [r2]
 685 0078 0123     		movs	r3, #1
 686 007a 0B43     		orrs	r3, r1
 687 007c DBB2     		uxtb	r3, r3
 688 007e 1370     		strb	r3, [r2]
 689 0080 04E0     		b	.L50
 690              	.L49:
 624:Generated_Source\PSoC4/USBFS_std.c ****         }
 691              		.loc 1 624 0
 692 0082 534A     		ldr	r2, .L67+16
 693 0084 1378     		ldrb	r3, [r2]
 694 0086 0121     		movs	r1, #1
 695 0088 8B43     		bics	r3, r1
 696 008a 1370     		strb	r3, [r2]
 697              	.L50:
 698              	.LVL52:
 629:Generated_Source\PSoC4/USBFS_std.c **** 
 699              		.loc 1 629 0
 700 008c 5346     		mov	r3, r10
 701 008e 1E7A     		ldrb	r6, [r3, #8]
 702              	.LVL53:
 687:Generated_Source\PSoC4/USBFS_std.c ****             {
 703              		.loc 1 687 0
 704 0090 0124     		movs	r4, #1
 705 0092 65E0     		b	.L51
 706              	.LVL54:
 707              	.L59:
 690:Generated_Source\PSoC4/USBFS_std.c ****                 /* Find max length for each EP and select it (length could be different in differen
 708              		.loc 1 690 0
 709 0094 5346     		mov	r3, r10
 710 0096 D968     		ldr	r1, [r3, #12]
 711              	.LVL55:
ARM GAS  C:\Users\User\AppData\Local\Temp\ccieNkfn.s 			page 33


 694:Generated_Source\PSoC4/USBFS_std.c ****                 {
 712              		.loc 1 694 0
 713 0098 0023     		movs	r3, #0
 714 009a 5DE0     		b	.L52
 715              	.LVL56:
 716              	.L58:
 696:Generated_Source\PSoC4/USBFS_std.c ****                     {
 717              		.loc 1 696 0
 718 009c 8A78     		ldrb	r2, [r1, #2]
 719 009e 7F25     		movs	r5, #127
 720 00a0 2A40     		ands	r2, r5
 721 00a2 9442     		cmp	r4, r2
 722 00a4 55D1     		bne	.L53
 699:Generated_Source\PSoC4/USBFS_std.c ****                         {
 723              		.loc 1 699 0
 724 00a6 2700     		movs	r7, r4
 725 00a8 6500     		lsls	r5, r4, #1
 726 00aa 2D19     		adds	r5, r5, r4
 727 00ac AA00     		lsls	r2, r5, #2
 728 00ae 444D     		ldr	r5, .L67
 729 00b0 AA18     		adds	r2, r5, r2
 730 00b2 1289     		ldrh	r2, [r2, #8]
 731 00b4 92B2     		uxth	r2, r2
 732 00b6 8D88     		ldrh	r5, [r1, #4]
 733 00b8 AA42     		cmp	r2, r5
 734 00ba 08D2     		bcs	.L54
 701:Generated_Source\PSoC4/USBFS_std.c ****                         }
 735              		.loc 1 701 0
 736 00bc 6200     		lsls	r2, r4, #1
 737 00be 9446     		mov	ip, r2
 738 00c0 A444     		add	ip, ip, r4
 739 00c2 6246     		mov	r2, ip
 740 00c4 9200     		lsls	r2, r2, #2
 741 00c6 3E48     		ldr	r0, .L67
 742 00c8 8446     		mov	ip, r0
 743 00ca 6244     		add	r2, r2, ip
 744 00cc 1581     		strh	r5, [r2, #8]
 745              	.L54:
 705:Generated_Source\PSoC4/USBFS_std.c ****                         {                            
 746              		.loc 1 705 0
 747 00ce 0A78     		ldrb	r2, [r1]
 748 00d0 3C4D     		ldr	r5, .L67+4
 749 00d2 AA5C     		ldrb	r2, [r5, r2]
 750 00d4 D2B2     		uxtb	r2, r2
 751 00d6 4D78     		ldrb	r5, [r1, #1]
 752 00d8 AA42     		cmp	r2, r5
 753 00da 3AD1     		bne	.L53
 707:Generated_Source\PSoC4/USBFS_std.c ****                             USBFS_EP[i].attrib = pEP->attributes;
 754              		.loc 1 707 0
 755 00dc 8A78     		ldrb	r2, [r1, #2]
 756 00de 9146     		mov	r9, r2
 757 00e0 374A     		ldr	r2, .L67
 758 00e2 9446     		mov	ip, r2
 759 00e4 7A00     		lsls	r2, r7, #1
 760 00e6 D019     		adds	r0, r2, r7
 761 00e8 8500     		lsls	r5, r0, #2
 762 00ea 6544     		add	r5, r5, ip
ARM GAS  C:\Users\User\AppData\Local\Temp\ccieNkfn.s 			page 34


 763 00ec 4846     		mov	r0, r9
 764 00ee 2871     		strb	r0, [r5, #4]
 708:Generated_Source\PSoC4/USBFS_std.c ****                             
 765              		.loc 1 708 0
 766 00f0 C878     		ldrb	r0, [r1, #3]
 767 00f2 D219     		adds	r2, r2, r7
 768 00f4 9500     		lsls	r5, r2, #2
 769 00f6 6246     		mov	r2, ip
 770 00f8 A854     		strb	r0, [r5, r2]
 710:Generated_Source\PSoC4/USBFS_std.c ****                             
 771              		.loc 1 710 0
 772 00fa CA78     		ldrb	r2, [r1, #3]
 773 00fc 0325     		movs	r5, #3
 774 00fe 2A40     		ands	r2, r5
 775              	.LVL57:
 712:Generated_Source\PSoC4/USBFS_std.c ****                             {
 776              		.loc 1 712 0
 777 0100 0225     		movs	r5, #2
 778 0102 4D57     		ldrsb	r5, [r1, r5]
 779 0104 002D     		cmp	r5, #0
 780 0106 12DA     		bge	.L55
 715:Generated_Source\PSoC4/USBFS_std.c ****                                 USBFS_EP[i].apiEpState = USBFS_EVENT_PENDING;
 781              		.loc 1 715 0
 782 0108 012A     		cmp	r2, #1
 783 010a 02D1     		bne	.L65
 784 010c 0632     		adds	r2, r2, #6
 785              	.LVL58:
 786 010e 9146     		mov	r9, r2
 787 0110 01E0     		b	.L56
 788              	.LVL59:
 789              	.L65:
 790 0112 0D22     		movs	r2, #13
 791              	.LVL60:
 792 0114 9146     		mov	r9, r2
 793              	.L56:
 715:Generated_Source\PSoC4/USBFS_std.c ****                                 USBFS_EP[i].apiEpState = USBFS_EVENT_PENDING;
 794              		.loc 1 715 0 is_stmt 0 discriminator 4
 795 0116 2A4A     		ldr	r2, .L67
 796 0118 9446     		mov	ip, r2
 797 011a 7A00     		lsls	r2, r7, #1
 798 011c D019     		adds	r0, r2, r7
 799 011e 8500     		lsls	r5, r0, #2
 800 0120 6544     		add	r5, r5, ip
 801 0122 4846     		mov	r0, r9
 802 0124 6871     		strb	r0, [r5, #5]
 803              	.LVL61:
 716:Generated_Source\PSoC4/USBFS_std.c ****                                 
 804              		.loc 1 716 0 is_stmt 1 discriminator 4
 805 0126 2A00     		movs	r2, r5
 806 0128 0125     		movs	r5, #1
 807 012a 5570     		strb	r5, [r2, #1]
 808 012c 11E0     		b	.L53
 809              	.LVL62:
 810              	.L55:
 728:Generated_Source\PSoC4/USBFS_std.c ****                                 USBFS_EP[i].apiEpState = USBFS_NO_EVENT_PENDING;
 811              		.loc 1 728 0
 812 012e 012A     		cmp	r2, #1
ARM GAS  C:\Users\User\AppData\Local\Temp\ccieNkfn.s 			page 35


 813 0130 02D1     		bne	.L66
 814 0132 0432     		adds	r2, r2, #4
 815              	.LVL63:
 816 0134 9146     		mov	r9, r2
 817 0136 01E0     		b	.L57
 818              	.LVL64:
 819              	.L66:
 820 0138 0922     		movs	r2, #9
 821              	.LVL65:
 822 013a 9146     		mov	r9, r2
 823              	.L57:
 728:Generated_Source\PSoC4/USBFS_std.c ****                                 USBFS_EP[i].apiEpState = USBFS_NO_EVENT_PENDING;
 824              		.loc 1 728 0 is_stmt 0 discriminator 4
 825 013c 204A     		ldr	r2, .L67
 826 013e 9446     		mov	ip, r2
 827 0140 7A00     		lsls	r2, r7, #1
 828 0142 D019     		adds	r0, r2, r7
 829 0144 8500     		lsls	r5, r0, #2
 830 0146 6544     		add	r5, r5, ip
 831 0148 4846     		mov	r0, r9
 832 014a 6871     		strb	r0, [r5, #5]
 833              	.LVL66:
 729:Generated_Source\PSoC4/USBFS_std.c ****                                 
 834              		.loc 1 729 0 is_stmt 1 discriminator 4
 835 014c 2A00     		movs	r2, r5
 836 014e 0025     		movs	r5, #0
 837 0150 5570     		strb	r5, [r2, #1]
 838              	.L53:
 752:Generated_Source\PSoC4/USBFS_std.c ****                 }
 839              		.loc 1 752 0 discriminator 2
 840 0152 0831     		adds	r1, r1, #8
 841              	.LVL67:
 694:Generated_Source\PSoC4/USBFS_std.c ****                 {
 842              		.loc 1 694 0 discriminator 2
 843 0154 0133     		adds	r3, r3, #1
 844              	.LVL68:
 845 0156 DBB2     		uxtb	r3, r3
 846              	.LVL69:
 847              	.L52:
 694:Generated_Source\PSoC4/USBFS_std.c ****                 {
 848              		.loc 1 694 0 is_stmt 0 discriminator 1
 849 0158 B342     		cmp	r3, r6
 850 015a 9FD3     		bcc	.L58
 687:Generated_Source\PSoC4/USBFS_std.c ****             {
 851              		.loc 1 687 0 is_stmt 1 discriminator 2
 852 015c 0134     		adds	r4, r4, #1
 853              	.LVL70:
 854 015e E4B2     		uxtb	r4, r4
 855              	.LVL71:
 856              	.L51:
 687:Generated_Source\PSoC4/USBFS_std.c ****             {
 857              		.loc 1 687 0 is_stmt 0 discriminator 1
 858 0160 082C     		cmp	r4, #8
 859 0162 97D9     		bls	.L59
 762:Generated_Source\PSoC4/USBFS_std.c ****         for (i = 0u; i < ep; i++)
 860              		.loc 1 762 0 is_stmt 1
 861 0164 5346     		mov	r3, r10
ARM GAS  C:\Users\User\AppData\Local\Temp\ccieNkfn.s 			page 36


 862 0166 D868     		ldr	r0, [r3, #12]
 863              	.LVL72:
 763:Generated_Source\PSoC4/USBFS_std.c ****         {
 864              		.loc 1 763 0
 865 0168 0022     		movs	r2, #0
 866 016a 0CE0     		b	.L60
 867              	.LVL73:
 868              	.L61:
 766:Generated_Source\PSoC4/USBFS_std.c ****             pEP = &pEP[1u];
 869              		.loc 1 766 0 discriminator 3
 870 016c 8378     		ldrb	r3, [r0, #2]
 871 016e 7F21     		movs	r1, #127
 872 0170 0B40     		ands	r3, r1
 873 0172 0478     		ldrb	r4, [r0]
 874 0174 5900     		lsls	r1, r3, #1
 875 0176 CB18     		adds	r3, r1, r3
 876 0178 9900     		lsls	r1, r3, #2
 877 017a 114B     		ldr	r3, .L67
 878 017c 5918     		adds	r1, r3, r1
 879 017e 8C72     		strb	r4, [r1, #10]
 767:Generated_Source\PSoC4/USBFS_std.c ****         }
 880              		.loc 1 767 0 discriminator 3
 881 0180 0830     		adds	r0, r0, #8
 882              	.LVL74:
 763:Generated_Source\PSoC4/USBFS_std.c ****         {
 883              		.loc 1 763 0 discriminator 3
 884 0182 0132     		adds	r2, r2, #1
 885              	.LVL75:
 886 0184 D2B2     		uxtb	r2, r2
 887              	.LVL76:
 888              	.L60:
 763:Generated_Source\PSoC4/USBFS_std.c ****         {
 889              		.loc 1 763 0 is_stmt 0 discriminator 1
 890 0186 B242     		cmp	r2, r6
 891 0188 F0D3     		bcc	.L61
 771:Generated_Source\PSoC4/USBFS_std.c ****         
 892              		.loc 1 771 0 is_stmt 1
 893 018a FFF7FEFF 		bl	USBFS_GetInterfaceClassTablePtr
 894              	.LVL77:
 895 018e 114B     		ldr	r3, .L67+20
 896 0190 1860     		str	r0, [r3]
 897              	.LVL78:
 775:Generated_Source\PSoC4/USBFS_std.c ****         for (ep = USBFS_EP1; ep < USBFS_MAX_EP; ++ep)
 898              		.loc 1 775 0
 899 0192 0021     		movs	r1, #0
 776:Generated_Source\PSoC4/USBFS_std.c ****         {
 900              		.loc 1 776 0
 901 0194 0123     		movs	r3, #1
 902 0196 0AE0     		b	.L62
 903              	.LVL79:
 904              	.L63:
 778:Generated_Source\PSoC4/USBFS_std.c ****             buffCount += USBFS_EP[ep].bufferSize;
 905              		.loc 1 778 0 discriminator 3
 906 0198 094D     		ldr	r5, .L67
 907 019a 5A00     		lsls	r2, r3, #1
 908 019c D018     		adds	r0, r2, r3
 909 019e 8400     		lsls	r4, r0, #2
ARM GAS  C:\Users\User\AppData\Local\Temp\ccieNkfn.s 			page 37


 910 01a0 2C19     		adds	r4, r5, r4
 911 01a2 E180     		strh	r1, [r4, #6]
 779:Generated_Source\PSoC4/USBFS_std.c ****             
 912              		.loc 1 779 0 discriminator 3
 913 01a4 2289     		ldrh	r2, [r4, #8]
 914 01a6 5118     		adds	r1, r2, r1
 915              	.LVL80:
 916 01a8 89B2     		uxth	r1, r1
 917              	.LVL81:
 776:Generated_Source\PSoC4/USBFS_std.c ****         {
 918              		.loc 1 776 0 discriminator 3
 919 01aa 0133     		adds	r3, r3, #1
 920              	.LVL82:
 921 01ac DBB2     		uxtb	r3, r3
 922              	.LVL83:
 923              	.L62:
 776:Generated_Source\PSoC4/USBFS_std.c ****         {
 924              		.loc 1 776 0 is_stmt 0 discriminator 1
 925 01ae 082B     		cmp	r3, #8
 926 01b0 F2D9     		bls	.L63
 789:Generated_Source\PSoC4/USBFS_std.c ****     }
 927              		.loc 1 789 0 is_stmt 1
 928 01b2 FFF7FEFF 		bl	USBFS_ConfigReg
 929              	.LVL84:
 930              	.L42:
 791:Generated_Source\PSoC4/USBFS_std.c **** 
 931              		.loc 1 791 0
 932              		@ sp needed
 933 01b6 1CBC     		pop	{r2, r3, r4}
 934 01b8 9046     		mov	r8, r2
 935 01ba 9946     		mov	r9, r3
 936 01bc A246     		mov	r10, r4
 937 01be F0BD     		pop	{r4, r5, r6, r7, pc}
 938              	.L68:
 939              		.align	2
 940              	.L67:
 941 01c0 00000000 		.word	USBFS_EP
 942 01c4 00000000 		.word	USBFS_interfaceSetting
 943 01c8 00000000 		.word	USBFS_interfaceSettingLast
 944 01cc 00000000 		.word	USBFS_configuration
 945 01d0 00000000 		.word	USBFS_deviceStatus
 946 01d4 00000000 		.word	USBFS_interfaceClass
 947              		.cfi_endproc
 948              	.LFE4:
 949              		.size	USBFS_Config, .-USBFS_Config
 950              		.section	.text.USBFS_TerminateEP,"ax",%progbits
 951              		.align	2
 952              		.global	USBFS_TerminateEP
 953              		.code	16
 954              		.thumb_func
 955              		.type	USBFS_TerminateEP, %function
 956              	USBFS_TerminateEP:
 957              	.LFB9:
1053:Generated_Source\PSoC4/USBFS_std.c **** 
1054:Generated_Source\PSoC4/USBFS_std.c **** 
1055:Generated_Source\PSoC4/USBFS_std.c **** /*******************************************************************************
1056:Generated_Source\PSoC4/USBFS_std.c **** * Function Name: USBFS_TerminateEP
ARM GAS  C:\Users\User\AppData\Local\Temp\ccieNkfn.s 			page 38


1057:Generated_Source\PSoC4/USBFS_std.c **** ****************************************************************************//**
1058:Generated_Source\PSoC4/USBFS_std.c **** *
1059:Generated_Source\PSoC4/USBFS_std.c **** *  This function terminates the specified USBFS endpoint.
1060:Generated_Source\PSoC4/USBFS_std.c **** *  This function should be used before endpoint reconfiguration.
1061:Generated_Source\PSoC4/USBFS_std.c **** *
1062:Generated_Source\PSoC4/USBFS_std.c **** *  \param ep Contains the data endpoint number.
1063:Generated_Source\PSoC4/USBFS_std.c **** *
1064:Generated_Source\PSoC4/USBFS_std.c **** *  \reentrant
1065:Generated_Source\PSoC4/USBFS_std.c **** *  No.
1066:Generated_Source\PSoC4/USBFS_std.c **** *
1067:Generated_Source\PSoC4/USBFS_std.c **** * \sideeffect
1068:Generated_Source\PSoC4/USBFS_std.c **** * 
1069:Generated_Source\PSoC4/USBFS_std.c **** * The device responds with a NAK for any transactions on the selected endpoint.
1070:Generated_Source\PSoC4/USBFS_std.c **** *   
1071:Generated_Source\PSoC4/USBFS_std.c **** *******************************************************************************/
1072:Generated_Source\PSoC4/USBFS_std.c **** void USBFS_TerminateEP(uint8 epNumber) 
1073:Generated_Source\PSoC4/USBFS_std.c **** {
 958              		.loc 1 1073 0
 959              		.cfi_startproc
 960              		@ args = 0, pretend = 0, frame = 0
 961              		@ frame_needed = 0, uses_anonymous_args = 0
 962              		@ link register save eliminated.
 963              	.LVL85:
1074:Generated_Source\PSoC4/USBFS_std.c ****     /* Get endpoint number */
1075:Generated_Source\PSoC4/USBFS_std.c ****     epNumber &= USBFS_DIR_UNUSED;
 964              		.loc 1 1075 0
 965 0000 7F23     		movs	r3, #127
 966 0002 1840     		ands	r0, r3
 967              	.LVL86:
1076:Generated_Source\PSoC4/USBFS_std.c **** 
1077:Generated_Source\PSoC4/USBFS_std.c ****     if ((epNumber > USBFS_EP0) && (epNumber < USBFS_MAX_EP))
 968              		.loc 1 1077 0
 969 0004 431E     		subs	r3, r0, #1
 970 0006 DBB2     		uxtb	r3, r3
 971 0008 072B     		cmp	r3, #7
 972 000a 1ED8     		bhi	.L69
1078:Generated_Source\PSoC4/USBFS_std.c ****     {
1079:Generated_Source\PSoC4/USBFS_std.c ****         /* Set the endpoint Halt */
1080:Generated_Source\PSoC4/USBFS_std.c ****         USBFS_EP[epNumber].hwEpState |= USBFS_ENDPOINT_STATUS_HALT;
 973              		.loc 1 1080 0
 974 000c 4200     		lsls	r2, r0, #1
 975 000e 1218     		adds	r2, r2, r0
 976 0010 9300     		lsls	r3, r2, #2
 977 0012 0E4A     		ldr	r2, .L72
 978 0014 D318     		adds	r3, r2, r3
 979 0016 9978     		ldrb	r1, [r3, #2]
 980 0018 0122     		movs	r2, #1
 981 001a 0A43     		orrs	r2, r1
 982 001c D2B2     		uxtb	r2, r2
 983 001e 9A70     		strb	r2, [r3, #2]
1081:Generated_Source\PSoC4/USBFS_std.c **** 
1082:Generated_Source\PSoC4/USBFS_std.c ****         /* Clear the data toggle */
1083:Generated_Source\PSoC4/USBFS_std.c ****         USBFS_EP[epNumber].epToggle = 0u;
 984              		.loc 1 1083 0
 985 0020 0022     		movs	r2, #0
 986 0022 DA70     		strb	r2, [r3, #3]
1084:Generated_Source\PSoC4/USBFS_std.c ****         USBFS_EP[epNumber].apiEpState = USBFS_NO_EVENT_ALLOWED;
ARM GAS  C:\Users\User\AppData\Local\Temp\ccieNkfn.s 			page 39


 987              		.loc 1 1084 0
 988 0024 0232     		adds	r2, r2, #2
 989 0026 5A70     		strb	r2, [r3, #1]
1085:Generated_Source\PSoC4/USBFS_std.c **** 
1086:Generated_Source\PSoC4/USBFS_std.c ****         if ((USBFS_EP[epNumber].addr & USBFS_DIR_IN) != 0u)
 990              		.loc 1 1086 0
 991 0028 1B79     		ldrb	r3, [r3, #4]
 992 002a 5BB2     		sxtb	r3, r3
 993 002c 002B     		cmp	r3, #0
 994 002e 06DA     		bge	.L71
1087:Generated_Source\PSoC4/USBFS_std.c ****         {   
1088:Generated_Source\PSoC4/USBFS_std.c ****             /* IN Endpoint */
1089:Generated_Source\PSoC4/USBFS_std.c ****             USBFS_SIE_EP_BASE.sieEp[epNumber].epCr0 = USBFS_MODE_NAK_IN;
 995              		.loc 1 1089 0
 996 0030 8001     		lsls	r0, r0, #6
 997              	.LVL87:
 998 0032 074B     		ldr	r3, .L72+4
 999 0034 9C46     		mov	ip, r3
 1000 0036 6044     		add	r0, r0, ip
 1001 0038 0C23     		movs	r3, #12
 1002 003a 8360     		str	r3, [r0, #8]
 1003 003c 05E0     		b	.L69
 1004              	.LVL88:
 1005              	.L71:
1090:Generated_Source\PSoC4/USBFS_std.c ****         }
1091:Generated_Source\PSoC4/USBFS_std.c ****         else
1092:Generated_Source\PSoC4/USBFS_std.c ****         {
1093:Generated_Source\PSoC4/USBFS_std.c ****             /* OUT Endpoint */
1094:Generated_Source\PSoC4/USBFS_std.c ****             USBFS_SIE_EP_BASE.sieEp[epNumber].epCr0 = USBFS_MODE_NAK_OUT;
 1006              		.loc 1 1094 0
 1007 003e 8001     		lsls	r0, r0, #6
 1008              	.LVL89:
 1009 0040 034B     		ldr	r3, .L72+4
 1010 0042 9C46     		mov	ip, r3
 1011 0044 6044     		add	r0, r0, ip
 1012 0046 0823     		movs	r3, #8
 1013 0048 8360     		str	r3, [r0, #8]
 1014              	.L69:
1095:Generated_Source\PSoC4/USBFS_std.c ****         }
1096:Generated_Source\PSoC4/USBFS_std.c ****     }
1097:Generated_Source\PSoC4/USBFS_std.c **** }
 1015              		.loc 1 1097 0
 1016              		@ sp needed
 1017 004a 7047     		bx	lr
 1018              	.L73:
 1019              		.align	2
 1020              	.L72:
 1021 004c 00000000 		.word	USBFS_EP
 1022 0050 F0FF2B40 		.word	1076625392
 1023              		.cfi_endproc
 1024              	.LFE9:
 1025              		.size	USBFS_TerminateEP, .-USBFS_TerminateEP
 1026              		.section	.text.USBFS_SetEndpointHalt,"ax",%progbits
 1027              		.align	2
 1028              		.global	USBFS_SetEndpointHalt
 1029              		.code	16
 1030              		.thumb_func
ARM GAS  C:\Users\User\AppData\Local\Temp\ccieNkfn.s 			page 40


 1031              		.type	USBFS_SetEndpointHalt, %function
 1032              	USBFS_SetEndpointHalt:
 1033              	.LFB10:
1098:Generated_Source\PSoC4/USBFS_std.c **** 
1099:Generated_Source\PSoC4/USBFS_std.c **** 
1100:Generated_Source\PSoC4/USBFS_std.c **** /*******************************************************************************
1101:Generated_Source\PSoC4/USBFS_std.c **** * Function Name: USBFS_SetEndpointHalt
1102:Generated_Source\PSoC4/USBFS_std.c **** ****************************************************************************//**
1103:Generated_Source\PSoC4/USBFS_std.c **** *
1104:Generated_Source\PSoC4/USBFS_std.c **** *  This routine handles set endpoint halt.
1105:Generated_Source\PSoC4/USBFS_std.c **** *
1106:Generated_Source\PSoC4/USBFS_std.c **** * \return
1107:Generated_Source\PSoC4/USBFS_std.c **** *  requestHandled.
1108:Generated_Source\PSoC4/USBFS_std.c **** *
1109:Generated_Source\PSoC4/USBFS_std.c **** * \reentrant
1110:Generated_Source\PSoC4/USBFS_std.c **** *  No.
1111:Generated_Source\PSoC4/USBFS_std.c **** *
1112:Generated_Source\PSoC4/USBFS_std.c **** *******************************************************************************/
1113:Generated_Source\PSoC4/USBFS_std.c **** uint8 USBFS_SetEndpointHalt(void) 
1114:Generated_Source\PSoC4/USBFS_std.c **** {
 1034              		.loc 1 1114 0
 1035              		.cfi_startproc
 1036              		@ args = 0, pretend = 0, frame = 0
 1037              		@ frame_needed = 0, uses_anonymous_args = 0
 1038 0000 10B5     		push	{r4, lr}
 1039              		.cfi_def_cfa_offset 8
 1040              		.cfi_offset 4, -8
 1041              		.cfi_offset 14, -4
 1042              	.LVL90:
1115:Generated_Source\PSoC4/USBFS_std.c ****     uint8 requestHandled = USBFS_FALSE;
1116:Generated_Source\PSoC4/USBFS_std.c ****     uint32 ep;
1117:Generated_Source\PSoC4/USBFS_std.c ****     
1118:Generated_Source\PSoC4/USBFS_std.c ****     /* Set endpoint halt */
1119:Generated_Source\PSoC4/USBFS_std.c ****     ep = USBFS_wIndexLoReg & USBFS_DIR_UNUSED;
 1043              		.loc 1 1119 0
 1044 0002 174B     		ldr	r3, .L79
 1045 0004 1B69     		ldr	r3, [r3, #16]
 1046 0006 7F22     		movs	r2, #127
 1047 0008 1340     		ands	r3, r2
 1048              	.LVL91:
1120:Generated_Source\PSoC4/USBFS_std.c **** 
1121:Generated_Source\PSoC4/USBFS_std.c ****     if ((ep > USBFS_EP0) && (ep < USBFS_MAX_EP))
 1049              		.loc 1 1121 0
 1050 000a 5A1E     		subs	r2, r3, #1
 1051 000c 072A     		cmp	r2, #7
 1052 000e 24D8     		bhi	.L78
1122:Generated_Source\PSoC4/USBFS_std.c ****     {
1123:Generated_Source\PSoC4/USBFS_std.c ****         /* Set the endpoint Halt */
1124:Generated_Source\PSoC4/USBFS_std.c ****         USBFS_EP[ep].hwEpState |= (USBFS_ENDPOINT_STATUS_HALT);
 1053              		.loc 1 1124 0
 1054 0010 5900     		lsls	r1, r3, #1
 1055 0012 C918     		adds	r1, r1, r3
 1056 0014 8A00     		lsls	r2, r1, #2
 1057 0016 1349     		ldr	r1, .L79+4
 1058 0018 8A18     		adds	r2, r1, r2
 1059 001a 9078     		ldrb	r0, [r2, #2]
 1060 001c 0121     		movs	r1, #1
ARM GAS  C:\Users\User\AppData\Local\Temp\ccieNkfn.s 			page 41


 1061 001e 0143     		orrs	r1, r0
 1062 0020 C9B2     		uxtb	r1, r1
 1063 0022 9170     		strb	r1, [r2, #2]
1125:Generated_Source\PSoC4/USBFS_std.c **** 
1126:Generated_Source\PSoC4/USBFS_std.c ****         /* Clear the data toggle */
1127:Generated_Source\PSoC4/USBFS_std.c ****         USBFS_EP[ep].epToggle = 0u;
 1064              		.loc 1 1127 0
 1065 0024 0021     		movs	r1, #0
 1066 0026 D170     		strb	r1, [r2, #3]
1128:Generated_Source\PSoC4/USBFS_std.c ****         USBFS_EP[ep].apiEpState |= USBFS_NO_EVENT_ALLOWED;
 1067              		.loc 1 1128 0
 1068 0028 5078     		ldrb	r0, [r2, #1]
 1069 002a 0221     		movs	r1, #2
 1070 002c 0143     		orrs	r1, r0
 1071 002e C9B2     		uxtb	r1, r1
 1072 0030 5170     		strb	r1, [r2, #1]
1129:Generated_Source\PSoC4/USBFS_std.c **** 
1130:Generated_Source\PSoC4/USBFS_std.c ****         if ((USBFS_EP[ep].addr & USBFS_DIR_IN) != 0u)
 1073              		.loc 1 1130 0
 1074 0032 1279     		ldrb	r2, [r2, #4]
 1075 0034 52B2     		sxtb	r2, r2
 1076 0036 002A     		cmp	r2, #0
 1077 0038 06DA     		bge	.L76
1131:Generated_Source\PSoC4/USBFS_std.c ****         {
1132:Generated_Source\PSoC4/USBFS_std.c ****             /* IN Endpoint */
1133:Generated_Source\PSoC4/USBFS_std.c ****             USBFS_SIE_EP_BASE.sieEp[ep].epCr0 = (USBFS_MODE_STALL_DATA_EP | 
 1078              		.loc 1 1133 0
 1079 003a 9B01     		lsls	r3, r3, #6
 1080              	.LVL92:
 1081 003c 0A4A     		ldr	r2, .L79+8
 1082 003e 9446     		mov	ip, r2
 1083 0040 6344     		add	r3, r3, ip
 1084 0042 8D22     		movs	r2, #141
 1085 0044 9A60     		str	r2, [r3, #8]
 1086 0046 05E0     		b	.L77
 1087              	.LVL93:
 1088              	.L76:
1134:Generated_Source\PSoC4/USBFS_std.c ****                                                             USBFS_MODE_ACK_IN);
1135:Generated_Source\PSoC4/USBFS_std.c ****         }
1136:Generated_Source\PSoC4/USBFS_std.c ****         else
1137:Generated_Source\PSoC4/USBFS_std.c ****         {
1138:Generated_Source\PSoC4/USBFS_std.c ****             /* OUT Endpoint */
1139:Generated_Source\PSoC4/USBFS_std.c ****             USBFS_SIE_EP_BASE.sieEp[ep].epCr0 = (USBFS_MODE_STALL_DATA_EP | 
 1089              		.loc 1 1139 0
 1090 0048 9B01     		lsls	r3, r3, #6
 1091              	.LVL94:
 1092 004a 074A     		ldr	r2, .L79+8
 1093 004c 9446     		mov	ip, r2
 1094 004e 6344     		add	r3, r3, ip
 1095 0050 8922     		movs	r2, #137
 1096 0052 9A60     		str	r2, [r3, #8]
 1097              	.L77:
1140:Generated_Source\PSoC4/USBFS_std.c ****                                                             USBFS_MODE_ACK_OUT);
1141:Generated_Source\PSoC4/USBFS_std.c ****         }
1142:Generated_Source\PSoC4/USBFS_std.c ****         requestHandled = USBFS_InitNoDataControlTransfer();
 1098              		.loc 1 1142 0
 1099 0054 FFF7FEFF 		bl	USBFS_InitNoDataControlTransfer
ARM GAS  C:\Users\User\AppData\Local\Temp\ccieNkfn.s 			page 42


 1100              	.LVL95:
 1101 0058 00E0     		b	.L75
 1102              	.LVL96:
 1103              	.L78:
1115:Generated_Source\PSoC4/USBFS_std.c ****     uint32 ep;
 1104              		.loc 1 1115 0
 1105 005a 0020     		movs	r0, #0
 1106              	.LVL97:
 1107              	.L75:
1143:Generated_Source\PSoC4/USBFS_std.c ****     }
1144:Generated_Source\PSoC4/USBFS_std.c **** 
1145:Generated_Source\PSoC4/USBFS_std.c ****     return (requestHandled);
1146:Generated_Source\PSoC4/USBFS_std.c **** }
 1108              		.loc 1 1146 0
 1109              		@ sp needed
 1110 005c 10BD     		pop	{r4, pc}
 1111              	.L80:
 1112 005e C046     		.align	2
 1113              	.L79:
 1114 0060 00002C40 		.word	1076625408
 1115 0064 00000000 		.word	USBFS_EP
 1116 0068 F0FF2B40 		.word	1076625392
 1117              		.cfi_endproc
 1118              	.LFE10:
 1119              		.size	USBFS_SetEndpointHalt, .-USBFS_SetEndpointHalt
 1120              		.section	.text.USBFS_ClearEndpointHalt,"ax",%progbits
 1121              		.align	2
 1122              		.global	USBFS_ClearEndpointHalt
 1123              		.code	16
 1124              		.thumb_func
 1125              		.type	USBFS_ClearEndpointHalt, %function
 1126              	USBFS_ClearEndpointHalt:
 1127              	.LFB11:
1147:Generated_Source\PSoC4/USBFS_std.c **** 
1148:Generated_Source\PSoC4/USBFS_std.c **** 
1149:Generated_Source\PSoC4/USBFS_std.c **** /*******************************************************************************
1150:Generated_Source\PSoC4/USBFS_std.c **** * Function Name: USBFS_ClearEndpointHalt
1151:Generated_Source\PSoC4/USBFS_std.c **** ****************************************************************************//**
1152:Generated_Source\PSoC4/USBFS_std.c **** *
1153:Generated_Source\PSoC4/USBFS_std.c **** *  This routine handles clear endpoint halt.
1154:Generated_Source\PSoC4/USBFS_std.c **** *
1155:Generated_Source\PSoC4/USBFS_std.c **** * \return
1156:Generated_Source\PSoC4/USBFS_std.c **** *  requestHandled.
1157:Generated_Source\PSoC4/USBFS_std.c **** *
1158:Generated_Source\PSoC4/USBFS_std.c **** * \reentrant
1159:Generated_Source\PSoC4/USBFS_std.c **** *  No.
1160:Generated_Source\PSoC4/USBFS_std.c **** *
1161:Generated_Source\PSoC4/USBFS_std.c **** *******************************************************************************/
1162:Generated_Source\PSoC4/USBFS_std.c **** uint8 USBFS_ClearEndpointHalt(void) 
1163:Generated_Source\PSoC4/USBFS_std.c **** {
 1128              		.loc 1 1163 0
 1129              		.cfi_startproc
 1130              		@ args = 0, pretend = 0, frame = 0
 1131              		@ frame_needed = 0, uses_anonymous_args = 0
 1132 0000 70B5     		push	{r4, r5, r6, lr}
 1133              		.cfi_def_cfa_offset 16
 1134              		.cfi_offset 4, -16
ARM GAS  C:\Users\User\AppData\Local\Temp\ccieNkfn.s 			page 43


 1135              		.cfi_offset 5, -12
 1136              		.cfi_offset 6, -8
 1137              		.cfi_offset 14, -4
 1138              	.LVL98:
1164:Generated_Source\PSoC4/USBFS_std.c ****     uint8 requestHandled = USBFS_FALSE;
1165:Generated_Source\PSoC4/USBFS_std.c ****     uint32 ep;
1166:Generated_Source\PSoC4/USBFS_std.c **** 
1167:Generated_Source\PSoC4/USBFS_std.c ****     /* Clear endpoint halt */
1168:Generated_Source\PSoC4/USBFS_std.c ****     ep = USBFS_wIndexLoReg & USBFS_DIR_UNUSED;
 1139              		.loc 1 1168 0
 1140 0002 284B     		ldr	r3, .L88
 1141 0004 1B69     		ldr	r3, [r3, #16]
 1142 0006 7F22     		movs	r2, #127
 1143 0008 1340     		ands	r3, r2
 1144              	.LVL99:
1169:Generated_Source\PSoC4/USBFS_std.c **** 
1170:Generated_Source\PSoC4/USBFS_std.c ****     if ((ep > USBFS_EP0) && (ep < USBFS_MAX_EP))
 1145              		.loc 1 1170 0
 1146 000a 5A1E     		subs	r2, r3, #1
 1147 000c 072A     		cmp	r2, #7
 1148 000e 46D8     		bhi	.L87
1171:Generated_Source\PSoC4/USBFS_std.c ****     {
1172:Generated_Source\PSoC4/USBFS_std.c ****         /* Clear the endpoint Halt */
1173:Generated_Source\PSoC4/USBFS_std.c ****         USBFS_EP[ep].hwEpState &= (uint8) ~USBFS_ENDPOINT_STATUS_HALT;
 1149              		.loc 1 1173 0
 1150 0010 5900     		lsls	r1, r3, #1
 1151 0012 C918     		adds	r1, r1, r3
 1152 0014 8A00     		lsls	r2, r1, #2
 1153 0016 2449     		ldr	r1, .L88+4
 1154 0018 8A18     		adds	r2, r1, r2
 1155 001a 9178     		ldrb	r1, [r2, #2]
 1156 001c 0120     		movs	r0, #1
 1157 001e 8143     		bics	r1, r0
 1158 0020 9170     		strb	r1, [r2, #2]
1174:Generated_Source\PSoC4/USBFS_std.c **** 
1175:Generated_Source\PSoC4/USBFS_std.c ****         /* Clear the data toggle */
1176:Generated_Source\PSoC4/USBFS_std.c ****         USBFS_EP[ep].epToggle = 0u;
 1159              		.loc 1 1176 0
 1160 0022 0021     		movs	r1, #0
 1161 0024 D170     		strb	r1, [r2, #3]
1177:Generated_Source\PSoC4/USBFS_std.c ****         
1178:Generated_Source\PSoC4/USBFS_std.c ****         /* Clear toggle bit for already armed packet */
1179:Generated_Source\PSoC4/USBFS_std.c ****         USBFS_SIE_EP_BASE.sieEp[ep].epCnt0 &= (uint32) ~(uint32)USBFS_EPX_CNT_DATA_TOGGLE;
 1162              		.loc 1 1179 0
 1163 0026 2148     		ldr	r0, .L88+8
 1164 0028 9C01     		lsls	r4, r3, #6
 1165 002a 2158     		ldr	r1, [r4, r0]
 1166 002c 8025     		movs	r5, #128
 1167 002e A943     		bics	r1, r5
 1168 0030 2150     		str	r1, [r4, r0]
1180:Generated_Source\PSoC4/USBFS_std.c ****         
1181:Generated_Source\PSoC4/USBFS_std.c ****         /* Return API State as it was defined before */
1182:Generated_Source\PSoC4/USBFS_std.c ****         USBFS_EP[ep].apiEpState &= (uint8) ~USBFS_NO_EVENT_ALLOWED;
 1169              		.loc 1 1182 0
 1170 0032 5178     		ldrb	r1, [r2, #1]
 1171 0034 0220     		movs	r0, #2
 1172 0036 8143     		bics	r1, r0
ARM GAS  C:\Users\User\AppData\Local\Temp\ccieNkfn.s 			page 44


 1173 0038 5170     		strb	r1, [r2, #1]
1183:Generated_Source\PSoC4/USBFS_std.c **** 
1184:Generated_Source\PSoC4/USBFS_std.c ****         if ((USBFS_EP[ep].addr & USBFS_DIR_IN) != 0u)
 1174              		.loc 1 1184 0
 1175 003a 1279     		ldrb	r2, [r2, #4]
 1176 003c 52B2     		sxtb	r2, r2
 1177 003e 002A     		cmp	r2, #0
 1178 0040 15DA     		bge	.L83
1185:Generated_Source\PSoC4/USBFS_std.c ****         {
1186:Generated_Source\PSoC4/USBFS_std.c ****             /* IN Endpoint */
1187:Generated_Source\PSoC4/USBFS_std.c ****             if(USBFS_EP[ep].apiEpState == USBFS_IN_BUFFER_EMPTY)
 1179              		.loc 1 1187 0
 1180 0042 5900     		lsls	r1, r3, #1
 1181 0044 C918     		adds	r1, r1, r3
 1182 0046 8A00     		lsls	r2, r1, #2
 1183 0048 1749     		ldr	r1, .L88+4
 1184 004a 8A18     		adds	r2, r1, r2
 1185 004c 5278     		ldrb	r2, [r2, #1]
 1186 004e 012A     		cmp	r2, #1
 1187 0050 06D1     		bne	.L84
1188:Generated_Source\PSoC4/USBFS_std.c ****             {       
1189:Generated_Source\PSoC4/USBFS_std.c ****                 /* Wait for next packet from application */
1190:Generated_Source\PSoC4/USBFS_std.c ****                 USBFS_SIE_EP_BASE.sieEp[ep].epCr0 = USBFS_MODE_NAK_IN;
 1188              		.loc 1 1190 0
 1189 0052 2300     		movs	r3, r4
 1190              	.LVL100:
 1191 0054 154A     		ldr	r2, .L88+8
 1192 0056 9446     		mov	ip, r2
 1193 0058 6344     		add	r3, r3, ip
 1194 005a 0C22     		movs	r2, #12
 1195 005c 9A60     		str	r2, [r3, #8]
 1196 005e 1BE0     		b	.L85
 1197              	.LVL101:
 1198              	.L84:
1191:Generated_Source\PSoC4/USBFS_std.c ****             }
1192:Generated_Source\PSoC4/USBFS_std.c ****             else    /* Continue armed transfer */
1193:Generated_Source\PSoC4/USBFS_std.c ****             {
1194:Generated_Source\PSoC4/USBFS_std.c ****                 USBFS_SIE_EP_BASE.sieEp[ep].epCr0 = USBFS_MODE_ACK_IN;
 1199              		.loc 1 1194 0
 1200 0060 9B01     		lsls	r3, r3, #6
 1201              	.LVL102:
 1202 0062 124A     		ldr	r2, .L88+8
 1203 0064 9446     		mov	ip, r2
 1204 0066 6344     		add	r3, r3, ip
 1205 0068 0D22     		movs	r2, #13
 1206 006a 9A60     		str	r2, [r3, #8]
 1207 006c 14E0     		b	.L85
 1208              	.LVL103:
 1209              	.L83:
1195:Generated_Source\PSoC4/USBFS_std.c ****             }
1196:Generated_Source\PSoC4/USBFS_std.c ****         }
1197:Generated_Source\PSoC4/USBFS_std.c ****         else
1198:Generated_Source\PSoC4/USBFS_std.c ****         {
1199:Generated_Source\PSoC4/USBFS_std.c ****             /* OUT Endpoint */
1200:Generated_Source\PSoC4/USBFS_std.c ****             if (USBFS_EP[ep].apiEpState == USBFS_OUT_BUFFER_FULL)
 1210              		.loc 1 1200 0
 1211 006e 5900     		lsls	r1, r3, #1
ARM GAS  C:\Users\User\AppData\Local\Temp\ccieNkfn.s 			page 45


 1212 0070 C918     		adds	r1, r1, r3
 1213 0072 8A00     		lsls	r2, r1, #2
 1214 0074 0C49     		ldr	r1, .L88+4
 1215 0076 8A18     		adds	r2, r1, r2
 1216 0078 5278     		ldrb	r2, [r2, #1]
 1217 007a 012A     		cmp	r2, #1
 1218 007c 06D1     		bne	.L86
1201:Generated_Source\PSoC4/USBFS_std.c ****             {       
1202:Generated_Source\PSoC4/USBFS_std.c ****                 /* Allow application to read full buffer */
1203:Generated_Source\PSoC4/USBFS_std.c ****                 USBFS_SIE_EP_BASE.sieEp[ep].epCr0 = USBFS_MODE_NAK_OUT;
 1219              		.loc 1 1203 0
 1220 007e 9B01     		lsls	r3, r3, #6
 1221              	.LVL104:
 1222 0080 0A4A     		ldr	r2, .L88+8
 1223 0082 9446     		mov	ip, r2
 1224 0084 6344     		add	r3, r3, ip
 1225 0086 0822     		movs	r2, #8
 1226 0088 9A60     		str	r2, [r3, #8]
 1227 008a 05E0     		b	.L85
 1228              	.LVL105:
 1229              	.L86:
1204:Generated_Source\PSoC4/USBFS_std.c ****             }
1205:Generated_Source\PSoC4/USBFS_std.c ****             else    /* Mark endpoint as empty, so it will be reloaded */
1206:Generated_Source\PSoC4/USBFS_std.c ****             {
1207:Generated_Source\PSoC4/USBFS_std.c ****                 USBFS_SIE_EP_BASE.sieEp[ep].epCr0 = USBFS_MODE_ACK_OUT;
 1230              		.loc 1 1207 0
 1231 008c 9B01     		lsls	r3, r3, #6
 1232              	.LVL106:
 1233 008e 074A     		ldr	r2, .L88+8
 1234 0090 9446     		mov	ip, r2
 1235 0092 6344     		add	r3, r3, ip
 1236 0094 0922     		movs	r2, #9
 1237 0096 9A60     		str	r2, [r3, #8]
 1238              	.L85:
1208:Generated_Source\PSoC4/USBFS_std.c ****             }
1209:Generated_Source\PSoC4/USBFS_std.c ****         }
1210:Generated_Source\PSoC4/USBFS_std.c ****         
1211:Generated_Source\PSoC4/USBFS_std.c ****         requestHandled = USBFS_InitNoDataControlTransfer();
 1239              		.loc 1 1211 0
 1240 0098 FFF7FEFF 		bl	USBFS_InitNoDataControlTransfer
 1241              	.LVL107:
 1242 009c 00E0     		b	.L82
 1243              	.LVL108:
 1244              	.L87:
1164:Generated_Source\PSoC4/USBFS_std.c ****     uint32 ep;
 1245              		.loc 1 1164 0
 1246 009e 0020     		movs	r0, #0
 1247              	.LVL109:
 1248              	.L82:
1212:Generated_Source\PSoC4/USBFS_std.c ****     }
1213:Generated_Source\PSoC4/USBFS_std.c **** 
1214:Generated_Source\PSoC4/USBFS_std.c ****     return(requestHandled);
1215:Generated_Source\PSoC4/USBFS_std.c **** }
 1249              		.loc 1 1215 0
 1250              		@ sp needed
 1251 00a0 70BD     		pop	{r4, r5, r6, pc}
 1252              	.L89:
ARM GAS  C:\Users\User\AppData\Local\Temp\ccieNkfn.s 			page 46


 1253 00a2 C046     		.align	2
 1254              	.L88:
 1255 00a4 00002C40 		.word	1076625408
 1256 00a8 00000000 		.word	USBFS_EP
 1257 00ac F0FF2B40 		.word	1076625392
 1258              		.cfi_endproc
 1259              	.LFE11:
 1260              		.size	USBFS_ClearEndpointHalt, .-USBFS_ClearEndpointHalt
 1261              		.section	.text.USBFS_ValidateAlternateSetting,"ax",%progbits
 1262              		.align	2
 1263              		.global	USBFS_ValidateAlternateSetting
 1264              		.code	16
 1265              		.thumb_func
 1266              		.type	USBFS_ValidateAlternateSetting, %function
 1267              	USBFS_ValidateAlternateSetting:
 1268              	.LFB12:
1216:Generated_Source\PSoC4/USBFS_std.c **** 
1217:Generated_Source\PSoC4/USBFS_std.c **** 
1218:Generated_Source\PSoC4/USBFS_std.c **** /*******************************************************************************
1219:Generated_Source\PSoC4/USBFS_std.c **** * Function Name: USBFS_ValidateAlternateSetting
1220:Generated_Source\PSoC4/USBFS_std.c **** ****************************************************************************//**
1221:Generated_Source\PSoC4/USBFS_std.c **** *
1222:Generated_Source\PSoC4/USBFS_std.c **** *  Validates (and records) a SET INTERFACE request.
1223:Generated_Source\PSoC4/USBFS_std.c **** *
1224:Generated_Source\PSoC4/USBFS_std.c **** * \return
1225:Generated_Source\PSoC4/USBFS_std.c **** *  requestHandled.
1226:Generated_Source\PSoC4/USBFS_std.c **** *
1227:Generated_Source\PSoC4/USBFS_std.c **** * \reentrant
1228:Generated_Source\PSoC4/USBFS_std.c **** *  No.
1229:Generated_Source\PSoC4/USBFS_std.c **** *
1230:Generated_Source\PSoC4/USBFS_std.c **** *******************************************************************************/
1231:Generated_Source\PSoC4/USBFS_std.c **** uint8 USBFS_ValidateAlternateSetting(void) 
1232:Generated_Source\PSoC4/USBFS_std.c **** {
 1269              		.loc 1 1232 0
 1270              		.cfi_startproc
 1271              		@ args = 0, pretend = 0, frame = 0
 1272              		@ frame_needed = 0, uses_anonymous_args = 0
 1273 0000 70B5     		push	{r4, r5, r6, lr}
 1274              		.cfi_def_cfa_offset 16
 1275              		.cfi_offset 4, -16
 1276              		.cfi_offset 5, -12
 1277              		.cfi_offset 6, -8
 1278              		.cfi_offset 14, -4
 1279              	.LVL110:
1233:Generated_Source\PSoC4/USBFS_std.c ****     uint8 requestHandled = USBFS_FALSE;
1234:Generated_Source\PSoC4/USBFS_std.c ****     
1235:Generated_Source\PSoC4/USBFS_std.c ****     uint8 interfaceNum;
1236:Generated_Source\PSoC4/USBFS_std.c ****     uint8 curInterfacesNum;
1237:Generated_Source\PSoC4/USBFS_std.c ****     const T_USBFS_LUT CYCODE *pTmp;
1238:Generated_Source\PSoC4/USBFS_std.c ****     
1239:Generated_Source\PSoC4/USBFS_std.c ****     /* Get interface number from the request. */
1240:Generated_Source\PSoC4/USBFS_std.c ****     interfaceNum = (uint8) USBFS_wIndexLoReg;
 1280              		.loc 1 1240 0
 1281 0002 0F4B     		ldr	r3, .L94
 1282 0004 1C69     		ldr	r4, [r3, #16]
 1283 0006 E5B2     		uxtb	r5, r4
 1284              	.LVL111:
ARM GAS  C:\Users\User\AppData\Local\Temp\ccieNkfn.s 			page 47


1241:Generated_Source\PSoC4/USBFS_std.c ****     
1242:Generated_Source\PSoC4/USBFS_std.c ****     /* Get number of interfaces for current configuration. */
1243:Generated_Source\PSoC4/USBFS_std.c ****     pTmp = USBFS_GetConfigTablePtr(USBFS_configuration - 1u);
 1285              		.loc 1 1243 0
 1286 0008 0E4B     		ldr	r3, .L94+4
 1287 000a 1878     		ldrb	r0, [r3]
 1288 000c 0138     		subs	r0, r0, #1
 1289 000e C0B2     		uxtb	r0, r0
 1290 0010 FFF7FEFF 		bl	USBFS_GetConfigTablePtr
 1291              	.LVL112:
1244:Generated_Source\PSoC4/USBFS_std.c ****     curInterfacesNum  = ((const uint8 *) pTmp->p_list)[USBFS_CONFIG_DESCR_NUM_INTERFACES];
 1292              		.loc 1 1244 0
 1293 0014 4368     		ldr	r3, [r0, #4]
 1294 0016 1B79     		ldrb	r3, [r3, #4]
 1295              	.LVL113:
1245:Generated_Source\PSoC4/USBFS_std.c **** 
1246:Generated_Source\PSoC4/USBFS_std.c ****     /* Validate that interface number is within range. */
1247:Generated_Source\PSoC4/USBFS_std.c ****     if ((interfaceNum <= curInterfacesNum) || (interfaceNum <= USBFS_MAX_INTERFACES_NUMBER))
 1296              		.loc 1 1247 0
 1297 0018 9D42     		cmp	r5, r3
 1298 001a 01D9     		bls	.L91
 1299              		.loc 1 1247 0 is_stmt 0 discriminator 1
 1300 001c 012D     		cmp	r5, #1
 1301 001e 0CD8     		bhi	.L93
 1302              	.L91:
1248:Generated_Source\PSoC4/USBFS_std.c ****     {
1249:Generated_Source\PSoC4/USBFS_std.c ****         /* Save current and new alternate settings (come with request) to make 
1250:Generated_Source\PSoC4/USBFS_std.c ****         * desicion about following endpoint re-configuration.
1251:Generated_Source\PSoC4/USBFS_std.c ****         */
1252:Generated_Source\PSoC4/USBFS_std.c ****         USBFS_interfaceSettingLast[interfaceNum] = USBFS_interfaceSetting[interfaceNum];
 1303              		.loc 1 1252 0 is_stmt 1
 1304 0020 FF23     		movs	r3, #255
 1305              	.LVL114:
 1306 0022 2340     		ands	r3, r4
 1307 0024 0849     		ldr	r1, .L94+8
 1308 0026 CA5C     		ldrb	r2, [r1, r3]
 1309 0028 D2B2     		uxtb	r2, r2
 1310 002a 0848     		ldr	r0, .L94+12
 1311              	.LVL115:
 1312 002c C254     		strb	r2, [r0, r3]
1253:Generated_Source\PSoC4/USBFS_std.c ****         USBFS_interfaceSetting[interfaceNum]     = (uint8) USBFS_wValueLoReg;
 1313              		.loc 1 1253 0
 1314 002e 044A     		ldr	r2, .L94
 1315 0030 9268     		ldr	r2, [r2, #8]
 1316 0032 D2B2     		uxtb	r2, r2
 1317 0034 CA54     		strb	r2, [r1, r3]
 1318              	.LVL116:
1254:Generated_Source\PSoC4/USBFS_std.c ****         
1255:Generated_Source\PSoC4/USBFS_std.c ****         requestHandled = USBFS_TRUE;
 1319              		.loc 1 1255 0
 1320 0036 0120     		movs	r0, #1
 1321 0038 00E0     		b	.L92
 1322              	.LVL117:
 1323              	.L93:
1233:Generated_Source\PSoC4/USBFS_std.c ****     
 1324              		.loc 1 1233 0
 1325 003a 0020     		movs	r0, #0
ARM GAS  C:\Users\User\AppData\Local\Temp\ccieNkfn.s 			page 48


 1326              	.LVL118:
 1327              	.L92:
1256:Generated_Source\PSoC4/USBFS_std.c ****     }
1257:Generated_Source\PSoC4/USBFS_std.c **** 
1258:Generated_Source\PSoC4/USBFS_std.c ****     return (requestHandled);
1259:Generated_Source\PSoC4/USBFS_std.c **** }
 1328              		.loc 1 1259 0
 1329              		@ sp needed
 1330              	.LVL119:
 1331 003c 70BD     		pop	{r4, r5, r6, pc}
 1332              	.L95:
 1333 003e C046     		.align	2
 1334              	.L94:
 1335 0040 00002C40 		.word	1076625408
 1336 0044 00000000 		.word	USBFS_configuration
 1337 0048 00000000 		.word	USBFS_interfaceSetting
 1338 004c 00000000 		.word	USBFS_interfaceSettingLast
 1339              		.cfi_endproc
 1340              	.LFE12:
 1341              		.size	USBFS_ValidateAlternateSetting, .-USBFS_ValidateAlternateSetting
 1342              		.section	.text.USBFS_HandleStandardRqst,"ax",%progbits
 1343              		.align	2
 1344              		.global	USBFS_HandleStandardRqst
 1345              		.code	16
 1346              		.thumb_func
 1347              		.type	USBFS_HandleStandardRqst, %function
 1348              	USBFS_HandleStandardRqst:
 1349              	.LFB1:
  85:Generated_Source\PSoC4/USBFS_std.c ****     uint8 requestHandled = USBFS_FALSE;
 1350              		.loc 1 85 0
 1351              		.cfi_startproc
 1352              		@ args = 0, pretend = 0, frame = 0
 1353              		@ frame_needed = 0, uses_anonymous_args = 0
 1354 0000 10B5     		push	{r4, lr}
 1355              		.cfi_def_cfa_offset 8
 1356              		.cfi_offset 4, -8
 1357              		.cfi_offset 14, -4
 1358              	.LVL120:
  89:Generated_Source\PSoC4/USBFS_std.c **** 
 1359              		.loc 1 89 0
 1360 0002 AA4B     		ldr	r3, .L149
 1361 0004 1B68     		ldr	r3, [r3]
 1362              	.LVL121:
 102:Generated_Source\PSoC4/USBFS_std.c **** 
 1363              		.loc 1 102 0
 1364 0006 0021     		movs	r1, #0
 1365 0008 A94A     		ldr	r2, .L149+4
 1366 000a 1180     		strh	r1, [r2]
 104:Generated_Source\PSoC4/USBFS_std.c ****     {
 1367              		.loc 1 104 0
 1368 000c 1A06     		lsls	r2, r3, #24
 1369 000e 00D4     		bmi	.LCB1394
 1370 0010 90E0     		b	.L97	@long jump
 1371              	.LCB1394:
 107:Generated_Source\PSoC4/USBFS_std.c ****         {
 1372              		.loc 1 107 0
 1373 0012 A64A     		ldr	r2, .L149
ARM GAS  C:\Users\User\AppData\Local\Temp\ccieNkfn.s 			page 49


 1374 0014 5268     		ldr	r2, [r2, #4]
 1375 0016 062A     		cmp	r2, #6
 1376 0018 08D0     		beq	.L99
 1377 001a 02D8     		bhi	.L100
 1378 001c 002A     		cmp	r2, #0
 1379 001e 4DD0     		beq	.L101
 1380 0020 26E1     		b	.L129
 1381              	.L100:
 1382 0022 082A     		cmp	r2, #8
 1383 0024 73D0     		beq	.L102
 1384 0026 0A2A     		cmp	r2, #10
 1385 0028 79D0     		beq	.L103
 1386 002a 21E1     		b	.L129
 1387              	.L99:
 110:Generated_Source\PSoC4/USBFS_std.c ****                 {
 1388              		.loc 1 110 0
 1389 002c 9F4B     		ldr	r3, .L149
 1390              	.LVL122:
 1391 002e DB68     		ldr	r3, [r3, #12]
 1392 0030 012B     		cmp	r3, #1
 1393 0032 09D1     		bne	.L104
 112:Generated_Source\PSoC4/USBFS_std.c ****                     USBFS_currentTD.pData = (volatile uint8 *)pTmp->p_list;
 1394              		.loc 1 112 0
 1395 0034 FFF7FEFF 		bl	USBFS_GetDeviceTablePtr
 1396              	.LVL123:
 113:Generated_Source\PSoC4/USBFS_std.c ****                     USBFS_currentTD.count = USBFS_DEVICE_DESCR_LENGTH;
 1397              		.loc 1 113 0
 1398 0038 4268     		ldr	r2, [r0, #4]
 1399 003a 9D4B     		ldr	r3, .L149+4
 1400 003c 5A60     		str	r2, [r3, #4]
 114:Generated_Source\PSoC4/USBFS_std.c ****                     
 1401              		.loc 1 114 0
 1402 003e 1222     		movs	r2, #18
 1403 0040 1A80     		strh	r2, [r3]
 116:Generated_Source\PSoC4/USBFS_std.c ****                 }
 1404              		.loc 1 116 0
 1405 0042 FFF7FEFF 		bl	USBFS_InitControlRead
 1406              	.LVL124:
 1407 0046 30E1     		b	.L98
 1408              	.LVL125:
 1409              	.L104:
 118:Generated_Source\PSoC4/USBFS_std.c ****                 {
 1410              		.loc 1 118 0
 1411 0048 984B     		ldr	r3, .L149
 1412 004a DB68     		ldr	r3, [r3, #12]
 1413 004c 022B     		cmp	r3, #2
 1414 004e 14D1     		bne	.L105
 120:Generated_Source\PSoC4/USBFS_std.c ****                     
 1415              		.loc 1 120 0
 1416 0050 964B     		ldr	r3, .L149
 1417 0052 9868     		ldr	r0, [r3, #8]
 1418 0054 C0B2     		uxtb	r0, r0
 1419 0056 FFF7FEFF 		bl	USBFS_GetConfigTablePtr
 1420              	.LVL126:
 123:Generated_Source\PSoC4/USBFS_std.c ****                     {
 1421              		.loc 1 123 0
 1422 005a 0028     		cmp	r0, #0
ARM GAS  C:\Users\User\AppData\Local\Temp\ccieNkfn.s 			page 50


 1423 005c 00D1     		bne	.LCB1449
 1424 005e 09E1     		b	.L130	@long jump
 1425              	.LCB1449:
 125:Generated_Source\PSoC4/USBFS_std.c ****                         USBFS_currentTD.count = (uint16)((uint16)(USBFS_currentTD.pData)[USBFS_CONF
 1426              		.loc 1 125 0
 1427 0060 4368     		ldr	r3, [r0, #4]
 1428 0062 934A     		ldr	r2, .L149+4
 1429 0064 5360     		str	r3, [r2, #4]
 126:Generated_Source\PSoC4/USBFS_std.c ****                                                                             (USBFS_currentTD.pData)
 1430              		.loc 1 126 0
 1431 0066 5368     		ldr	r3, [r2, #4]
 1432 0068 DB78     		ldrb	r3, [r3, #3]
 1433 006a 1B02     		lsls	r3, r3, #8
 127:Generated_Source\PSoC4/USBFS_std.c ****                         requestHandled  = USBFS_InitControlRead();
 1434              		.loc 1 127 0
 1435 006c 5168     		ldr	r1, [r2, #4]
 1436 006e 8978     		ldrb	r1, [r1, #2]
 126:Generated_Source\PSoC4/USBFS_std.c ****                                                                             (USBFS_currentTD.pData)
 1437              		.loc 1 126 0
 1438 0070 0B43     		orrs	r3, r1
 1439 0072 1380     		strh	r3, [r2]
 128:Generated_Source\PSoC4/USBFS_std.c ****                     }
 1440              		.loc 1 128 0
 1441 0074 FFF7FEFF 		bl	USBFS_InitControlRead
 1442              	.LVL127:
 1443 0078 17E1     		b	.L98
 1444              	.LVL128:
 1445              	.L105:
 149:Generated_Source\PSoC4/USBFS_std.c ****                 {
 1446              		.loc 1 149 0
 1447 007a 8C4B     		ldr	r3, .L149
 1448 007c DB68     		ldr	r3, [r3, #12]
 1449 007e 032B     		cmp	r3, #3
 1450 0080 05D0     		beq	.L131
 1451 0082 18E0     		b	.L145
 1452              	.LVL129:
 1453              	.L109:
 159:Generated_Source\PSoC4/USBFS_std.c ****                         /* Move to next string descriptor */
 1454              		.loc 1 159 0
 1455 0084 1178     		ldrb	r1, [r2]
 1456              	.LVL130:
 161:Generated_Source\PSoC4/USBFS_std.c ****                         nStr++;
 1457              		.loc 1 161 0
 1458 0086 5218     		adds	r2, r2, r1
 1459              	.LVL131:
 162:Generated_Source\PSoC4/USBFS_std.c ****                     }
 1460              		.loc 1 162 0
 1461 0088 0133     		adds	r3, r3, #1
 1462              	.LVL132:
 1463 008a DBB2     		uxtb	r3, r3
 1464              	.LVL133:
 1465 008c 01E0     		b	.L106
 1466              	.LVL134:
 1467              	.L131:
 1468 008e 0023     		movs	r3, #0
 1469 0090 884A     		ldr	r2, .L149+8
 1470              	.LVL135:
ARM GAS  C:\Users\User\AppData\Local\Temp\ccieNkfn.s 			page 51


 1471              	.L106:
 156:Generated_Source\PSoC4/USBFS_std.c ****                     {
 1472              		.loc 1 156 0
 1473 0092 8649     		ldr	r1, .L149
 1474 0094 8968     		ldr	r1, [r1, #8]
 1475 0096 9942     		cmp	r1, r3
 1476 0098 02D9     		bls	.L108
 156:Generated_Source\PSoC4/USBFS_std.c ****                     {
 1477              		.loc 1 156 0 is_stmt 0 discriminator 1
 1478 009a 1178     		ldrb	r1, [r2]
 1479 009c 0029     		cmp	r1, #0
 1480 009e F1D1     		bne	.L109
 1481              	.L108:
 199:Generated_Source\PSoC4/USBFS_std.c ****                     {
 1482              		.loc 1 199 0 is_stmt 1
 1483 00a0 1378     		ldrb	r3, [r2]
 1484              	.LVL136:
 1485 00a2 002B     		cmp	r3, #0
 1486 00a4 00D1     		bne	.LCB1521
 1487 00a6 E7E0     		b	.L132	@long jump
 1488              	.LCB1521:
 201:Generated_Source\PSoC4/USBFS_std.c ****                         USBFS_currentTD.pData = pStr;
 1489              		.loc 1 201 0
 1490 00a8 1378     		ldrb	r3, [r2]
 1491 00aa 8149     		ldr	r1, .L149+4
 1492 00ac 0B80     		strh	r3, [r1]
 202:Generated_Source\PSoC4/USBFS_std.c ****                         requestHandled  = USBFS_InitControlRead();
 1493              		.loc 1 202 0
 1494 00ae 4A60     		str	r2, [r1, #4]
 203:Generated_Source\PSoC4/USBFS_std.c ****                     }
 1495              		.loc 1 203 0
 1496 00b0 FFF7FEFF 		bl	USBFS_InitControlRead
 1497              	.LVL137:
 1498 00b4 F9E0     		b	.L98
 1499              	.LVL138:
 1500              	.L145:
 209:Generated_Source\PSoC4/USBFS_std.c ****                 }
 1501              		.loc 1 209 0
 1502 00b6 FFF7FEFF 		bl	USBFS_DispatchClassRqst
 1503              	.LVL139:
 1504 00ba F6E0     		b	.L98
 1505              	.LVL140:
 1506              	.L101:
 214:Generated_Source\PSoC4/USBFS_std.c ****                 {
 1507              		.loc 1 214 0
 1508 00bc 0322     		movs	r2, #3
 1509 00be 1340     		ands	r3, r2
 1510              	.LVL141:
 1511 00c0 17D0     		beq	.L110
 1512 00c2 022B     		cmp	r3, #2
 1513 00c4 00D0     		beq	.LCB1553
 1514 00c6 D9E0     		b	.L146	@long jump
 1515              	.LCB1553:
 217:Generated_Source\PSoC4/USBFS_std.c ****                         USBFS_tBuffer[0u]     = USBFS_EP[USBFS_wIndexLoReg & USBFS_DIR_UNUSED].hwEp
 1516              		.loc 1 217 0
 1517 00c8 7949     		ldr	r1, .L149+4
 1518 00ca 0B80     		strh	r3, [r1]
ARM GAS  C:\Users\User\AppData\Local\Temp\ccieNkfn.s 			page 52


 218:Generated_Source\PSoC4/USBFS_std.c ****                         USBFS_tBuffer[1u]     = 0u;
 1519              		.loc 1 218 0
 1520 00cc 774B     		ldr	r3, .L149
 1521 00ce 1B69     		ldr	r3, [r3, #16]
 1522 00d0 7C32     		adds	r2, r2, #124
 1523 00d2 1340     		ands	r3, r2
 1524 00d4 5A00     		lsls	r2, r3, #1
 1525 00d6 D318     		adds	r3, r2, r3
 1526 00d8 9A00     		lsls	r2, r3, #2
 1527 00da 774B     		ldr	r3, .L149+12
 1528 00dc 9A18     		adds	r2, r3, r2
 1529 00de 9278     		ldrb	r2, [r2, #2]
 1530 00e0 D2B2     		uxtb	r2, r2
 1531 00e2 764B     		ldr	r3, .L149+16
 1532 00e4 1A70     		strb	r2, [r3]
 219:Generated_Source\PSoC4/USBFS_std.c ****                         USBFS_currentTD.pData = &USBFS_tBuffer[0u];
 1533              		.loc 1 219 0
 1534 00e6 0022     		movs	r2, #0
 1535 00e8 5A70     		strb	r2, [r3, #1]
 220:Generated_Source\PSoC4/USBFS_std.c ****                         
 1536              		.loc 1 220 0
 1537 00ea 4B60     		str	r3, [r1, #4]
 222:Generated_Source\PSoC4/USBFS_std.c ****                         break;
 1538              		.loc 1 222 0
 1539 00ec FFF7FEFF 		bl	USBFS_InitControlRead
 1540              	.LVL142:
 223:Generated_Source\PSoC4/USBFS_std.c ****                     case USBFS_RQST_RCPT_DEV:
 1541              		.loc 1 223 0
 1542 00f0 DBE0     		b	.L98
 1543              	.LVL143:
 1544              	.L110:
 225:Generated_Source\PSoC4/USBFS_std.c ****                         USBFS_tBuffer[0u]     = USBFS_deviceStatus;
 1545              		.loc 1 225 0
 1546 00f2 6F49     		ldr	r1, .L149+4
 1547 00f4 0223     		movs	r3, #2
 1548 00f6 0B80     		strh	r3, [r1]
 226:Generated_Source\PSoC4/USBFS_std.c ****                         USBFS_tBuffer[1u]     = 0u;
 1549              		.loc 1 226 0
 1550 00f8 714B     		ldr	r3, .L149+20
 1551 00fa 1A78     		ldrb	r2, [r3]
 1552 00fc D2B2     		uxtb	r2, r2
 1553 00fe 6F4B     		ldr	r3, .L149+16
 1554 0100 1A70     		strb	r2, [r3]
 227:Generated_Source\PSoC4/USBFS_std.c ****                         USBFS_currentTD.pData = &USBFS_tBuffer[0u];
 1555              		.loc 1 227 0
 1556 0102 0022     		movs	r2, #0
 1557 0104 5A70     		strb	r2, [r3, #1]
 228:Generated_Source\PSoC4/USBFS_std.c ****                         
 1558              		.loc 1 228 0
 1559 0106 4B60     		str	r3, [r1, #4]
 230:Generated_Source\PSoC4/USBFS_std.c ****                         break;
 1560              		.loc 1 230 0
 1561 0108 FFF7FEFF 		bl	USBFS_InitControlRead
 1562              	.LVL144:
 231:Generated_Source\PSoC4/USBFS_std.c ****                     default:    /* requestHandled is initialized as FALSE by default */
 1563              		.loc 1 231 0
 1564 010c CDE0     		b	.L98
ARM GAS  C:\Users\User\AppData\Local\Temp\ccieNkfn.s 			page 53


 1565              	.LVL145:
 1566              	.L102:
 238:Generated_Source\PSoC4/USBFS_std.c ****                 USBFS_currentTD.pData = (volatile uint8 *) &USBFS_configuration;
 1567              		.loc 1 238 0
 1568 010e 684B     		ldr	r3, .L149+4
 1569              	.LVL146:
 1570 0110 0122     		movs	r2, #1
 1571 0112 1A80     		strh	r2, [r3]
 239:Generated_Source\PSoC4/USBFS_std.c ****                 requestHandled  = USBFS_InitControlRead();
 1572              		.loc 1 239 0
 1573 0114 6B4A     		ldr	r2, .L149+24
 1574 0116 5A60     		str	r2, [r3, #4]
 240:Generated_Source\PSoC4/USBFS_std.c ****                 break;
 1575              		.loc 1 240 0
 1576 0118 FFF7FEFF 		bl	USBFS_InitControlRead
 1577              	.LVL147:
 241:Generated_Source\PSoC4/USBFS_std.c ****                 
 1578              		.loc 1 241 0
 1579 011c C5E0     		b	.L98
 1580              	.LVL148:
 1581              	.L103:
 244:Generated_Source\PSoC4/USBFS_std.c ****                 USBFS_currentTD.pData = (volatile uint8 *) &USBFS_interfaceSetting[USBFS_wIndexLoRe
 1582              		.loc 1 244 0
 1583 011e 644A     		ldr	r2, .L149+4
 1584 0120 0123     		movs	r3, #1
 1585              	.LVL149:
 1586 0122 1380     		strh	r3, [r2]
 245:Generated_Source\PSoC4/USBFS_std.c ****                 requestHandled  = USBFS_InitControlRead();
 1587              		.loc 1 245 0
 1588 0124 614B     		ldr	r3, .L149
 1589 0126 1969     		ldr	r1, [r3, #16]
 1590 0128 674B     		ldr	r3, .L149+28
 1591 012a CB18     		adds	r3, r1, r3
 1592 012c 5360     		str	r3, [r2, #4]
 246:Generated_Source\PSoC4/USBFS_std.c ****                 break;
 1593              		.loc 1 246 0
 1594 012e FFF7FEFF 		bl	USBFS_InitControlRead
 1595              	.LVL150:
 247:Generated_Source\PSoC4/USBFS_std.c ****                 
 1596              		.loc 1 247 0
 1597 0132 BAE0     		b	.L98
 1598              	.LVL151:
 1599              	.L97:
 256:Generated_Source\PSoC4/USBFS_std.c ****         {
 1600              		.loc 1 256 0
 1601 0134 5D4A     		ldr	r2, .L149
 1602 0136 5268     		ldr	r2, [r2, #4]
 1603 0138 0B2A     		cmp	r2, #11
 1604 013a 00D9     		bls	.LCB1636
 1605 013c A0E0     		b	.L134	@long jump
 1606              	.LCB1636:
 1607 013e 9200     		lsls	r2, r2, #2
 1608 0140 6249     		ldr	r1, .L149+32
 1609 0142 8A58     		ldr	r2, [r1, r2]
 1610 0144 9746     		mov	pc, r2
 1611              		.section	.rodata
 1612              		.align	2
ARM GAS  C:\Users\User\AppData\Local\Temp\ccieNkfn.s 			page 54


 1613              	.L113:
 1614 0000 80020000 		.word	.L134
 1615 0004 CA010000 		.word	.L112
 1616 0008 80020000 		.word	.L134
 1617 000c 1C020000 		.word	.L114
 1618 0010 80020000 		.word	.L134
 1619 0014 46010000 		.word	.L115
 1620 0018 80020000 		.word	.L134
 1621 001c 80020000 		.word	.L134
 1622 0020 80020000 		.word	.L134
 1623 0024 56010000 		.word	.L116
 1624 0028 80020000 		.word	.L134
 1625 002c 96010000 		.word	.L117
 1626              		.section	.text.USBFS_HandleStandardRqst
 1627              	.L115:
 260:Generated_Source\PSoC4/USBFS_std.c ****                 requestHandled = USBFS_InitNoDataControlTransfer();
 1628              		.loc 1 260 0
 1629 0146 594B     		ldr	r3, .L149
 1630              	.LVL152:
 1631 0148 9B68     		ldr	r3, [r3, #8]
 1632 014a DBB2     		uxtb	r3, r3
 1633 014c 604A     		ldr	r2, .L149+36
 1634 014e 1370     		strb	r3, [r2]
 261:Generated_Source\PSoC4/USBFS_std.c ****                 break;
 1635              		.loc 1 261 0
 1636 0150 FFF7FEFF 		bl	USBFS_InitNoDataControlTransfer
 1637              	.LVL153:
 262:Generated_Source\PSoC4/USBFS_std.c ****                 
 1638              		.loc 1 262 0
 1639 0154 A9E0     		b	.L98
 1640              	.LVL154:
 1641              	.L116:
 265:Generated_Source\PSoC4/USBFS_std.c ****                 
 1642              		.loc 1 265 0
 1643 0156 554B     		ldr	r3, .L149
 1644              	.LVL155:
 1645 0158 9C68     		ldr	r4, [r3, #8]
 1646              	.LVL156:
 268:Generated_Source\PSoC4/USBFS_std.c ****                 {
 1647              		.loc 1 268 0
 1648 015a 002C     		cmp	r4, #0
 1649 015c 03D0     		beq	.L118
 270:Generated_Source\PSoC4/USBFS_std.c ****                 }
 1650              		.loc 1 270 0
 1651 015e 601E     		subs	r0, r4, #1
 1652 0160 C0B2     		uxtb	r0, r0
 1653 0162 FFF7FEFF 		bl	USBFS_GetConfigTablePtr
 1654              	.LVL157:
 1655              	.L118:
 274:Generated_Source\PSoC4/USBFS_std.c ****                 {
 1656              		.loc 1 274 0
 1657 0166 002C     		cmp	r4, #0
 1658 0168 01D0     		beq	.L119
 274:Generated_Source\PSoC4/USBFS_std.c ****                 {
 1659              		.loc 1 274 0 is_stmt 0 discriminator 1
 1660 016a 0028     		cmp	r0, #0
 1661 016c 02D1     		bne	.L120
ARM GAS  C:\Users\User\AppData\Local\Temp\ccieNkfn.s 			page 55


 1662              	.L119:
 274:Generated_Source\PSoC4/USBFS_std.c ****                 {
 1663              		.loc 1 274 0 discriminator 3
 1664 016e 002C     		cmp	r4, #0
 1665 0170 00D0     		beq	.LCB1684
 1666 0172 87E0     		b	.L135	@long jump
 1667              	.LCB1684:
 1668              	.L120:
 277:Generated_Source\PSoC4/USBFS_std.c ****                     {
 1669              		.loc 1 277 0 is_stmt 1
 1670 0174 534B     		ldr	r3, .L149+24
 1671 0176 1B78     		ldrb	r3, [r3]
 1672 0178 DBB2     		uxtb	r3, r3
 1673 017a 9C42     		cmp	r4, r3
 1674 017c 08D0     		beq	.L121
 279:Generated_Source\PSoC4/USBFS_std.c ****                         USBFS_configurationChanged = USBFS_TRUE;
 1675              		.loc 1 279 0
 1676 017e E4B2     		uxtb	r4, r4
 1677              	.LVL158:
 1678 0180 504B     		ldr	r3, .L149+24
 1679 0182 1C70     		strb	r4, [r3]
 280:Generated_Source\PSoC4/USBFS_std.c ****                         USBFS_Config(USBFS_TRUE);
 1680              		.loc 1 280 0
 1681 0184 0122     		movs	r2, #1
 1682 0186 534B     		ldr	r3, .L149+40
 1683 0188 1A70     		strb	r2, [r3]
 281:Generated_Source\PSoC4/USBFS_std.c ****                     }
 1684              		.loc 1 281 0
 1685 018a 0120     		movs	r0, #1
 1686              	.LVL159:
 1687 018c FFF7FEFF 		bl	USBFS_Config
 1688              	.LVL160:
 1689              	.L121:
 283:Generated_Source\PSoC4/USBFS_std.c ****                 }
 1690              		.loc 1 283 0
 1691 0190 FFF7FEFF 		bl	USBFS_InitNoDataControlTransfer
 1692              	.LVL161:
 1693 0194 89E0     		b	.L98
 1694              	.LVL162:
 1695              	.L117:
 288:Generated_Source\PSoC4/USBFS_std.c ****                 {
 1696              		.loc 1 288 0
 1697 0196 FFF7FEFF 		bl	USBFS_ValidateAlternateSetting
 1698              	.LVL163:
 1699 019a 0028     		cmp	r0, #0
 1700 019c 74D0     		beq	.L136
 291:Generated_Source\PSoC4/USBFS_std.c ****                     USBFS_interfaceNumber = (uint8) USBFS_wIndexLoReg;
 1701              		.loc 1 291 0
 1702 019e 434B     		ldr	r3, .L149
 1703 01a0 1969     		ldr	r1, [r3, #16]
 1704              	.LVL164:
 292:Generated_Source\PSoC4/USBFS_std.c ****                      
 1705              		.loc 1 292 0
 1706 01a2 1B69     		ldr	r3, [r3, #16]
 1707 01a4 DBB2     		uxtb	r3, r3
 1708 01a6 4C4A     		ldr	r2, .L149+44
 1709 01a8 1370     		strb	r3, [r2]
ARM GAS  C:\Users\User\AppData\Local\Temp\ccieNkfn.s 			page 56


 295:Generated_Source\PSoC4/USBFS_std.c ****                     {
 1710              		.loc 1 295 0
 1711 01aa 4C4B     		ldr	r3, .L149+48
 1712 01ac 5A5C     		ldrb	r2, [r3, r1]
 1713 01ae D2B2     		uxtb	r2, r2
 1714 01b0 454B     		ldr	r3, .L149+28
 1715 01b2 5B5C     		ldrb	r3, [r3, r1]
 1716 01b4 DBB2     		uxtb	r3, r3
 1717 01b6 9A42     		cmp	r2, r3
 1718 01b8 04D0     		beq	.L122
 297:Generated_Source\PSoC4/USBFS_std.c ****                     
 1719              		.loc 1 297 0
 1720 01ba 0122     		movs	r2, #1
 1721 01bc 454B     		ldr	r3, .L149+40
 1722 01be 1A70     		strb	r2, [r3]
 303:Generated_Source\PSoC4/USBFS_std.c ****                     #endif /* (USBFS_EP_MANAGEMENT_MANUAL && USBFS_EP_ALLOC_DYNAMIC) */
 1723              		.loc 1 303 0
 1724 01c0 FFF7FEFF 		bl	USBFS_ConfigAltChanged
 1725              	.LVL165:
 1726              	.L122:
 307:Generated_Source\PSoC4/USBFS_std.c ****                 }
 1727              		.loc 1 307 0
 1728 01c4 FFF7FEFF 		bl	USBFS_InitNoDataControlTransfer
 1729              	.LVL166:
 1730 01c8 6FE0     		b	.L98
 1731              	.LVL167:
 1732              	.L112:
 312:Generated_Source\PSoC4/USBFS_std.c ****                 {
 1733              		.loc 1 312 0
 1734 01ca 0322     		movs	r2, #3
 1735 01cc 1340     		ands	r3, r2
 1736              	.LVL168:
 1737 01ce 012B     		cmp	r3, #1
 1738 01d0 16D0     		beq	.L123
 1739 01d2 002B     		cmp	r3, #0
 1740 01d4 08D0     		beq	.L124
 1741 01d6 022B     		cmp	r3, #2
 1742 01d8 58D1     		bne	.L147
 315:Generated_Source\PSoC4/USBFS_std.c ****                         {
 1743              		.loc 1 315 0
 1744 01da 344B     		ldr	r3, .L149
 1745 01dc 9B68     		ldr	r3, [r3, #8]
 1746 01de 002B     		cmp	r3, #0
 1747 01e0 56D1     		bne	.L138
 317:Generated_Source\PSoC4/USBFS_std.c ****                         }
 1748              		.loc 1 317 0
 1749 01e2 FFF7FEFF 		bl	USBFS_ClearEndpointHalt
 1750              	.LVL169:
 1751 01e6 60E0     		b	.L98
 1752              	.LVL170:
 1753              	.L124:
 322:Generated_Source\PSoC4/USBFS_std.c ****                         {
 1754              		.loc 1 322 0
 1755 01e8 304B     		ldr	r3, .L149
 1756 01ea 9B68     		ldr	r3, [r3, #8]
 1757 01ec 012B     		cmp	r3, #1
 1758 01ee 51D1     		bne	.L139
ARM GAS  C:\Users\User\AppData\Local\Temp\ccieNkfn.s 			page 57


 324:Generated_Source\PSoC4/USBFS_std.c ****                             requestHandled = USBFS_InitNoDataControlTransfer();
 1759              		.loc 1 324 0
 1760 01f0 334A     		ldr	r2, .L149+20
 1761 01f2 1378     		ldrb	r3, [r2]
 1762 01f4 0221     		movs	r1, #2
 1763 01f6 8B43     		bics	r3, r1
 1764 01f8 1370     		strb	r3, [r2]
 325:Generated_Source\PSoC4/USBFS_std.c ****                         }
 1765              		.loc 1 325 0
 1766 01fa FFF7FEFF 		bl	USBFS_InitNoDataControlTransfer
 1767              	.LVL171:
 1768 01fe 54E0     		b	.L98
 1769              	.LVL172:
 1770              	.L123:
 330:Generated_Source\PSoC4/USBFS_std.c ****                         {
 1771              		.loc 1 330 0
 1772 0200 2A4B     		ldr	r3, .L149
 1773 0202 1B69     		ldr	r3, [r3, #16]
 1774 0204 002B     		cmp	r3, #0
 1775 0206 47D1     		bne	.L140
 332:Generated_Source\PSoC4/USBFS_std.c ****                             requestHandled = USBFS_InitNoDataControlTransfer();
 1776              		.loc 1 332 0
 1777 0208 284B     		ldr	r3, .L149
 1778 020a 9868     		ldr	r0, [r3, #8]
 1779 020c 1A69     		ldr	r2, [r3, #16]
 1780 020e 3449     		ldr	r1, .L149+52
 1781 0210 8B5C     		ldrb	r3, [r1, r2]
 1782 0212 8343     		bics	r3, r0
 1783 0214 8B54     		strb	r3, [r1, r2]
 333:Generated_Source\PSoC4/USBFS_std.c ****                         }
 1784              		.loc 1 333 0
 1785 0216 FFF7FEFF 		bl	USBFS_InitNoDataControlTransfer
 1786              	.LVL173:
 1787 021a 46E0     		b	.L98
 1788              	.LVL174:
 1789              	.L114:
 342:Generated_Source\PSoC4/USBFS_std.c ****                 {
 1790              		.loc 1 342 0
 1791 021c 0322     		movs	r2, #3
 1792 021e 1340     		ands	r3, r2
 1793              	.LVL175:
 1794 0220 012B     		cmp	r3, #1
 1795 0222 17D0     		beq	.L126
 1796 0224 002B     		cmp	r3, #0
 1797 0226 08D0     		beq	.L127
 1798 0228 022B     		cmp	r3, #2
 1799 022a 37D1     		bne	.L148
 345:Generated_Source\PSoC4/USBFS_std.c ****                         {
 1800              		.loc 1 345 0
 1801 022c 1F4B     		ldr	r3, .L149
 1802 022e 9B68     		ldr	r3, [r3, #8]
 1803 0230 002B     		cmp	r3, #0
 1804 0232 35D1     		bne	.L142
 347:Generated_Source\PSoC4/USBFS_std.c ****                         }
 1805              		.loc 1 347 0
 1806 0234 FFF7FEFF 		bl	USBFS_SetEndpointHalt
 1807              	.LVL176:
ARM GAS  C:\Users\User\AppData\Local\Temp\ccieNkfn.s 			page 58


 1808 0238 37E0     		b	.L98
 1809              	.LVL177:
 1810              	.L127:
 353:Generated_Source\PSoC4/USBFS_std.c ****                         {
 1811              		.loc 1 353 0
 1812 023a 1C4B     		ldr	r3, .L149
 1813 023c 9B68     		ldr	r3, [r3, #8]
 1814 023e 012B     		cmp	r3, #1
 1815 0240 30D1     		bne	.L143
 355:Generated_Source\PSoC4/USBFS_std.c ****                             requestHandled = USBFS_InitNoDataControlTransfer();
 1816              		.loc 1 355 0
 1817 0242 1F4A     		ldr	r2, .L149+20
 1818 0244 1178     		ldrb	r1, [r2]
 1819 0246 0223     		movs	r3, #2
 1820 0248 0B43     		orrs	r3, r1
 1821 024a DBB2     		uxtb	r3, r3
 1822 024c 1370     		strb	r3, [r2]
 356:Generated_Source\PSoC4/USBFS_std.c ****                         }
 1823              		.loc 1 356 0
 1824 024e FFF7FEFF 		bl	USBFS_InitNoDataControlTransfer
 1825              	.LVL178:
 1826 0252 2AE0     		b	.L98
 1827              	.LVL179:
 1828              	.L126:
 362:Generated_Source\PSoC4/USBFS_std.c ****                         {
 1829              		.loc 1 362 0
 1830 0254 154B     		ldr	r3, .L149
 1831 0256 1B69     		ldr	r3, [r3, #16]
 1832 0258 002B     		cmp	r3, #0
 1833 025a 25D1     		bne	.L144
 364:Generated_Source\PSoC4/USBFS_std.c ****                             requestHandled = USBFS_InitNoDataControlTransfer();
 1834              		.loc 1 364 0
 1835 025c 134B     		ldr	r3, .L149
 1836 025e 9868     		ldr	r0, [r3, #8]
 1837 0260 1A69     		ldr	r2, [r3, #16]
 1838 0262 1F49     		ldr	r1, .L149+52
 1839 0264 8B5C     		ldrb	r3, [r1, r2]
 1840 0266 8343     		bics	r3, r0
 1841 0268 8B54     		strb	r3, [r1, r2]
 365:Generated_Source\PSoC4/USBFS_std.c ****                         }
 1842              		.loc 1 365 0
 1843 026a FFF7FEFF 		bl	USBFS_InitNoDataControlTransfer
 1844              	.LVL180:
 1845 026e 1CE0     		b	.L98
 1846              	.LVL181:
 1847              	.L129:
  86:Generated_Source\PSoC4/USBFS_std.c ****     uint32 interfaceNumber;
 1848              		.loc 1 86 0
 1849 0270 0020     		movs	r0, #0
 1850 0272 1AE0     		b	.L98
 1851              	.LVL182:
 1852              	.L130:
 1853 0274 0020     		movs	r0, #0
 1854              	.LVL183:
 1855 0276 18E0     		b	.L98
 1856              	.LVL184:
 1857              	.L132:
ARM GAS  C:\Users\User\AppData\Local\Temp\ccieNkfn.s 			page 59


 1858 0278 0020     		movs	r0, #0
 1859 027a 16E0     		b	.L98
 1860              	.LVL185:
 1861              	.L146:
 1862 027c 0020     		movs	r0, #0
 1863 027e 14E0     		b	.L98
 1864              	.LVL186:
 1865              	.L134:
 1866 0280 0020     		movs	r0, #0
 1867 0282 12E0     		b	.L98
 1868              	.LVL187:
 1869              	.L135:
 1870 0284 0020     		movs	r0, #0
 1871              	.LVL188:
 1872 0286 10E0     		b	.L98
 1873              	.LVL189:
 1874              	.L136:
 1875 0288 0020     		movs	r0, #0
 1876 028a 0EE0     		b	.L98
 1877              	.L147:
 1878 028c 0020     		movs	r0, #0
 1879 028e 0CE0     		b	.L98
 1880              	.L138:
 1881 0290 0020     		movs	r0, #0
 1882 0292 0AE0     		b	.L98
 1883              	.L139:
 1884 0294 0020     		movs	r0, #0
 1885 0296 08E0     		b	.L98
 1886              	.L140:
 1887 0298 0020     		movs	r0, #0
 1888 029a 06E0     		b	.L98
 1889              	.L148:
 1890 029c 0020     		movs	r0, #0
 1891 029e 04E0     		b	.L98
 1892              	.L142:
 1893 02a0 0020     		movs	r0, #0
 1894 02a2 02E0     		b	.L98
 1895              	.L143:
 1896 02a4 0020     		movs	r0, #0
 1897 02a6 00E0     		b	.L98
 1898              	.L144:
 1899 02a8 0020     		movs	r0, #0
 1900              	.LVL190:
 1901              	.L98:
 380:Generated_Source\PSoC4/USBFS_std.c **** 
 1902              		.loc 1 380 0
 1903              		@ sp needed
 1904 02aa 10BD     		pop	{r4, pc}
 1905              	.L150:
 1906              		.align	2
 1907              	.L149:
 1908 02ac 00002C40 		.word	1076625408
 1909 02b0 00000000 		.word	USBFS_currentTD
 1910 02b4 00000000 		.word	USBFS_STRING_DESCRIPTORS
 1911 02b8 00000000 		.word	USBFS_EP
 1912 02bc 00000000 		.word	.LANCHOR0
 1913 02c0 00000000 		.word	USBFS_deviceStatus
ARM GAS  C:\Users\User\AppData\Local\Temp\ccieNkfn.s 			page 60


 1914 02c4 00000000 		.word	USBFS_configuration
 1915 02c8 00000000 		.word	USBFS_interfaceSetting
 1916 02cc 00000000 		.word	.L113
 1917 02d0 00000000 		.word	USBFS_deviceAddress
 1918 02d4 00000000 		.word	USBFS_configurationChanged
 1919 02d8 00000000 		.word	USBFS_interfaceNumber
 1920 02dc 00000000 		.word	USBFS_interfaceSettingLast
 1921 02e0 00000000 		.word	USBFS_interfaceStatus
 1922              		.cfi_endproc
 1923              	.LFE1:
 1924              		.size	USBFS_HandleStandardRqst, .-USBFS_HandleStandardRqst
 1925              		.bss
 1926              		.align	2
 1927              		.set	.LANCHOR0,. + 0
 1928              		.type	USBFS_tBuffer.5176, %object
 1929              		.size	USBFS_tBuffer.5176, 2
 1930              	USBFS_tBuffer.5176:
 1931 0000 0000     		.space	2
 1932              		.text
 1933              	.Letext0:
 1934              		.file 2 "Generated_Source\\PSoC4\\cytypes.h"
 1935              		.file 3 "Generated_Source\\PSoC4\\USBFS.h"
 1936              		.file 4 "Generated_Source\\PSoC4\\USBFS_pvt.h"