ARM GAS  C:\Users\User\AppData\Local\Temp\ccieNkfn.s 			page 1


   1              		.syntax unified
   2              		.cpu cortex-m0
   3              		.fpu softvfp
   4              		.eabi_attribute 20, 1
   5              		.eabi_attribute 21, 1
   6              		.eabi_attribute 23, 3
   7              		.eabi_attribute 24, 1
   8              		.eabi_attribute 25, 1
   9              		.eabi_attribute 26, 1
  10              		.eabi_attribute 30, 1
  11              		.eabi_attribute 34, 0
  12              		.eabi_attribute 18, 4
  13              		.thumb
  14              		.syntax unified
  15              		.file	"USBFS_std.c"
  16              		.text
  17              	.Ltext0:
  18              		.cfi_sections	.debug_frame
  19              		.section	.text.USBFS_ConfigReg,"ax",%progbits
  20              		.align	2
  21              		.global	USBFS_ConfigReg
  22              		.code	16
  23              		.thumb_func
  24              		.type	USBFS_ConfigReg, %function
  25              	USBFS_ConfigReg:
  26              	.LFB2:
  27              		.file 1 "Generated_Source\\PSoC4\\USBFS_std.c"
   1:Generated_Source\PSoC4/USBFS_std.c **** /***************************************************************************//**
   2:Generated_Source\PSoC4/USBFS_std.c **** * \file USBFS_std.c
   3:Generated_Source\PSoC4/USBFS_std.c **** * \version 3.20
   4:Generated_Source\PSoC4/USBFS_std.c **** *
   5:Generated_Source\PSoC4/USBFS_std.c **** * \brief
   6:Generated_Source\PSoC4/USBFS_std.c **** *  This file contains the USB Standard request handler.
   7:Generated_Source\PSoC4/USBFS_std.c **** *
   8:Generated_Source\PSoC4/USBFS_std.c **** ********************************************************************************
   9:Generated_Source\PSoC4/USBFS_std.c **** * \copyright
  10:Generated_Source\PSoC4/USBFS_std.c **** * Copyright 2008-2016, Cypress Semiconductor Corporation.  All rights reserved.
  11:Generated_Source\PSoC4/USBFS_std.c **** * You may use this file only in accordance with the license, terms, conditions,
  12:Generated_Source\PSoC4/USBFS_std.c **** * disclaimers, and limitations in the end user license agreement accompanying
  13:Generated_Source\PSoC4/USBFS_std.c **** * the software package with which this file was provided.
  14:Generated_Source\PSoC4/USBFS_std.c **** *******************************************************************************/
  15:Generated_Source\PSoC4/USBFS_std.c **** 
  16:Generated_Source\PSoC4/USBFS_std.c **** #include "USBFS_pvt.h"
  17:Generated_Source\PSoC4/USBFS_std.c **** 
  18:Generated_Source\PSoC4/USBFS_std.c **** /***************************************
  19:Generated_Source\PSoC4/USBFS_std.c **** *   Static data allocation
  20:Generated_Source\PSoC4/USBFS_std.c **** ***************************************/
  21:Generated_Source\PSoC4/USBFS_std.c **** 
  22:Generated_Source\PSoC4/USBFS_std.c **** #if defined(USBFS_ENABLE_FWSN_STRING)
  23:Generated_Source\PSoC4/USBFS_std.c ****     static volatile uint8* USBFS_fwSerialNumberStringDescriptor;
  24:Generated_Source\PSoC4/USBFS_std.c ****     static volatile uint8  USBFS_snStringConfirm = USBFS_FALSE;
  25:Generated_Source\PSoC4/USBFS_std.c **** #endif  /* (USBFS_ENABLE_FWSN_STRING) */
  26:Generated_Source\PSoC4/USBFS_std.c **** 
  27:Generated_Source\PSoC4/USBFS_std.c **** #if defined(USBFS_ENABLE_FWSN_STRING)
  28:Generated_Source\PSoC4/USBFS_std.c ****     /***************************************************************************
  29:Generated_Source\PSoC4/USBFS_std.c ****     * Function Name: USBFS_SerialNumString
  30:Generated_Source\PSoC4/USBFS_std.c ****     ************************************************************************//**
ARM GAS  C:\Users\User\AppData\Local\Temp\ccieNkfn.s 			page 2


  31:Generated_Source\PSoC4/USBFS_std.c ****     *
  32:Generated_Source\PSoC4/USBFS_std.c ****     *  This function is available only when the User Call Back option in the 
  33:Generated_Source\PSoC4/USBFS_std.c ****     *  Serial Number String descriptor properties is selected. Application 
  34:Generated_Source\PSoC4/USBFS_std.c ****     *  firmware can provide the source of the USB device serial number string 
  35:Generated_Source\PSoC4/USBFS_std.c ****     *  descriptor during run time. The default string is used if the application 
  36:Generated_Source\PSoC4/USBFS_std.c ****     *  firmware does not use this function or sets the wrong string descriptor.
  37:Generated_Source\PSoC4/USBFS_std.c ****     *
  38:Generated_Source\PSoC4/USBFS_std.c ****     *  \param snString:  Pointer to the user-defined string descriptor. The 
  39:Generated_Source\PSoC4/USBFS_std.c ****     *  string descriptor should meet the Universal Serial Bus Specification 
  40:Generated_Source\PSoC4/USBFS_std.c ****     *  revision 2.0 chapter 9.6.7
  41:Generated_Source\PSoC4/USBFS_std.c ****     *  Offset|Size|Value|Description
  42:Generated_Source\PSoC4/USBFS_std.c ****     *  ------|----|------|---------------------------------
  43:Generated_Source\PSoC4/USBFS_std.c ****     *  0     |1   |N     |Size of this descriptor in bytes
  44:Generated_Source\PSoC4/USBFS_std.c ****     *  1     |1   |0x03  |STRING Descriptor Type
  45:Generated_Source\PSoC4/USBFS_std.c ****     *  2     |N-2 |Number|UNICODE encoded string
  46:Generated_Source\PSoC4/USBFS_std.c ****     *  
  47:Generated_Source\PSoC4/USBFS_std.c ****     * *For example:* uint8 snString[16]={0x0E,0x03,'F',0,'W',0,'S',0,'N',0,'0',0,'1',0};
  48:Generated_Source\PSoC4/USBFS_std.c ****     *
  49:Generated_Source\PSoC4/USBFS_std.c ****     * \reentrant
  50:Generated_Source\PSoC4/USBFS_std.c ****     *  No.
  51:Generated_Source\PSoC4/USBFS_std.c ****     *
  52:Generated_Source\PSoC4/USBFS_std.c ****     ***************************************************************************/
  53:Generated_Source\PSoC4/USBFS_std.c ****     void  USBFS_SerialNumString(uint8 snString[]) 
  54:Generated_Source\PSoC4/USBFS_std.c ****     {
  55:Generated_Source\PSoC4/USBFS_std.c ****         USBFS_snStringConfirm = USBFS_FALSE;
  56:Generated_Source\PSoC4/USBFS_std.c ****         
  57:Generated_Source\PSoC4/USBFS_std.c ****         if (snString != NULL)
  58:Generated_Source\PSoC4/USBFS_std.c ****         {
  59:Generated_Source\PSoC4/USBFS_std.c ****             /* Check descriptor validation */
  60:Generated_Source\PSoC4/USBFS_std.c ****             if ((snString[0u] > 1u) && (snString[1u] == USBFS_DESCR_STRING))
  61:Generated_Source\PSoC4/USBFS_std.c ****             {
  62:Generated_Source\PSoC4/USBFS_std.c ****                 USBFS_fwSerialNumberStringDescriptor = snString;
  63:Generated_Source\PSoC4/USBFS_std.c ****                 USBFS_snStringConfirm = USBFS_TRUE;
  64:Generated_Source\PSoC4/USBFS_std.c ****             }
  65:Generated_Source\PSoC4/USBFS_std.c ****         }
  66:Generated_Source\PSoC4/USBFS_std.c ****     }
  67:Generated_Source\PSoC4/USBFS_std.c **** #endif  /* USBFS_ENABLE_FWSN_STRING */
  68:Generated_Source\PSoC4/USBFS_std.c **** 
  69:Generated_Source\PSoC4/USBFS_std.c **** 
  70:Generated_Source\PSoC4/USBFS_std.c **** /*******************************************************************************
  71:Generated_Source\PSoC4/USBFS_std.c **** * Function Name: USBFS_HandleStandardRqst
  72:Generated_Source\PSoC4/USBFS_std.c **** ****************************************************************************//**
  73:Generated_Source\PSoC4/USBFS_std.c **** *
  74:Generated_Source\PSoC4/USBFS_std.c **** *  This Routine dispatches standard requests
  75:Generated_Source\PSoC4/USBFS_std.c **** *
  76:Generated_Source\PSoC4/USBFS_std.c **** *
  77:Generated_Source\PSoC4/USBFS_std.c **** * \return
  78:Generated_Source\PSoC4/USBFS_std.c **** *  TRUE if request handled.
  79:Generated_Source\PSoC4/USBFS_std.c **** *
  80:Generated_Source\PSoC4/USBFS_std.c **** * \reentrant
  81:Generated_Source\PSoC4/USBFS_std.c **** *  No.
  82:Generated_Source\PSoC4/USBFS_std.c **** *
  83:Generated_Source\PSoC4/USBFS_std.c **** *******************************************************************************/
  84:Generated_Source\PSoC4/USBFS_std.c **** uint8 USBFS_HandleStandardRqst(void) 
  85:Generated_Source\PSoC4/USBFS_std.c **** {
  86:Generated_Source\PSoC4/USBFS_std.c ****     uint8 requestHandled = USBFS_FALSE;
  87:Generated_Source\PSoC4/USBFS_std.c ****     uint32 interfaceNumber;
ARM GAS  C:\Users\User\AppData\Local\Temp\ccieNkfn.s 			page 3


  88:Generated_Source\PSoC4/USBFS_std.c ****     uint32 configurationN;
  89:Generated_Source\PSoC4/USBFS_std.c ****     uint32 bmRequestType = USBFS_bmRequestTypeReg;
  90:Generated_Source\PSoC4/USBFS_std.c **** 
  91:Generated_Source\PSoC4/USBFS_std.c **** #if defined(USBFS_ENABLE_STRINGS)
  92:Generated_Source\PSoC4/USBFS_std.c ****     volatile uint8 *pStr = 0u;
  93:Generated_Source\PSoC4/USBFS_std.c ****     #if defined(USBFS_ENABLE_DESCRIPTOR_STRINGS)
  94:Generated_Source\PSoC4/USBFS_std.c ****         uint8 nStr;
  95:Generated_Source\PSoC4/USBFS_std.c ****         uint8 descrLength;
  96:Generated_Source\PSoC4/USBFS_std.c ****     #endif /* (USBFS_ENABLE_DESCRIPTOR_STRINGS) */
  97:Generated_Source\PSoC4/USBFS_std.c **** #endif /* (USBFS_ENABLE_STRINGS) */
  98:Generated_Source\PSoC4/USBFS_std.c ****     
  99:Generated_Source\PSoC4/USBFS_std.c ****     static volatile uint8 USBFS_tBuffer[USBFS_STATUS_LENGTH_MAX];
 100:Generated_Source\PSoC4/USBFS_std.c ****     const T_USBFS_LUT CYCODE *pTmp;
 101:Generated_Source\PSoC4/USBFS_std.c **** 
 102:Generated_Source\PSoC4/USBFS_std.c ****     USBFS_currentTD.count = 0u;
 103:Generated_Source\PSoC4/USBFS_std.c **** 
 104:Generated_Source\PSoC4/USBFS_std.c ****     if (USBFS_RQST_DIR_D2H == (bmRequestType & USBFS_RQST_DIR_MASK))
 105:Generated_Source\PSoC4/USBFS_std.c ****     {
 106:Generated_Source\PSoC4/USBFS_std.c ****         /* Control Read */
 107:Generated_Source\PSoC4/USBFS_std.c ****         switch (USBFS_bRequestReg)
 108:Generated_Source\PSoC4/USBFS_std.c ****         {
 109:Generated_Source\PSoC4/USBFS_std.c ****             case USBFS_GET_DESCRIPTOR:
 110:Generated_Source\PSoC4/USBFS_std.c ****                 if (USBFS_DESCR_DEVICE ==USBFS_wValueHiReg)
 111:Generated_Source\PSoC4/USBFS_std.c ****                 {
 112:Generated_Source\PSoC4/USBFS_std.c ****                     pTmp = USBFS_GetDeviceTablePtr();
 113:Generated_Source\PSoC4/USBFS_std.c ****                     USBFS_currentTD.pData = (volatile uint8 *)pTmp->p_list;
 114:Generated_Source\PSoC4/USBFS_std.c ****                     USBFS_currentTD.count = USBFS_DEVICE_DESCR_LENGTH;
 115:Generated_Source\PSoC4/USBFS_std.c ****                     
 116:Generated_Source\PSoC4/USBFS_std.c ****                     requestHandled  = USBFS_InitControlRead();
 117:Generated_Source\PSoC4/USBFS_std.c ****                 }
 118:Generated_Source\PSoC4/USBFS_std.c ****                 else if (USBFS_DESCR_CONFIG == USBFS_wValueHiReg)
 119:Generated_Source\PSoC4/USBFS_std.c ****                 {
 120:Generated_Source\PSoC4/USBFS_std.c ****                     pTmp = USBFS_GetConfigTablePtr((uint8) USBFS_wValueLoReg);
 121:Generated_Source\PSoC4/USBFS_std.c ****                     
 122:Generated_Source\PSoC4/USBFS_std.c ****                     /* Verify that requested descriptor exists */
 123:Generated_Source\PSoC4/USBFS_std.c ****                     if (pTmp != NULL)
 124:Generated_Source\PSoC4/USBFS_std.c ****                     {
 125:Generated_Source\PSoC4/USBFS_std.c ****                         USBFS_currentTD.pData = (volatile uint8 *)pTmp->p_list;
 126:Generated_Source\PSoC4/USBFS_std.c ****                         USBFS_currentTD.count = (uint16)((uint16)(USBFS_currentTD.pData)[USBFS_CONF
 127:Generated_Source\PSoC4/USBFS_std.c ****                                                                             (USBFS_currentTD.pData)
 128:Generated_Source\PSoC4/USBFS_std.c ****                         requestHandled  = USBFS_InitControlRead();
 129:Generated_Source\PSoC4/USBFS_std.c ****                     }
 130:Generated_Source\PSoC4/USBFS_std.c ****                 }
 131:Generated_Source\PSoC4/USBFS_std.c ****                 
 132:Generated_Source\PSoC4/USBFS_std.c ****             #if(USBFS_BOS_ENABLE)
 133:Generated_Source\PSoC4/USBFS_std.c ****                 else if (USBFS_DESCR_BOS == USBFS_wValueHiReg)
 134:Generated_Source\PSoC4/USBFS_std.c ****                 {
 135:Generated_Source\PSoC4/USBFS_std.c ****                     pTmp = USBFS_GetBOSPtr();
 136:Generated_Source\PSoC4/USBFS_std.c ****                     
 137:Generated_Source\PSoC4/USBFS_std.c ****                     /* Verify that requested descriptor exists */
 138:Generated_Source\PSoC4/USBFS_std.c ****                     if (pTmp != NULL)
 139:Generated_Source\PSoC4/USBFS_std.c ****                     {
 140:Generated_Source\PSoC4/USBFS_std.c ****                         USBFS_currentTD.pData = (volatile uint8 *)pTmp;
 141:Generated_Source\PSoC4/USBFS_std.c ****                         USBFS_currentTD.count = ((uint16)((uint16)(USBFS_currentTD.pData)[USBFS_BOS
 142:Generated_Source\PSoC4/USBFS_std.c ****                                                                              (USBFS_currentTD.pData
 143:Generated_Source\PSoC4/USBFS_std.c ****                         requestHandled  = USBFS_InitControlRead();
 144:Generated_Source\PSoC4/USBFS_std.c ****                     }
ARM GAS  C:\Users\User\AppData\Local\Temp\ccieNkfn.s 			page 4


 145:Generated_Source\PSoC4/USBFS_std.c ****                 }
 146:Generated_Source\PSoC4/USBFS_std.c ****             #endif /*(USBFS_BOS_ENABLE)*/
 147:Generated_Source\PSoC4/USBFS_std.c ****             
 148:Generated_Source\PSoC4/USBFS_std.c ****             #if defined(USBFS_ENABLE_STRINGS)
 149:Generated_Source\PSoC4/USBFS_std.c ****                 else if (USBFS_DESCR_STRING == USBFS_wValueHiReg)
 150:Generated_Source\PSoC4/USBFS_std.c ****                 {
 151:Generated_Source\PSoC4/USBFS_std.c ****                 /* Descriptor Strings */
 152:Generated_Source\PSoC4/USBFS_std.c ****                 #if defined(USBFS_ENABLE_DESCRIPTOR_STRINGS)
 153:Generated_Source\PSoC4/USBFS_std.c ****                     nStr = 0u;
 154:Generated_Source\PSoC4/USBFS_std.c ****                     pStr = (volatile uint8 *) &USBFS_STRING_DESCRIPTORS[0u];
 155:Generated_Source\PSoC4/USBFS_std.c ****                     
 156:Generated_Source\PSoC4/USBFS_std.c ****                     while ((USBFS_wValueLoReg > nStr) && (*pStr != 0u))
 157:Generated_Source\PSoC4/USBFS_std.c ****                     {
 158:Generated_Source\PSoC4/USBFS_std.c ****                         /* Read descriptor length from 1st byte */
 159:Generated_Source\PSoC4/USBFS_std.c ****                         descrLength = *pStr;
 160:Generated_Source\PSoC4/USBFS_std.c ****                         /* Move to next string descriptor */
 161:Generated_Source\PSoC4/USBFS_std.c ****                         pStr = &pStr[descrLength];
 162:Generated_Source\PSoC4/USBFS_std.c ****                         nStr++;
 163:Generated_Source\PSoC4/USBFS_std.c ****                     }
 164:Generated_Source\PSoC4/USBFS_std.c ****                 #endif /* (USBFS_ENABLE_DESCRIPTOR_STRINGS) */
 165:Generated_Source\PSoC4/USBFS_std.c ****                 
 166:Generated_Source\PSoC4/USBFS_std.c ****                 /* Microsoft OS String */
 167:Generated_Source\PSoC4/USBFS_std.c ****                 #if defined(USBFS_ENABLE_MSOS_STRING)
 168:Generated_Source\PSoC4/USBFS_std.c ****                     if (USBFS_STRING_MSOS == USBFS_wValueLoReg)
 169:Generated_Source\PSoC4/USBFS_std.c ****                     {
 170:Generated_Source\PSoC4/USBFS_std.c ****                         pStr = (volatile uint8 *)& USBFS_MSOS_DESCRIPTOR[0u];
 171:Generated_Source\PSoC4/USBFS_std.c ****                     }
 172:Generated_Source\PSoC4/USBFS_std.c ****                 #endif /* (USBFS_ENABLE_MSOS_STRING) */
 173:Generated_Source\PSoC4/USBFS_std.c ****                 
 174:Generated_Source\PSoC4/USBFS_std.c ****                 /* SN string */
 175:Generated_Source\PSoC4/USBFS_std.c ****                 #if defined(USBFS_ENABLE_SN_STRING)
 176:Generated_Source\PSoC4/USBFS_std.c ****                     if ((USBFS_wValueLoReg != 0u) && 
 177:Generated_Source\PSoC4/USBFS_std.c ****                         (USBFS_wValueLoReg == USBFS_DEVICE0_DESCR[USBFS_DEVICE_DESCR_SN_SHIFT]))
 178:Generated_Source\PSoC4/USBFS_std.c ****                     {
 179:Generated_Source\PSoC4/USBFS_std.c ****                     #if defined(USBFS_ENABLE_IDSN_STRING)
 180:Generated_Source\PSoC4/USBFS_std.c ****                         /* Read DIE ID and generate string descriptor in RAM */
 181:Generated_Source\PSoC4/USBFS_std.c ****                         USBFS_ReadDieID(USBFS_idSerialNumberStringDescriptor);
 182:Generated_Source\PSoC4/USBFS_std.c ****                         pStr = USBFS_idSerialNumberStringDescriptor;
 183:Generated_Source\PSoC4/USBFS_std.c ****                     #elif defined(USBFS_ENABLE_FWSN_STRING)
 184:Generated_Source\PSoC4/USBFS_std.c ****                         
 185:Generated_Source\PSoC4/USBFS_std.c ****                         if(USBFS_snStringConfirm != USBFS_FALSE)
 186:Generated_Source\PSoC4/USBFS_std.c ****                         {
 187:Generated_Source\PSoC4/USBFS_std.c ****                             pStr = USBFS_fwSerialNumberStringDescriptor;
 188:Generated_Source\PSoC4/USBFS_std.c ****                         }
 189:Generated_Source\PSoC4/USBFS_std.c ****                         else
 190:Generated_Source\PSoC4/USBFS_std.c ****                         {
 191:Generated_Source\PSoC4/USBFS_std.c ****                             pStr = (volatile uint8 *)&USBFS_SN_STRING_DESCRIPTOR[0u];
 192:Generated_Source\PSoC4/USBFS_std.c ****                         }
 193:Generated_Source\PSoC4/USBFS_std.c ****                     #else
 194:Generated_Source\PSoC4/USBFS_std.c ****                         pStr = (volatile uint8 *)&USBFS_SN_STRING_DESCRIPTOR[0u];
 195:Generated_Source\PSoC4/USBFS_std.c ****                     #endif  /* (USBFS_ENABLE_IDSN_STRING) */
 196:Generated_Source\PSoC4/USBFS_std.c ****                     }
 197:Generated_Source\PSoC4/USBFS_std.c ****                 #endif /* (USBFS_ENABLE_SN_STRING) */
 198:Generated_Source\PSoC4/USBFS_std.c ****                 
 199:Generated_Source\PSoC4/USBFS_std.c ****                     if (*pStr != 0u)
 200:Generated_Source\PSoC4/USBFS_std.c ****                     {
 201:Generated_Source\PSoC4/USBFS_std.c ****                         USBFS_currentTD.count = *pStr;
ARM GAS  C:\Users\User\AppData\Local\Temp\ccieNkfn.s 			page 5


 202:Generated_Source\PSoC4/USBFS_std.c ****                         USBFS_currentTD.pData = pStr;
 203:Generated_Source\PSoC4/USBFS_std.c ****                         requestHandled  = USBFS_InitControlRead();
 204:Generated_Source\PSoC4/USBFS_std.c ****                     }
 205:Generated_Source\PSoC4/USBFS_std.c ****                 }
 206:Generated_Source\PSoC4/USBFS_std.c ****             #endif /*  USBFS_ENABLE_STRINGS */
 207:Generated_Source\PSoC4/USBFS_std.c ****                 else
 208:Generated_Source\PSoC4/USBFS_std.c ****                 {
 209:Generated_Source\PSoC4/USBFS_std.c ****                     requestHandled = USBFS_DispatchClassRqst();
 210:Generated_Source\PSoC4/USBFS_std.c ****                 }
 211:Generated_Source\PSoC4/USBFS_std.c ****                 break;
 212:Generated_Source\PSoC4/USBFS_std.c ****                 
 213:Generated_Source\PSoC4/USBFS_std.c ****             case USBFS_GET_STATUS:
 214:Generated_Source\PSoC4/USBFS_std.c ****                 switch (bmRequestType & USBFS_RQST_RCPT_MASK)
 215:Generated_Source\PSoC4/USBFS_std.c ****                 {
 216:Generated_Source\PSoC4/USBFS_std.c ****                     case USBFS_RQST_RCPT_EP:
 217:Generated_Source\PSoC4/USBFS_std.c ****                         USBFS_currentTD.count = USBFS_EP_STATUS_LENGTH;
 218:Generated_Source\PSoC4/USBFS_std.c ****                         USBFS_tBuffer[0u]     = USBFS_EP[USBFS_wIndexLoReg & USBFS_DIR_UNUSED].hwEp
 219:Generated_Source\PSoC4/USBFS_std.c ****                         USBFS_tBuffer[1u]     = 0u;
 220:Generated_Source\PSoC4/USBFS_std.c ****                         USBFS_currentTD.pData = &USBFS_tBuffer[0u];
 221:Generated_Source\PSoC4/USBFS_std.c ****                         
 222:Generated_Source\PSoC4/USBFS_std.c ****                         requestHandled  = USBFS_InitControlRead();
 223:Generated_Source\PSoC4/USBFS_std.c ****                         break;
 224:Generated_Source\PSoC4/USBFS_std.c ****                     case USBFS_RQST_RCPT_DEV:
 225:Generated_Source\PSoC4/USBFS_std.c ****                         USBFS_currentTD.count = USBFS_DEVICE_STATUS_LENGTH;
 226:Generated_Source\PSoC4/USBFS_std.c ****                         USBFS_tBuffer[0u]     = USBFS_deviceStatus;
 227:Generated_Source\PSoC4/USBFS_std.c ****                         USBFS_tBuffer[1u]     = 0u;
 228:Generated_Source\PSoC4/USBFS_std.c ****                         USBFS_currentTD.pData = &USBFS_tBuffer[0u];
 229:Generated_Source\PSoC4/USBFS_std.c ****                         
 230:Generated_Source\PSoC4/USBFS_std.c ****                         requestHandled  = USBFS_InitControlRead();
 231:Generated_Source\PSoC4/USBFS_std.c ****                         break;
 232:Generated_Source\PSoC4/USBFS_std.c ****                     default:    /* requestHandled is initialized as FALSE by default */
 233:Generated_Source\PSoC4/USBFS_std.c ****                         break;
 234:Generated_Source\PSoC4/USBFS_std.c ****                 }
 235:Generated_Source\PSoC4/USBFS_std.c ****                 break;
 236:Generated_Source\PSoC4/USBFS_std.c ****                 
 237:Generated_Source\PSoC4/USBFS_std.c ****             case USBFS_GET_CONFIGURATION:
 238:Generated_Source\PSoC4/USBFS_std.c ****                 USBFS_currentTD.count = 1u;
 239:Generated_Source\PSoC4/USBFS_std.c ****                 USBFS_currentTD.pData = (volatile uint8 *) &USBFS_configuration;
 240:Generated_Source\PSoC4/USBFS_std.c ****                 requestHandled  = USBFS_InitControlRead();
 241:Generated_Source\PSoC4/USBFS_std.c ****                 break;
 242:Generated_Source\PSoC4/USBFS_std.c ****                 
 243:Generated_Source\PSoC4/USBFS_std.c ****             case USBFS_GET_INTERFACE:
 244:Generated_Source\PSoC4/USBFS_std.c ****                 USBFS_currentTD.count = 1u;
 245:Generated_Source\PSoC4/USBFS_std.c ****                 USBFS_currentTD.pData = (volatile uint8 *) &USBFS_interfaceSetting[USBFS_wIndexLoRe
 246:Generated_Source\PSoC4/USBFS_std.c ****                 requestHandled  = USBFS_InitControlRead();
 247:Generated_Source\PSoC4/USBFS_std.c ****                 break;
 248:Generated_Source\PSoC4/USBFS_std.c ****                 
 249:Generated_Source\PSoC4/USBFS_std.c ****             default: /* requestHandled is initialized as FALSE by default */
 250:Generated_Source\PSoC4/USBFS_std.c ****                 break;
 251:Generated_Source\PSoC4/USBFS_std.c ****         }
 252:Generated_Source\PSoC4/USBFS_std.c ****     }
 253:Generated_Source\PSoC4/USBFS_std.c ****     else
 254:Generated_Source\PSoC4/USBFS_std.c ****     {
 255:Generated_Source\PSoC4/USBFS_std.c ****         /* Control Write */
 256:Generated_Source\PSoC4/USBFS_std.c ****         switch (USBFS_bRequestReg)
 257:Generated_Source\PSoC4/USBFS_std.c ****         {
 258:Generated_Source\PSoC4/USBFS_std.c ****             case USBFS_SET_ADDRESS:
ARM GAS  C:\Users\User\AppData\Local\Temp\ccieNkfn.s 			page 6


 259:Generated_Source\PSoC4/USBFS_std.c ****                 /* Store address to be set in USBFS_NoDataControlStatusStage(). */
 260:Generated_Source\PSoC4/USBFS_std.c ****                 USBFS_deviceAddress = (uint8) USBFS_wValueLoReg;
 261:Generated_Source\PSoC4/USBFS_std.c ****                 requestHandled = USBFS_InitNoDataControlTransfer();
 262:Generated_Source\PSoC4/USBFS_std.c ****                 break;
 263:Generated_Source\PSoC4/USBFS_std.c ****                 
 264:Generated_Source\PSoC4/USBFS_std.c ****             case USBFS_SET_CONFIGURATION:
 265:Generated_Source\PSoC4/USBFS_std.c ****                 configurationN = USBFS_wValueLoReg;
 266:Generated_Source\PSoC4/USBFS_std.c ****                 
 267:Generated_Source\PSoC4/USBFS_std.c ****                 /* Verify that configuration descriptor exists */
 268:Generated_Source\PSoC4/USBFS_std.c ****                 if(configurationN > 0u)
 269:Generated_Source\PSoC4/USBFS_std.c ****                 {
 270:Generated_Source\PSoC4/USBFS_std.c ****                     pTmp = USBFS_GetConfigTablePtr((uint8) configurationN - 1u);
 271:Generated_Source\PSoC4/USBFS_std.c ****                 }
 272:Generated_Source\PSoC4/USBFS_std.c ****                 
 273:Generated_Source\PSoC4/USBFS_std.c ****                 /* Responds with a Request Error when configuration number is invalid */
 274:Generated_Source\PSoC4/USBFS_std.c ****                 if (((configurationN > 0u) && (pTmp != NULL)) || (configurationN == 0u))
 275:Generated_Source\PSoC4/USBFS_std.c ****                 {
 276:Generated_Source\PSoC4/USBFS_std.c ****                     /* Set new configuration if it has been changed */
 277:Generated_Source\PSoC4/USBFS_std.c ****                     if(configurationN != USBFS_configuration)
 278:Generated_Source\PSoC4/USBFS_std.c ****                     {
 279:Generated_Source\PSoC4/USBFS_std.c ****                         USBFS_configuration = (uint8) configurationN;
 280:Generated_Source\PSoC4/USBFS_std.c ****                         USBFS_configurationChanged = USBFS_TRUE;
 281:Generated_Source\PSoC4/USBFS_std.c ****                         USBFS_Config(USBFS_TRUE);
 282:Generated_Source\PSoC4/USBFS_std.c ****                     }
 283:Generated_Source\PSoC4/USBFS_std.c ****                     requestHandled = USBFS_InitNoDataControlTransfer();
 284:Generated_Source\PSoC4/USBFS_std.c ****                 }
 285:Generated_Source\PSoC4/USBFS_std.c ****                 break;
 286:Generated_Source\PSoC4/USBFS_std.c ****                 
 287:Generated_Source\PSoC4/USBFS_std.c ****             case USBFS_SET_INTERFACE:
 288:Generated_Source\PSoC4/USBFS_std.c ****                 if (0u != USBFS_ValidateAlternateSetting())
 289:Generated_Source\PSoC4/USBFS_std.c ****                 {
 290:Generated_Source\PSoC4/USBFS_std.c ****                     /* Get interface number from the request. */
 291:Generated_Source\PSoC4/USBFS_std.c ****                     interfaceNumber = USBFS_wIndexLoReg;
 292:Generated_Source\PSoC4/USBFS_std.c ****                     USBFS_interfaceNumber = (uint8) USBFS_wIndexLoReg;
 293:Generated_Source\PSoC4/USBFS_std.c ****                      
 294:Generated_Source\PSoC4/USBFS_std.c ****                     /* Check if alternate settings is changed for interface. */
 295:Generated_Source\PSoC4/USBFS_std.c ****                     if (USBFS_interfaceSettingLast[interfaceNumber] != USBFS_interfaceSetting[inter
 296:Generated_Source\PSoC4/USBFS_std.c ****                     {
 297:Generated_Source\PSoC4/USBFS_std.c ****                         USBFS_configurationChanged = USBFS_TRUE;
 298:Generated_Source\PSoC4/USBFS_std.c ****                     
 299:Generated_Source\PSoC4/USBFS_std.c ****                         /* Change alternate setting for the endpoints. */
 300:Generated_Source\PSoC4/USBFS_std.c ****                     #if (USBFS_EP_MANAGEMENT_MANUAL && USBFS_EP_ALLOC_DYNAMIC)
 301:Generated_Source\PSoC4/USBFS_std.c ****                         USBFS_Config(USBFS_FALSE);
 302:Generated_Source\PSoC4/USBFS_std.c ****                     #else
 303:Generated_Source\PSoC4/USBFS_std.c ****                         USBFS_ConfigAltChanged();
 304:Generated_Source\PSoC4/USBFS_std.c ****                     #endif /* (USBFS_EP_MANAGEMENT_MANUAL && USBFS_EP_ALLOC_DYNAMIC) */
 305:Generated_Source\PSoC4/USBFS_std.c ****                     }
 306:Generated_Source\PSoC4/USBFS_std.c ****                     
 307:Generated_Source\PSoC4/USBFS_std.c ****                     requestHandled = USBFS_InitNoDataControlTransfer();
 308:Generated_Source\PSoC4/USBFS_std.c ****                 }
 309:Generated_Source\PSoC4/USBFS_std.c ****                 break;
 310:Generated_Source\PSoC4/USBFS_std.c ****                 
 311:Generated_Source\PSoC4/USBFS_std.c ****             case USBFS_CLEAR_FEATURE:
 312:Generated_Source\PSoC4/USBFS_std.c ****                 switch (bmRequestType & USBFS_RQST_RCPT_MASK)
 313:Generated_Source\PSoC4/USBFS_std.c ****                 {
 314:Generated_Source\PSoC4/USBFS_std.c ****                     case USBFS_RQST_RCPT_EP:
 315:Generated_Source\PSoC4/USBFS_std.c ****                         if (USBFS_wValueLoReg == USBFS_ENDPOINT_HALT)
ARM GAS  C:\Users\User\AppData\Local\Temp\ccieNkfn.s 			page 7


 316:Generated_Source\PSoC4/USBFS_std.c ****                         {
 317:Generated_Source\PSoC4/USBFS_std.c ****                             requestHandled = USBFS_ClearEndpointHalt();
 318:Generated_Source\PSoC4/USBFS_std.c ****                         }
 319:Generated_Source\PSoC4/USBFS_std.c ****                         break;
 320:Generated_Source\PSoC4/USBFS_std.c ****                     case USBFS_RQST_RCPT_DEV:
 321:Generated_Source\PSoC4/USBFS_std.c ****                         /* Clear device REMOTE_WAKEUP */
 322:Generated_Source\PSoC4/USBFS_std.c ****                         if (USBFS_wValueLoReg == USBFS_DEVICE_REMOTE_WAKEUP)
 323:Generated_Source\PSoC4/USBFS_std.c ****                         {
 324:Generated_Source\PSoC4/USBFS_std.c ****                             USBFS_deviceStatus &= (uint8)~USBFS_DEVICE_STATUS_REMOTE_WAKEUP;
 325:Generated_Source\PSoC4/USBFS_std.c ****                             requestHandled = USBFS_InitNoDataControlTransfer();
 326:Generated_Source\PSoC4/USBFS_std.c ****                         }
 327:Generated_Source\PSoC4/USBFS_std.c ****                         break;
 328:Generated_Source\PSoC4/USBFS_std.c ****                     case USBFS_RQST_RCPT_IFC:
 329:Generated_Source\PSoC4/USBFS_std.c ****                         /* Validate interfaceNumber */
 330:Generated_Source\PSoC4/USBFS_std.c ****                         if (USBFS_wIndexLoReg < USBFS_MAX_INTERFACES_NUMBER)
 331:Generated_Source\PSoC4/USBFS_std.c ****                         {
 332:Generated_Source\PSoC4/USBFS_std.c ****                             USBFS_interfaceStatus[USBFS_wIndexLoReg] &= (uint8) ~USBFS_wValueLoReg;
 333:Generated_Source\PSoC4/USBFS_std.c ****                             requestHandled = USBFS_InitNoDataControlTransfer();
 334:Generated_Source\PSoC4/USBFS_std.c ****                         }
 335:Generated_Source\PSoC4/USBFS_std.c ****                         break;
 336:Generated_Source\PSoC4/USBFS_std.c ****                     default:    /* requestHandled is initialized as FALSE by default */
 337:Generated_Source\PSoC4/USBFS_std.c ****                         break;
 338:Generated_Source\PSoC4/USBFS_std.c ****                 }
 339:Generated_Source\PSoC4/USBFS_std.c ****                 break;
 340:Generated_Source\PSoC4/USBFS_std.c ****                 
 341:Generated_Source\PSoC4/USBFS_std.c ****             case USBFS_SET_FEATURE:
 342:Generated_Source\PSoC4/USBFS_std.c ****                 switch (bmRequestType & USBFS_RQST_RCPT_MASK)
 343:Generated_Source\PSoC4/USBFS_std.c ****                 {
 344:Generated_Source\PSoC4/USBFS_std.c ****                     case USBFS_RQST_RCPT_EP:
 345:Generated_Source\PSoC4/USBFS_std.c ****                         if (USBFS_wValueLoReg == USBFS_ENDPOINT_HALT)
 346:Generated_Source\PSoC4/USBFS_std.c ****                         {
 347:Generated_Source\PSoC4/USBFS_std.c ****                             requestHandled = USBFS_SetEndpointHalt();
 348:Generated_Source\PSoC4/USBFS_std.c ****                         }
 349:Generated_Source\PSoC4/USBFS_std.c ****                         break;
 350:Generated_Source\PSoC4/USBFS_std.c ****                         
 351:Generated_Source\PSoC4/USBFS_std.c ****                     case USBFS_RQST_RCPT_DEV:
 352:Generated_Source\PSoC4/USBFS_std.c ****                         /* Set device REMOTE_WAKEUP */
 353:Generated_Source\PSoC4/USBFS_std.c ****                         if (USBFS_wValueLoReg == USBFS_DEVICE_REMOTE_WAKEUP)
 354:Generated_Source\PSoC4/USBFS_std.c ****                         {
 355:Generated_Source\PSoC4/USBFS_std.c ****                             USBFS_deviceStatus |= USBFS_DEVICE_STATUS_REMOTE_WAKEUP;
 356:Generated_Source\PSoC4/USBFS_std.c ****                             requestHandled = USBFS_InitNoDataControlTransfer();
 357:Generated_Source\PSoC4/USBFS_std.c ****                         }
 358:Generated_Source\PSoC4/USBFS_std.c ****                         break;
 359:Generated_Source\PSoC4/USBFS_std.c ****                         
 360:Generated_Source\PSoC4/USBFS_std.c ****                     case USBFS_RQST_RCPT_IFC:
 361:Generated_Source\PSoC4/USBFS_std.c ****                         /* Validate interfaceNumber */
 362:Generated_Source\PSoC4/USBFS_std.c ****                         if (USBFS_wIndexLoReg < USBFS_MAX_INTERFACES_NUMBER)
 363:Generated_Source\PSoC4/USBFS_std.c ****                         {
 364:Generated_Source\PSoC4/USBFS_std.c ****                             USBFS_interfaceStatus[USBFS_wIndexLoReg] &= (uint8) ~USBFS_wValueLoReg;
 365:Generated_Source\PSoC4/USBFS_std.c ****                             requestHandled = USBFS_InitNoDataControlTransfer();
 366:Generated_Source\PSoC4/USBFS_std.c ****                         }
 367:Generated_Source\PSoC4/USBFS_std.c ****                         break;
 368:Generated_Source\PSoC4/USBFS_std.c ****                     
 369:Generated_Source\PSoC4/USBFS_std.c ****                     default:    /* requestHandled is initialized as FALSE by default */
 370:Generated_Source\PSoC4/USBFS_std.c ****                         break;
 371:Generated_Source\PSoC4/USBFS_std.c ****                 }
 372:Generated_Source\PSoC4/USBFS_std.c ****                 break;
ARM GAS  C:\Users\User\AppData\Local\Temp\ccieNkfn.s 			page 8


 373:Generated_Source\PSoC4/USBFS_std.c ****                 
 374:Generated_Source\PSoC4/USBFS_std.c ****             default:    /* requestHandled is initialized as FALSE by default */
 375:Generated_Source\PSoC4/USBFS_std.c ****                 break;
 376:Generated_Source\PSoC4/USBFS_std.c ****         }
 377:Generated_Source\PSoC4/USBFS_std.c ****     }
 378:Generated_Source\PSoC4/USBFS_std.c ****     
 379:Generated_Source\PSoC4/USBFS_std.c ****     return (requestHandled);
 380:Generated_Source\PSoC4/USBFS_std.c **** }
 381:Generated_Source\PSoC4/USBFS_std.c **** 
 382:Generated_Source\PSoC4/USBFS_std.c **** 
 383:Generated_Source\PSoC4/USBFS_std.c **** #if defined(USBFS_ENABLE_IDSN_STRING)
 384:Generated_Source\PSoC4/USBFS_std.c ****     /***************************************************************************
 385:Generated_Source\PSoC4/USBFS_std.c ****     * Function Name: USBFS_ReadDieID
 386:Generated_Source\PSoC4/USBFS_std.c ****     ************************************************************************//**
 387:Generated_Source\PSoC4/USBFS_std.c ****     *
 388:Generated_Source\PSoC4/USBFS_std.c ****     *  This routine read Die ID and generate Serial Number string descriptor.
 389:Generated_Source\PSoC4/USBFS_std.c ****     *
 390:Generated_Source\PSoC4/USBFS_std.c ****     *  \param descr:  pointer on string descriptor. This string size has to be equal or
 391:Generated_Source\PSoC4/USBFS_std.c ****     *          greater than USBFS_IDSN_DESCR_LENGTH.
 392:Generated_Source\PSoC4/USBFS_std.c ****     *
 393:Generated_Source\PSoC4/USBFS_std.c ****     *
 394:Generated_Source\PSoC4/USBFS_std.c ****     * \reentrant
 395:Generated_Source\PSoC4/USBFS_std.c ****     *  No.
 396:Generated_Source\PSoC4/USBFS_std.c ****     *
 397:Generated_Source\PSoC4/USBFS_std.c ****     ***************************************************************************/
 398:Generated_Source\PSoC4/USBFS_std.c ****     void USBFS_ReadDieID(uint8 descr[]) 
 399:Generated_Source\PSoC4/USBFS_std.c ****     {
 400:Generated_Source\PSoC4/USBFS_std.c ****         const char8 CYCODE hex[] = "0123456789ABCDEF";
 401:Generated_Source\PSoC4/USBFS_std.c ****         uint32 i;
 402:Generated_Source\PSoC4/USBFS_std.c ****         uint32 j = 0u;
 403:Generated_Source\PSoC4/USBFS_std.c ****         uint8 uniqueId[8u];
 404:Generated_Source\PSoC4/USBFS_std.c **** 
 405:Generated_Source\PSoC4/USBFS_std.c ****         if (NULL != descr)
 406:Generated_Source\PSoC4/USBFS_std.c ****         {
 407:Generated_Source\PSoC4/USBFS_std.c ****             /* Initialize descriptor header. */
 408:Generated_Source\PSoC4/USBFS_std.c ****             descr[0u] = USBFS_IDSN_DESCR_LENGTH;
 409:Generated_Source\PSoC4/USBFS_std.c ****             descr[1u] = USBFS_DESCR_STRING;
 410:Generated_Source\PSoC4/USBFS_std.c ****             
 411:Generated_Source\PSoC4/USBFS_std.c ****             /* Unique ID size is 8 bytes. */
 412:Generated_Source\PSoC4/USBFS_std.c ****             CyGetUniqueId((uint32 *) uniqueId);
 413:Generated_Source\PSoC4/USBFS_std.c **** 
 414:Generated_Source\PSoC4/USBFS_std.c ****             /* Fill descriptor with unique device ID. */
 415:Generated_Source\PSoC4/USBFS_std.c ****             for (i = 2u; i < USBFS_IDSN_DESCR_LENGTH; i += 4u)
 416:Generated_Source\PSoC4/USBFS_std.c ****             {
 417:Generated_Source\PSoC4/USBFS_std.c ****                 descr[i]      = (uint8) hex[(uniqueId[j] >> 4u)];
 418:Generated_Source\PSoC4/USBFS_std.c ****                 descr[i + 1u] = 0u;
 419:Generated_Source\PSoC4/USBFS_std.c ****                 descr[i + 2u] = (uint8) hex[(uniqueId[j] & 0x0Fu)];
 420:Generated_Source\PSoC4/USBFS_std.c ****                 descr[i + 3u] = 0u;
 421:Generated_Source\PSoC4/USBFS_std.c ****                 ++j;
 422:Generated_Source\PSoC4/USBFS_std.c ****             }
 423:Generated_Source\PSoC4/USBFS_std.c ****         }
 424:Generated_Source\PSoC4/USBFS_std.c ****     }
 425:Generated_Source\PSoC4/USBFS_std.c **** #endif /* (USBFS_ENABLE_IDSN_STRING) */
 426:Generated_Source\PSoC4/USBFS_std.c **** 
 427:Generated_Source\PSoC4/USBFS_std.c **** 
 428:Generated_Source\PSoC4/USBFS_std.c **** /*******************************************************************************
 429:Generated_Source\PSoC4/USBFS_std.c **** * Function Name: USBFS_ConfigReg
ARM GAS  C:\Users\User\AppData\Local\Temp\ccieNkfn.s 			page 9


 430:Generated_Source\PSoC4/USBFS_std.c **** ****************************************************************************//**
 431:Generated_Source\PSoC4/USBFS_std.c **** *
 432:Generated_Source\PSoC4/USBFS_std.c **** *  This routine configures hardware registers from the variables.
 433:Generated_Source\PSoC4/USBFS_std.c **** *  It is called from USBFS_Config() function and from RestoreConfig
 434:Generated_Source\PSoC4/USBFS_std.c **** *  after Wakeup.
 435:Generated_Source\PSoC4/USBFS_std.c **** *
 436:Generated_Source\PSoC4/USBFS_std.c **** *******************************************************************************/
 437:Generated_Source\PSoC4/USBFS_std.c **** void USBFS_ConfigReg(void) 
 438:Generated_Source\PSoC4/USBFS_std.c **** {
  28              		.loc 1 438 0
  29              		.cfi_startproc
  30              		@ args = 0, pretend = 0, frame = 0
  31              		@ frame_needed = 0, uses_anonymous_args = 0
  32 0000 10B5     		push	{r4, lr}
  33              		.cfi_def_cfa_offset 8
  34              		.cfi_offset 4, -8
  35              		.cfi_offset 14, -4
  36              	.LVL0:
 439:Generated_Source\PSoC4/USBFS_std.c ****     uint32 ep;
 440:Generated_Source\PSoC4/USBFS_std.c **** 
 441:Generated_Source\PSoC4/USBFS_std.c **** #if (USBFS_EP_MANAGEMENT_DMA_AUTO)
 442:Generated_Source\PSoC4/USBFS_std.c ****     uint8 epType = 0u;
 443:Generated_Source\PSoC4/USBFS_std.c **** #endif /* (USBFS_EP_MANAGEMENT_DMA_AUTO) */
 444:Generated_Source\PSoC4/USBFS_std.c **** 
 445:Generated_Source\PSoC4/USBFS_std.c ****     /* Go thought all endpoints and set hardware configuration */
 446:Generated_Source\PSoC4/USBFS_std.c ****     for (ep = USBFS_EP1; ep < USBFS_MAX_EP; ++ep)
  37              		.loc 1 446 0
  38 0002 0123     		movs	r3, #1
  39 0004 38E0     		b	.L2
  40              	.LVL1:
  41              	.L6:
 447:Generated_Source\PSoC4/USBFS_std.c ****     {
 448:Generated_Source\PSoC4/USBFS_std.c ****         USBFS_ARB_EP_BASE.arbEp[ep].epCfg = USBFS_ARB_EPX_CFG_DEFAULT;
  42              		.loc 1 448 0
  43 0006 9A01     		lsls	r2, r3, #6
  44 0008 0C20     		movs	r0, #12
  45 000a 1E49     		ldr	r1, .L7
  46 000c 5050     		str	r0, [r2, r1]
 449:Generated_Source\PSoC4/USBFS_std.c ****         
 450:Generated_Source\PSoC4/USBFS_std.c ****     #if (USBFS_EP_MANAGEMENT_DMA)
 451:Generated_Source\PSoC4/USBFS_std.c ****         /* Enable arbiter endpoint interrupt sources */
 452:Generated_Source\PSoC4/USBFS_std.c ****         USBFS_ARB_EP_BASE.arbEp[ep].epIntEn = USBFS_ARB_EPX_INT_MASK;
 453:Generated_Source\PSoC4/USBFS_std.c ****     #endif /* (USBFS_EP_MANAGEMENT_DMA) */
 454:Generated_Source\PSoC4/USBFS_std.c ****     
 455:Generated_Source\PSoC4/USBFS_std.c ****         if (USBFS_EP[ep].epMode != USBFS_MODE_DISABLE)
  47              		.loc 1 455 0
  48 000e 5900     		lsls	r1, r3, #1
  49 0010 C918     		adds	r1, r1, r3
  50 0012 8A00     		lsls	r2, r1, #2
  51 0014 1C49     		ldr	r1, .L7+4
  52 0016 8A18     		adds	r2, r1, r2
  53 0018 5279     		ldrb	r2, [r2, #5]
  54 001a 002A     		cmp	r2, #0
  55 001c 16D0     		beq	.L3
 456:Generated_Source\PSoC4/USBFS_std.c ****         {
 457:Generated_Source\PSoC4/USBFS_std.c ****             if (0u != (USBFS_EP[ep].addr & USBFS_DIR_IN))
  56              		.loc 1 457 0
ARM GAS  C:\Users\User\AppData\Local\Temp\ccieNkfn.s 			page 10


  57 001e 5900     		lsls	r1, r3, #1
  58 0020 C918     		adds	r1, r1, r3
  59 0022 8A00     		lsls	r2, r1, #2
  60 0024 1849     		ldr	r1, .L7+4
  61 0026 8A18     		adds	r2, r1, r2
  62 0028 1279     		ldrb	r2, [r2, #4]
  63 002a 52B2     		sxtb	r2, r2
  64 002c 002A     		cmp	r2, #0
  65 002e 06DA     		bge	.L4
 458:Generated_Source\PSoC4/USBFS_std.c ****             {
 459:Generated_Source\PSoC4/USBFS_std.c ****                 USBFS_SIE_EP_BASE.sieEp[ep].epCr0 = USBFS_MODE_NAK_IN;
  66              		.loc 1 459 0
  67 0030 9A01     		lsls	r2, r3, #6
  68 0032 1649     		ldr	r1, .L7+8
  69 0034 8C46     		mov	ip, r1
  70 0036 6244     		add	r2, r2, ip
  71 0038 0C21     		movs	r1, #12
  72 003a 9160     		str	r1, [r2, #8]
  73 003c 0CE0     		b	.L5
  74              	.L4:
 460:Generated_Source\PSoC4/USBFS_std.c ****                 
 461:Generated_Source\PSoC4/USBFS_std.c ****             #if (USBFS_EP_MANAGEMENT_DMA_AUTO && CY_PSOC4)
 462:Generated_Source\PSoC4/USBFS_std.c ****                 /* Clear DMA_TERMIN for IN endpoint. */
 463:Generated_Source\PSoC4/USBFS_std.c ****                 USBFS_ARB_EP_BASE.arbEp[ep].epIntEn &= (uint32) ~USBFS_ARB_EPX_INT_DMA_TERMIN;
 464:Generated_Source\PSoC4/USBFS_std.c ****             #endif /* (USBFS_EP_MANAGEMENT_DMA_AUTO && CY_PSOC4) */
 465:Generated_Source\PSoC4/USBFS_std.c ****             }
 466:Generated_Source\PSoC4/USBFS_std.c ****             else
 467:Generated_Source\PSoC4/USBFS_std.c ****             {
 468:Generated_Source\PSoC4/USBFS_std.c ****                 USBFS_SIE_EP_BASE.sieEp[ep].epCr0 = USBFS_MODE_NAK_OUT;
  75              		.loc 1 468 0
  76 003e 9A01     		lsls	r2, r3, #6
  77 0040 1249     		ldr	r1, .L7+8
  78 0042 8C46     		mov	ip, r1
  79 0044 6244     		add	r2, r2, ip
  80 0046 0821     		movs	r1, #8
  81 0048 9160     		str	r1, [r2, #8]
  82 004a 05E0     		b	.L5
  83              	.L3:
 469:Generated_Source\PSoC4/USBFS_std.c **** 
 470:Generated_Source\PSoC4/USBFS_std.c ****             #if (USBFS_EP_MANAGEMENT_DMA_AUTO)
 471:Generated_Source\PSoC4/USBFS_std.c ****                 /* (CY_PSOC4): DMA_TERMIN for OUT endpoint is set above. */
 472:Generated_Source\PSoC4/USBFS_std.c ****                 
 473:Generated_Source\PSoC4/USBFS_std.c ****                 /* Prepare endpoint type mask. */
 474:Generated_Source\PSoC4/USBFS_std.c ****                 epType |= (uint8) (0x01u << (ep - USBFS_EP1));
 475:Generated_Source\PSoC4/USBFS_std.c ****             #endif /* (USBFS_EP_MANAGEMENT_DMA_AUTO) */
 476:Generated_Source\PSoC4/USBFS_std.c ****             }
 477:Generated_Source\PSoC4/USBFS_std.c ****         }
 478:Generated_Source\PSoC4/USBFS_std.c ****         else
 479:Generated_Source\PSoC4/USBFS_std.c ****         {
 480:Generated_Source\PSoC4/USBFS_std.c ****             USBFS_SIE_EP_BASE.sieEp[ep].epCr0 = USBFS_MODE_STALL_DATA_EP;
  84              		.loc 1 480 0
  85 004c 9A01     		lsls	r2, r3, #6
  86 004e 0F49     		ldr	r1, .L7+8
  87 0050 8C46     		mov	ip, r1
  88 0052 6244     		add	r2, r2, ip
  89 0054 8021     		movs	r1, #128
  90 0056 9160     		str	r1, [r2, #8]
ARM GAS  C:\Users\User\AppData\Local\Temp\ccieNkfn.s 			page 11


  91              	.L5:
 481:Generated_Source\PSoC4/USBFS_std.c ****         }
 482:Generated_Source\PSoC4/USBFS_std.c ****         
 483:Generated_Source\PSoC4/USBFS_std.c ****     #if (!USBFS_EP_MANAGEMENT_DMA_AUTO)
 484:Generated_Source\PSoC4/USBFS_std.c ****         #if (CY_PSOC4)
 485:Generated_Source\PSoC4/USBFS_std.c ****             USBFS_ARB_EP16_BASE.arbEp[ep].rwRa16  = (uint32) USBFS_EP[ep].buffOffset;
  92              		.loc 1 485 0 discriminator 2
  93 0058 5900     		lsls	r1, r3, #1
  94 005a C918     		adds	r1, r1, r3
  95 005c 8A00     		lsls	r2, r1, #2
  96 005e 0A49     		ldr	r1, .L7+4
  97 0060 8A18     		adds	r2, r1, r2
  98 0062 D188     		ldrh	r1, [r2, #6]
  99 0064 89B2     		uxth	r1, r1
 100 0066 9801     		lsls	r0, r3, #6
 101 0068 094C     		ldr	r4, .L7+12
 102 006a 0419     		adds	r4, r0, r4
 103 006c A160     		str	r1, [r4, #8]
 486:Generated_Source\PSoC4/USBFS_std.c ****             USBFS_ARB_EP16_BASE.arbEp[ep].rwWa16  = (uint32) USBFS_EP[ep].buffOffset;
 104              		.loc 1 486 0 discriminator 2
 105 006e D288     		ldrh	r2, [r2, #6]
 106 0070 92B2     		uxth	r2, r2
 107 0072 0749     		ldr	r1, .L7+12
 108 0074 4250     		str	r2, [r0, r1]
 446:Generated_Source\PSoC4/USBFS_std.c ****     {
 109              		.loc 1 446 0 discriminator 2
 110 0076 0133     		adds	r3, r3, #1
 111              	.LVL2:
 112              	.L2:
 446:Generated_Source\PSoC4/USBFS_std.c ****     {
 113              		.loc 1 446 0 is_stmt 0 discriminator 1
 114 0078 082B     		cmp	r3, #8
 115 007a C4D9     		bls	.L6
 487:Generated_Source\PSoC4/USBFS_std.c ****         #else
 488:Generated_Source\PSoC4/USBFS_std.c ****             USBFS_ARB_EP_BASE.arbEp[ep].rwRa    = LO8(USBFS_EP[ep].buffOffset);
 489:Generated_Source\PSoC4/USBFS_std.c ****             USBFS_ARB_EP_BASE.arbEp[ep].rwRaMsb = HI8(USBFS_EP[ep].buffOffset);
 490:Generated_Source\PSoC4/USBFS_std.c ****             USBFS_ARB_EP_BASE.arbEp[ep].rwWa    = LO8(USBFS_EP[ep].buffOffset);
 491:Generated_Source\PSoC4/USBFS_std.c ****             USBFS_ARB_EP_BASE.arbEp[ep].rwWaMsb = HI8(USBFS_EP[ep].buffOffset);
 492:Generated_Source\PSoC4/USBFS_std.c ****         #endif /* (CY_PSOC4) */
 493:Generated_Source\PSoC4/USBFS_std.c ****     #endif /* (!USBFS_EP_MANAGEMENT_DMA_AUTO) */
 494:Generated_Source\PSoC4/USBFS_std.c ****     }
 495:Generated_Source\PSoC4/USBFS_std.c **** 
 496:Generated_Source\PSoC4/USBFS_std.c **** #if (USBFS_EP_MANAGEMENT_DMA_AUTO)
 497:Generated_Source\PSoC4/USBFS_std.c ****      /* BUF_SIZE depend on DMA_THRESS value:0x55-32 bytes  0x44-16 bytes 0x33-8 bytes 0x22-4 bytes 
 498:Generated_Source\PSoC4/USBFS_std.c ****     USBFS_BUF_SIZE_REG = USBFS_DMA_BUF_SIZE;
 499:Generated_Source\PSoC4/USBFS_std.c **** 
 500:Generated_Source\PSoC4/USBFS_std.c ****     /* Configure DMA burst threshold */
 501:Generated_Source\PSoC4/USBFS_std.c **** #if (CY_PSOC4)
 502:Generated_Source\PSoC4/USBFS_std.c ****     USBFS_DMA_THRES16_REG   = USBFS_DMA_BYTES_PER_BURST;
 503:Generated_Source\PSoC4/USBFS_std.c **** #else
 504:Generated_Source\PSoC4/USBFS_std.c ****     USBFS_DMA_THRES_REG     = USBFS_DMA_BYTES_PER_BURST;
 505:Generated_Source\PSoC4/USBFS_std.c ****     USBFS_DMA_THRES_MSB_REG = 0u;
 506:Generated_Source\PSoC4/USBFS_std.c **** #endif /* (CY_PSOC4) */
 507:Generated_Source\PSoC4/USBFS_std.c ****     USBFS_EP_ACTIVE_REG = USBFS_DEFAULT_ARB_INT_EN;
 508:Generated_Source\PSoC4/USBFS_std.c ****     USBFS_EP_TYPE_REG   = epType;
 509:Generated_Source\PSoC4/USBFS_std.c ****     
 510:Generated_Source\PSoC4/USBFS_std.c ****     /* Cfg_cmp bit set to 1 once configuration is complete. */
ARM GAS  C:\Users\User\AppData\Local\Temp\ccieNkfn.s 			page 12


 511:Generated_Source\PSoC4/USBFS_std.c ****     /* Lock arbiter configtuation */
 512:Generated_Source\PSoC4/USBFS_std.c ****     USBFS_ARB_CFG_REG |= (uint32)  USBFS_ARB_CFG_CFG_CMP;
 513:Generated_Source\PSoC4/USBFS_std.c ****     /* Cfg_cmp bit set to 0 during configuration of PFSUSB Registers. */
 514:Generated_Source\PSoC4/USBFS_std.c ****     USBFS_ARB_CFG_REG &= (uint32) ~USBFS_ARB_CFG_CFG_CMP;
 515:Generated_Source\PSoC4/USBFS_std.c **** 
 516:Generated_Source\PSoC4/USBFS_std.c **** #endif /* (USBFS_EP_MANAGEMENT_DMA_AUTO) */
 517:Generated_Source\PSoC4/USBFS_std.c **** 
 518:Generated_Source\PSoC4/USBFS_std.c ****     /* Enable interrupt SIE interurpt source from EP0-EP1 */
 519:Generated_Source\PSoC4/USBFS_std.c ****     USBFS_SIE_EP_INT_EN_REG = (uint32) USBFS_DEFAULT_SIE_EP_INT_EN;
 116              		.loc 1 519 0 is_stmt 1
 117 007c FF22     		movs	r2, #255
 118 007e 054B     		ldr	r3, .L7+16
 119              	.LVL3:
 120 0080 1A60     		str	r2, [r3]
 520:Generated_Source\PSoC4/USBFS_std.c **** }
 121              		.loc 1 520 0
 122              		@ sp needed
 123 0082 10BD     		pop	{r4, pc}
 124              	.L8:
 125              		.align	2
 126              	.L7:
 127 0084 C0012C40 		.word	1076625856
 128 0088 00000000 		.word	USBFS_EP
 129 008c F0FF2B40 		.word	1076625392
 130 0090 D0112C40 		.word	1076629968
 131 0094 28002C40 		.word	1076625448
 132              		.cfi_endproc
 133              	.LFE2:
 134              		.size	USBFS_ConfigReg, .-USBFS_ConfigReg
 135              		.section	.text.USBFS_EpStateInit,"ax",%progbits
 136              		.align	2
 137              		.global	USBFS_EpStateInit
 138              		.code	16
 139              		.thumb_func
 140              		.type	USBFS_EpStateInit, %function
 141              	USBFS_EpStateInit:
 142              	.LFB3:
 521:Generated_Source\PSoC4/USBFS_std.c **** 
 522:Generated_Source\PSoC4/USBFS_std.c **** 
 523:Generated_Source\PSoC4/USBFS_std.c **** /*******************************************************************************
 524:Generated_Source\PSoC4/USBFS_std.c **** * Function Name: USBFS_EpStateInit
 525:Generated_Source\PSoC4/USBFS_std.c **** ****************************************************************************//**
 526:Generated_Source\PSoC4/USBFS_std.c **** *
 527:Generated_Source\PSoC4/USBFS_std.c **** *  This routine initialize state of Data end points based of its type: 
 528:Generated_Source\PSoC4/USBFS_std.c **** *   IN  - USBFS_IN_BUFFER_EMPTY (USBFS_EVENT_PENDING)
 529:Generated_Source\PSoC4/USBFS_std.c **** *   OUT - USBFS_OUT_BUFFER_EMPTY (USBFS_NO_EVENT_PENDING)
 530:Generated_Source\PSoC4/USBFS_std.c **** *
 531:Generated_Source\PSoC4/USBFS_std.c **** *******************************************************************************/
 532:Generated_Source\PSoC4/USBFS_std.c **** void USBFS_EpStateInit(void) 
 533:Generated_Source\PSoC4/USBFS_std.c **** {
 143              		.loc 1 533 0
 144              		.cfi_startproc
 145              		@ args = 0, pretend = 0, frame = 0
 146              		@ frame_needed = 0, uses_anonymous_args = 0
 147              		@ link register save eliminated.
 148              	.LVL4:
 534:Generated_Source\PSoC4/USBFS_std.c ****     uint8 i;
ARM GAS  C:\Users\User\AppData\Local\Temp\ccieNkfn.s 			page 13


 535:Generated_Source\PSoC4/USBFS_std.c **** 
 536:Generated_Source\PSoC4/USBFS_std.c ****     for (i = USBFS_EP1; i < USBFS_MAX_EP; i++)
 149              		.loc 1 536 0
 150 0000 0123     		movs	r3, #1
 151 0002 19E0     		b	.L10
 152              	.LVL5:
 153              	.L13:
 537:Generated_Source\PSoC4/USBFS_std.c ****     { 
 538:Generated_Source\PSoC4/USBFS_std.c ****         if (0u != (USBFS_EP[i].addr & USBFS_DIR_IN))
 154              		.loc 1 538 0
 155 0004 5900     		lsls	r1, r3, #1
 156 0006 C918     		adds	r1, r1, r3
 157 0008 8A00     		lsls	r2, r1, #2
 158 000a 0D49     		ldr	r1, .L14
 159 000c 8A18     		adds	r2, r1, r2
 160 000e 1279     		ldrb	r2, [r2, #4]
 161 0010 52B2     		sxtb	r2, r2
 162 0012 002A     		cmp	r2, #0
 163 0014 07DA     		bge	.L11
 539:Generated_Source\PSoC4/USBFS_std.c ****         {
 540:Generated_Source\PSoC4/USBFS_std.c ****             /* IN Endpoint */
 541:Generated_Source\PSoC4/USBFS_std.c ****             USBFS_EP[i].apiEpState = USBFS_EVENT_PENDING;
 164              		.loc 1 541 0
 165 0016 5900     		lsls	r1, r3, #1
 166 0018 C918     		adds	r1, r1, r3
 167 001a 8A00     		lsls	r2, r1, #2
 168 001c 0849     		ldr	r1, .L14
 169 001e 8A18     		adds	r2, r1, r2
 170 0020 0121     		movs	r1, #1
 171 0022 5170     		strb	r1, [r2, #1]
 172 0024 06E0     		b	.L12
 173              	.L11:
 542:Generated_Source\PSoC4/USBFS_std.c ****         }
 543:Generated_Source\PSoC4/USBFS_std.c ****         else
 544:Generated_Source\PSoC4/USBFS_std.c ****         {
 545:Generated_Source\PSoC4/USBFS_std.c ****             /* OUT Endpoint */
 546:Generated_Source\PSoC4/USBFS_std.c ****             USBFS_EP[i].apiEpState = USBFS_NO_EVENT_PENDING;
 174              		.loc 1 546 0
 175 0026 5900     		lsls	r1, r3, #1
 176 0028 C918     		adds	r1, r1, r3
 177 002a 8A00     		lsls	r2, r1, #2
 178 002c 0449     		ldr	r1, .L14
 179 002e 8A18     		adds	r2, r1, r2
 180 0030 0021     		movs	r1, #0
 181 0032 5170     		strb	r1, [r2, #1]
 182              	.L12:
 536:Generated_Source\PSoC4/USBFS_std.c ****     { 
 183              		.loc 1 536 0 discriminator 2
 184 0034 0133     		adds	r3, r3, #1
 185              	.LVL6:
 186 0036 DBB2     		uxtb	r3, r3
 187              	.LVL7:
 188              	.L10:
 536:Generated_Source\PSoC4/USBFS_std.c ****     { 
 189              		.loc 1 536 0 is_stmt 0 discriminator 1
 190 0038 082B     		cmp	r3, #8
 191 003a E3D9     		bls	.L13
ARM GAS  C:\Users\User\AppData\Local\Temp\ccieNkfn.s 			page 14


 547:Generated_Source\PSoC4/USBFS_std.c ****         }
 548:Generated_Source\PSoC4/USBFS_std.c ****     }
 549:Generated_Source\PSoC4/USBFS_std.c ****                     
 550:Generated_Source\PSoC4/USBFS_std.c **** }
 192              		.loc 1 550 0 is_stmt 1
 193              		@ sp needed
 194 003c 7047     		bx	lr
 195              	.L15:
 196 003e C046     		.align	2
 197              	.L14:
 198 0040 00000000 		.word	USBFS_EP
 199              		.cfi_endproc
 200              	.LFE3:
 201              		.size	USBFS_EpStateInit, .-USBFS_EpStateInit
 202              		.section	.text.USBFS_GetConfigTablePtr,"ax",%progbits
 203              		.align	2
 204              		.global	USBFS_GetConfigTablePtr
 205              		.code	16
 206              		.thumb_func
 207              		.type	USBFS_GetConfigTablePtr, %function
 208              	USBFS_GetConfigTablePtr:
 209              	.LFB6:
 551:Generated_Source\PSoC4/USBFS_std.c **** 
 552:Generated_Source\PSoC4/USBFS_std.c **** 
 553:Generated_Source\PSoC4/USBFS_std.c **** /*******************************************************************************
 554:Generated_Source\PSoC4/USBFS_std.c **** * Function Name: USBFS_Config
 555:Generated_Source\PSoC4/USBFS_std.c **** ****************************************************************************//**
 556:Generated_Source\PSoC4/USBFS_std.c **** *
 557:Generated_Source\PSoC4/USBFS_std.c **** *  This routine configures endpoints for the entire configuration by scanning
 558:Generated_Source\PSoC4/USBFS_std.c **** *  the configuration descriptor.
 559:Generated_Source\PSoC4/USBFS_std.c **** *
 560:Generated_Source\PSoC4/USBFS_std.c **** *  \param clearAltSetting: It configures the bAlternateSetting 0 for each interface.
 561:Generated_Source\PSoC4/USBFS_std.c **** *
 562:Generated_Source\PSoC4/USBFS_std.c **** * USBFS_interfaceClass - Initialized class array for each interface.
 563:Generated_Source\PSoC4/USBFS_std.c **** *   It is used for handling Class specific requests depend on interface class.
 564:Generated_Source\PSoC4/USBFS_std.c **** *   Different classes in multiple Alternate settings does not supported.
 565:Generated_Source\PSoC4/USBFS_std.c **** *
 566:Generated_Source\PSoC4/USBFS_std.c **** * \reentrant
 567:Generated_Source\PSoC4/USBFS_std.c **** *  No.
 568:Generated_Source\PSoC4/USBFS_std.c **** *
 569:Generated_Source\PSoC4/USBFS_std.c **** *******************************************************************************/
 570:Generated_Source\PSoC4/USBFS_std.c **** void USBFS_Config(uint8 clearAltSetting) 
 571:Generated_Source\PSoC4/USBFS_std.c **** {
 572:Generated_Source\PSoC4/USBFS_std.c ****     uint8 ep;
 573:Generated_Source\PSoC4/USBFS_std.c ****     uint8 curEp;
 574:Generated_Source\PSoC4/USBFS_std.c ****     uint8 i;
 575:Generated_Source\PSoC4/USBFS_std.c ****     uint8 epType;
 576:Generated_Source\PSoC4/USBFS_std.c ****     const uint8 *pDescr;
 577:Generated_Source\PSoC4/USBFS_std.c ****     
 578:Generated_Source\PSoC4/USBFS_std.c ****     #if (!USBFS_EP_MANAGEMENT_DMA_AUTO)
 579:Generated_Source\PSoC4/USBFS_std.c ****         uint16 buffCount = 0u;
 580:Generated_Source\PSoC4/USBFS_std.c ****     #endif /* (!USBFS_EP_MANAGEMENT_DMA_AUTO) */
 581:Generated_Source\PSoC4/USBFS_std.c **** 
 582:Generated_Source\PSoC4/USBFS_std.c ****     const T_USBFS_LUT CYCODE *pTmp;
 583:Generated_Source\PSoC4/USBFS_std.c ****     const T_USBFS_EP_SETTINGS_BLOCK CYCODE *pEP;
 584:Generated_Source\PSoC4/USBFS_std.c **** 
 585:Generated_Source\PSoC4/USBFS_std.c ****     /* Clear endpoints settings */
ARM GAS  C:\Users\User\AppData\Local\Temp\ccieNkfn.s 			page 15


 586:Generated_Source\PSoC4/USBFS_std.c ****     for (ep = 0u; ep < USBFS_MAX_EP; ++ep)
 587:Generated_Source\PSoC4/USBFS_std.c ****     {
 588:Generated_Source\PSoC4/USBFS_std.c ****         USBFS_EP[ep].attrib     = 0u;
 589:Generated_Source\PSoC4/USBFS_std.c ****         USBFS_EP[ep].hwEpState  = 0u;
 590:Generated_Source\PSoC4/USBFS_std.c ****         USBFS_EP[ep].epToggle   = 0u;
 591:Generated_Source\PSoC4/USBFS_std.c ****         USBFS_EP[ep].bufferSize = 0u;
 592:Generated_Source\PSoC4/USBFS_std.c ****         USBFS_EP[ep].interface  = 0u;
 593:Generated_Source\PSoC4/USBFS_std.c ****         USBFS_EP[ep].apiEpState = USBFS_NO_EVENT_PENDING;
 594:Generated_Source\PSoC4/USBFS_std.c ****         USBFS_EP[ep].epMode     = USBFS_MODE_DISABLE;   
 595:Generated_Source\PSoC4/USBFS_std.c ****     }
 596:Generated_Source\PSoC4/USBFS_std.c **** 
 597:Generated_Source\PSoC4/USBFS_std.c ****     /* Clear Alternate settings for all interfaces. */
 598:Generated_Source\PSoC4/USBFS_std.c ****     if (0u != clearAltSetting)
 599:Generated_Source\PSoC4/USBFS_std.c ****     {
 600:Generated_Source\PSoC4/USBFS_std.c ****         for (i = 0u; i < USBFS_MAX_INTERFACES_NUMBER; ++i)
 601:Generated_Source\PSoC4/USBFS_std.c ****         {
 602:Generated_Source\PSoC4/USBFS_std.c ****             USBFS_interfaceSetting[i]     = 0u;
 603:Generated_Source\PSoC4/USBFS_std.c ****             USBFS_interfaceSettingLast[i] = 0u;
 604:Generated_Source\PSoC4/USBFS_std.c ****         }
 605:Generated_Source\PSoC4/USBFS_std.c ****     }
 606:Generated_Source\PSoC4/USBFS_std.c **** 
 607:Generated_Source\PSoC4/USBFS_std.c ****     /* Init Endpoints and Device Status if configured */
 608:Generated_Source\PSoC4/USBFS_std.c ****     if (USBFS_configuration > 0u)
 609:Generated_Source\PSoC4/USBFS_std.c ****     {
 610:Generated_Source\PSoC4/USBFS_std.c ****         #if defined(USBFS_ENABLE_CDC_CLASS)
 611:Generated_Source\PSoC4/USBFS_std.c ****             uint8 cdcComNums = 0u;
 612:Generated_Source\PSoC4/USBFS_std.c ****         #endif  /* (USBFS_ENABLE_CDC_CLASS) */  
 613:Generated_Source\PSoC4/USBFS_std.c **** 
 614:Generated_Source\PSoC4/USBFS_std.c ****         pTmp = USBFS_GetConfigTablePtr(USBFS_configuration - 1u);
 615:Generated_Source\PSoC4/USBFS_std.c ****         
 616:Generated_Source\PSoC4/USBFS_std.c ****         /* Set Power status for current configuration */
 617:Generated_Source\PSoC4/USBFS_std.c ****         pDescr = (const uint8 *)pTmp->p_list;
 618:Generated_Source\PSoC4/USBFS_std.c ****         if ((pDescr[USBFS_CONFIG_DESCR_ATTRIB] & USBFS_CONFIG_DESCR_ATTRIB_SELF_POWERED) != 0u)
 619:Generated_Source\PSoC4/USBFS_std.c ****         {
 620:Generated_Source\PSoC4/USBFS_std.c ****             USBFS_deviceStatus |= (uint8)  USBFS_DEVICE_STATUS_SELF_POWERED;
 621:Generated_Source\PSoC4/USBFS_std.c ****         }
 622:Generated_Source\PSoC4/USBFS_std.c ****         else
 623:Generated_Source\PSoC4/USBFS_std.c ****         {
 624:Generated_Source\PSoC4/USBFS_std.c ****             USBFS_deviceStatus &= (uint8) ~USBFS_DEVICE_STATUS_SELF_POWERED;
 625:Generated_Source\PSoC4/USBFS_std.c ****         }
 626:Generated_Source\PSoC4/USBFS_std.c ****         
 627:Generated_Source\PSoC4/USBFS_std.c ****         /* Move to next element */
 628:Generated_Source\PSoC4/USBFS_std.c ****         pTmp = &pTmp[1u];
 629:Generated_Source\PSoC4/USBFS_std.c ****         ep = pTmp->c;  /* For this table, c is the number of endpoints configurations  */
 630:Generated_Source\PSoC4/USBFS_std.c **** 
 631:Generated_Source\PSoC4/USBFS_std.c ****         #if (USBFS_EP_MANAGEMENT_MANUAL && USBFS_EP_ALLOC_DYNAMIC)
 632:Generated_Source\PSoC4/USBFS_std.c ****             /* Configure for dynamic EP memory allocation */
 633:Generated_Source\PSoC4/USBFS_std.c ****             /* p_list points the endpoint setting table. */
 634:Generated_Source\PSoC4/USBFS_std.c ****             pEP = (T_USBFS_EP_SETTINGS_BLOCK *) pTmp->p_list;
 635:Generated_Source\PSoC4/USBFS_std.c ****             
 636:Generated_Source\PSoC4/USBFS_std.c ****             for (i = 0u; i < ep; i++)
 637:Generated_Source\PSoC4/USBFS_std.c ****             {     
 638:Generated_Source\PSoC4/USBFS_std.c ****                 /* Compare current Alternate setting with EP Alt */
 639:Generated_Source\PSoC4/USBFS_std.c ****                 if (USBFS_interfaceSetting[pEP->interface] == pEP->altSetting)
 640:Generated_Source\PSoC4/USBFS_std.c ****                 {                                                          
 641:Generated_Source\PSoC4/USBFS_std.c ****                     curEp  = pEP->addr & USBFS_DIR_UNUSED;
 642:Generated_Source\PSoC4/USBFS_std.c ****                     epType = pEP->attributes & USBFS_EP_TYPE_MASK;
ARM GAS  C:\Users\User\AppData\Local\Temp\ccieNkfn.s 			page 16


 643:Generated_Source\PSoC4/USBFS_std.c ****                     
 644:Generated_Source\PSoC4/USBFS_std.c ****                     USBFS_EP[curEp].addr       = pEP->addr;
 645:Generated_Source\PSoC4/USBFS_std.c ****                     USBFS_EP[curEp].attrib     = pEP->attributes;
 646:Generated_Source\PSoC4/USBFS_std.c ****                     USBFS_EP[curEp].bufferSize = pEP->bufferSize;
 647:Generated_Source\PSoC4/USBFS_std.c **** 
 648:Generated_Source\PSoC4/USBFS_std.c ****                     if (0u != (pEP->addr & USBFS_DIR_IN))
 649:Generated_Source\PSoC4/USBFS_std.c ****                     {
 650:Generated_Source\PSoC4/USBFS_std.c ****                         /* IN Endpoint */
 651:Generated_Source\PSoC4/USBFS_std.c ****                         USBFS_EP[curEp].epMode     = USBFS_GET_ACTIVE_IN_EP_CR0_MODE(epType);
 652:Generated_Source\PSoC4/USBFS_std.c ****                         USBFS_EP[curEp].apiEpState = USBFS_EVENT_PENDING;
 653:Generated_Source\PSoC4/USBFS_std.c ****                     
 654:Generated_Source\PSoC4/USBFS_std.c ****                     #if (defined(USBFS_ENABLE_MIDI_STREAMING) && (USBFS_MIDI_IN_BUFF_SIZE > 0))
 655:Generated_Source\PSoC4/USBFS_std.c ****                         if ((pEP->bMisc == USBFS_CLASS_AUDIO) && (epType == USBFS_EP_TYPE_BULK))
 656:Generated_Source\PSoC4/USBFS_std.c ****                         {
 657:Generated_Source\PSoC4/USBFS_std.c ****                             USBFS_midi_in_ep = curEp;
 658:Generated_Source\PSoC4/USBFS_std.c ****                         }
 659:Generated_Source\PSoC4/USBFS_std.c ****                     #endif  /* (USBFS_ENABLE_MIDI_STREAMING) */
 660:Generated_Source\PSoC4/USBFS_std.c ****                     }
 661:Generated_Source\PSoC4/USBFS_std.c ****                     else
 662:Generated_Source\PSoC4/USBFS_std.c ****                     {
 663:Generated_Source\PSoC4/USBFS_std.c ****                         /* OUT Endpoint */
 664:Generated_Source\PSoC4/USBFS_std.c ****                         USBFS_EP[curEp].epMode     = USBFS_GET_ACTIVE_OUT_EP_CR0_MODE(epType);
 665:Generated_Source\PSoC4/USBFS_std.c ****                         USBFS_EP[curEp].apiEpState = USBFS_NO_EVENT_PENDING;
 666:Generated_Source\PSoC4/USBFS_std.c ****                         
 667:Generated_Source\PSoC4/USBFS_std.c ****                     #if (defined(USBFS_ENABLE_MIDI_STREAMING) && (USBFS_MIDI_OUT_BUFF_SIZE > 0))
 668:Generated_Source\PSoC4/USBFS_std.c ****                         if ((pEP->bMisc == USBFS_CLASS_AUDIO) && (epType == USBFS_EP_TYPE_BULK))
 669:Generated_Source\PSoC4/USBFS_std.c ****                         {
 670:Generated_Source\PSoC4/USBFS_std.c ****                             USBFS_midi_out_ep = curEp;
 671:Generated_Source\PSoC4/USBFS_std.c ****                         }
 672:Generated_Source\PSoC4/USBFS_std.c ****                     #endif  /* (USBFS_ENABLE_MIDI_STREAMING) */
 673:Generated_Source\PSoC4/USBFS_std.c ****                     }
 674:Generated_Source\PSoC4/USBFS_std.c **** 
 675:Generated_Source\PSoC4/USBFS_std.c ****                 #if(defined (USBFS_ENABLE_CDC_CLASS))
 676:Generated_Source\PSoC4/USBFS_std.c ****                     if((pEP->bMisc == USBFS_CLASS_CDC_DATA) ||(pEP->bMisc == USBFS_CLASS_CDC))
 677:Generated_Source\PSoC4/USBFS_std.c ****                     {
 678:Generated_Source\PSoC4/USBFS_std.c ****                         cdcComNums = USBFS_Cdc_EpInit(pEP, curEp, cdcComNums);
 679:Generated_Source\PSoC4/USBFS_std.c ****                     }
 680:Generated_Source\PSoC4/USBFS_std.c ****                 #endif  /* (USBFS_ENABLE_CDC_CLASS) */
 681:Generated_Source\PSoC4/USBFS_std.c ****                 }
 682:Generated_Source\PSoC4/USBFS_std.c ****                 
 683:Generated_Source\PSoC4/USBFS_std.c ****                 pEP = &pEP[1u];
 684:Generated_Source\PSoC4/USBFS_std.c ****             }
 685:Generated_Source\PSoC4/USBFS_std.c ****             
 686:Generated_Source\PSoC4/USBFS_std.c ****         #else
 687:Generated_Source\PSoC4/USBFS_std.c ****             for (i = USBFS_EP1; i < USBFS_MAX_EP; ++i)
 688:Generated_Source\PSoC4/USBFS_std.c ****             {
 689:Generated_Source\PSoC4/USBFS_std.c ****                 /* p_list points the endpoint setting table. */
 690:Generated_Source\PSoC4/USBFS_std.c ****                 pEP = (const T_USBFS_EP_SETTINGS_BLOCK CYCODE *) pTmp->p_list;
 691:Generated_Source\PSoC4/USBFS_std.c ****                 /* Find max length for each EP and select it (length could be different in differen
 692:Generated_Source\PSoC4/USBFS_std.c ****                 /* but other settings should be correct with regards to Interface alt Setting */
 693:Generated_Source\PSoC4/USBFS_std.c ****                 
 694:Generated_Source\PSoC4/USBFS_std.c ****                 for (curEp = 0u; curEp < ep; ++curEp)
 695:Generated_Source\PSoC4/USBFS_std.c ****                 {
 696:Generated_Source\PSoC4/USBFS_std.c ****                     if (i == (pEP->addr & USBFS_DIR_UNUSED))
 697:Generated_Source\PSoC4/USBFS_std.c ****                     {
 698:Generated_Source\PSoC4/USBFS_std.c ****                         /* Compare endpoint buffers size with current size to find greater. */
 699:Generated_Source\PSoC4/USBFS_std.c ****                         if (USBFS_EP[i].bufferSize < pEP->bufferSize)
ARM GAS  C:\Users\User\AppData\Local\Temp\ccieNkfn.s 			page 17


 700:Generated_Source\PSoC4/USBFS_std.c ****                         {
 701:Generated_Source\PSoC4/USBFS_std.c ****                             USBFS_EP[i].bufferSize = pEP->bufferSize;
 702:Generated_Source\PSoC4/USBFS_std.c ****                         }
 703:Generated_Source\PSoC4/USBFS_std.c ****                         
 704:Generated_Source\PSoC4/USBFS_std.c ****                         /* Compare current Alternate setting with EP Alt */
 705:Generated_Source\PSoC4/USBFS_std.c ****                         if (USBFS_interfaceSetting[pEP->interface] == pEP->altSetting)
 706:Generated_Source\PSoC4/USBFS_std.c ****                         {                            
 707:Generated_Source\PSoC4/USBFS_std.c ****                             USBFS_EP[i].addr = pEP->addr;
 708:Generated_Source\PSoC4/USBFS_std.c ****                             USBFS_EP[i].attrib = pEP->attributes;
 709:Generated_Source\PSoC4/USBFS_std.c ****                             
 710:Generated_Source\PSoC4/USBFS_std.c ****                             epType = pEP->attributes & USBFS_EP_TYPE_MASK;
 711:Generated_Source\PSoC4/USBFS_std.c ****                             
 712:Generated_Source\PSoC4/USBFS_std.c ****                             if (0u != (pEP->addr & USBFS_DIR_IN))
 713:Generated_Source\PSoC4/USBFS_std.c ****                             {
 714:Generated_Source\PSoC4/USBFS_std.c ****                                 /* IN Endpoint */
 715:Generated_Source\PSoC4/USBFS_std.c ****                                 USBFS_EP[i].epMode     = USBFS_GET_ACTIVE_IN_EP_CR0_MODE(epType);
 716:Generated_Source\PSoC4/USBFS_std.c ****                                 USBFS_EP[i].apiEpState = USBFS_EVENT_PENDING;
 717:Generated_Source\PSoC4/USBFS_std.c ****                                 
 718:Generated_Source\PSoC4/USBFS_std.c ****                             #if (defined(USBFS_ENABLE_MIDI_STREAMING) && (USBFS_MIDI_IN_BUFF_SIZE >
 719:Generated_Source\PSoC4/USBFS_std.c ****                                 if ((pEP->bMisc == USBFS_CLASS_AUDIO) && (epType == USBFS_EP_TYPE_B
 720:Generated_Source\PSoC4/USBFS_std.c ****                                 {
 721:Generated_Source\PSoC4/USBFS_std.c ****                                     USBFS_midi_in_ep = i;
 722:Generated_Source\PSoC4/USBFS_std.c ****                                 }
 723:Generated_Source\PSoC4/USBFS_std.c ****                             #endif  /* (USBFS_ENABLE_MIDI_STREAMING) */
 724:Generated_Source\PSoC4/USBFS_std.c ****                             }
 725:Generated_Source\PSoC4/USBFS_std.c ****                             else
 726:Generated_Source\PSoC4/USBFS_std.c ****                             {
 727:Generated_Source\PSoC4/USBFS_std.c ****                                 /* OUT Endpoint */
 728:Generated_Source\PSoC4/USBFS_std.c ****                                 USBFS_EP[i].epMode     = USBFS_GET_ACTIVE_OUT_EP_CR0_MODE(epType);
 729:Generated_Source\PSoC4/USBFS_std.c ****                                 USBFS_EP[i].apiEpState = USBFS_NO_EVENT_PENDING;
 730:Generated_Source\PSoC4/USBFS_std.c ****                                 
 731:Generated_Source\PSoC4/USBFS_std.c ****                             #if (defined(USBFS_ENABLE_MIDI_STREAMING) && (USBFS_MIDI_OUT_BUFF_SIZE 
 732:Generated_Source\PSoC4/USBFS_std.c ****                                 if ((pEP->bMisc == USBFS_CLASS_AUDIO) && (epType == USBFS_EP_TYPE_B
 733:Generated_Source\PSoC4/USBFS_std.c ****                                 {
 734:Generated_Source\PSoC4/USBFS_std.c ****                                     USBFS_midi_out_ep = i;
 735:Generated_Source\PSoC4/USBFS_std.c ****                                 }
 736:Generated_Source\PSoC4/USBFS_std.c ****                             #endif  /* (USBFS_ENABLE_MIDI_STREAMING) */
 737:Generated_Source\PSoC4/USBFS_std.c ****                             }
 738:Generated_Source\PSoC4/USBFS_std.c **** 
 739:Generated_Source\PSoC4/USBFS_std.c ****                         #if (defined(USBFS_ENABLE_CDC_CLASS))
 740:Generated_Source\PSoC4/USBFS_std.c ****                             if((pEP->bMisc == USBFS_CLASS_CDC_DATA) ||(pEP->bMisc == USBFS_CLASS_CD
 741:Generated_Source\PSoC4/USBFS_std.c ****                             {
 742:Generated_Source\PSoC4/USBFS_std.c ****                                 cdcComNums = USBFS_Cdc_EpInit(pEP, i, cdcComNums);
 743:Generated_Source\PSoC4/USBFS_std.c ****                             }
 744:Generated_Source\PSoC4/USBFS_std.c ****                         #endif  /* (USBFS_ENABLE_CDC_CLASS) */
 745:Generated_Source\PSoC4/USBFS_std.c **** 
 746:Generated_Source\PSoC4/USBFS_std.c ****                             #if (USBFS_EP_MANAGEMENT_DMA_AUTO)
 747:Generated_Source\PSoC4/USBFS_std.c ****                                 break;  /* Use first EP setting in Auto memory management */
 748:Generated_Source\PSoC4/USBFS_std.c ****                             #endif /* (USBFS_EP_MANAGEMENT_DMA_AUTO) */
 749:Generated_Source\PSoC4/USBFS_std.c ****                         }
 750:Generated_Source\PSoC4/USBFS_std.c ****                     }
 751:Generated_Source\PSoC4/USBFS_std.c ****                     
 752:Generated_Source\PSoC4/USBFS_std.c ****                     pEP = &pEP[1u];
 753:Generated_Source\PSoC4/USBFS_std.c ****                 }
 754:Generated_Source\PSoC4/USBFS_std.c ****             }
 755:Generated_Source\PSoC4/USBFS_std.c ****         #endif /*  (USBFS_EP_MANAGEMENT_MANUAL && USBFS_EP_ALLOC_DYNAMIC) */
 756:Generated_Source\PSoC4/USBFS_std.c **** 
ARM GAS  C:\Users\User\AppData\Local\Temp\ccieNkfn.s 			page 18


 757:Generated_Source\PSoC4/USBFS_std.c ****         /* Init class array for each interface and interface number for each EP.
 758:Generated_Source\PSoC4/USBFS_std.c ****         *  It is used for handling Class specific requests directed to either an
 759:Generated_Source\PSoC4/USBFS_std.c ****         *  interface or the endpoint.
 760:Generated_Source\PSoC4/USBFS_std.c ****         */
 761:Generated_Source\PSoC4/USBFS_std.c ****         /* p_list points the endpoint setting table. */
 762:Generated_Source\PSoC4/USBFS_std.c ****         pEP = (const T_USBFS_EP_SETTINGS_BLOCK CYCODE *) pTmp->p_list;
 763:Generated_Source\PSoC4/USBFS_std.c ****         for (i = 0u; i < ep; i++)
 764:Generated_Source\PSoC4/USBFS_std.c ****         {
 765:Generated_Source\PSoC4/USBFS_std.c ****             /* Configure interface number for each EP */
 766:Generated_Source\PSoC4/USBFS_std.c ****             USBFS_EP[pEP->addr & USBFS_DIR_UNUSED].interface = pEP->interface;
 767:Generated_Source\PSoC4/USBFS_std.c ****             pEP = &pEP[1u];
 768:Generated_Source\PSoC4/USBFS_std.c ****         }
 769:Generated_Source\PSoC4/USBFS_std.c ****         
 770:Generated_Source\PSoC4/USBFS_std.c ****         /* Init pointer on interface class table */
 771:Generated_Source\PSoC4/USBFS_std.c ****         USBFS_interfaceClass = USBFS_GetInterfaceClassTablePtr();
 772:Generated_Source\PSoC4/USBFS_std.c ****         
 773:Generated_Source\PSoC4/USBFS_std.c ****     /* Set the endpoint buffer addresses */
 774:Generated_Source\PSoC4/USBFS_std.c ****     #if (!USBFS_EP_MANAGEMENT_DMA_AUTO)
 775:Generated_Source\PSoC4/USBFS_std.c ****         buffCount = 0u;
 776:Generated_Source\PSoC4/USBFS_std.c ****         for (ep = USBFS_EP1; ep < USBFS_MAX_EP; ++ep)
 777:Generated_Source\PSoC4/USBFS_std.c ****         {
 778:Generated_Source\PSoC4/USBFS_std.c ****             USBFS_EP[ep].buffOffset = buffCount;        
 779:Generated_Source\PSoC4/USBFS_std.c ****             buffCount += USBFS_EP[ep].bufferSize;
 780:Generated_Source\PSoC4/USBFS_std.c ****             
 781:Generated_Source\PSoC4/USBFS_std.c ****         #if (USBFS_GEN_16BITS_EP_ACCESS)
 782:Generated_Source\PSoC4/USBFS_std.c ****             /* Align EP buffers to be event size to access 16-bits DR register. */
 783:Generated_Source\PSoC4/USBFS_std.c ****             buffCount += (0u != (buffCount & 0x01u)) ? 1u : 0u;
 784:Generated_Source\PSoC4/USBFS_std.c ****         #endif /* (USBFS_GEN_16BITS_EP_ACCESS) */            
 785:Generated_Source\PSoC4/USBFS_std.c ****         }
 786:Generated_Source\PSoC4/USBFS_std.c ****     #endif /* (!USBFS_EP_MANAGEMENT_DMA_AUTO) */
 787:Generated_Source\PSoC4/USBFS_std.c **** 
 788:Generated_Source\PSoC4/USBFS_std.c ****         /* Configure hardware registers */
 789:Generated_Source\PSoC4/USBFS_std.c ****         USBFS_ConfigReg();
 790:Generated_Source\PSoC4/USBFS_std.c ****     }
 791:Generated_Source\PSoC4/USBFS_std.c **** }
 792:Generated_Source\PSoC4/USBFS_std.c **** 
 793:Generated_Source\PSoC4/USBFS_std.c **** 
 794:Generated_Source\PSoC4/USBFS_std.c **** /*******************************************************************************
 795:Generated_Source\PSoC4/USBFS_std.c **** * Function Name: USBFS_ConfigAltChanged
 796:Generated_Source\PSoC4/USBFS_std.c **** ****************************************************************************//**
 797:Generated_Source\PSoC4/USBFS_std.c **** *
 798:Generated_Source\PSoC4/USBFS_std.c **** *  This routine update configuration for the required endpoints only.
 799:Generated_Source\PSoC4/USBFS_std.c **** *  It is called after SET_INTERFACE request when Static memory allocation used.
 800:Generated_Source\PSoC4/USBFS_std.c **** *
 801:Generated_Source\PSoC4/USBFS_std.c **** * \reentrant
 802:Generated_Source\PSoC4/USBFS_std.c **** *  No.
 803:Generated_Source\PSoC4/USBFS_std.c **** *
 804:Generated_Source\PSoC4/USBFS_std.c **** *******************************************************************************/
 805:Generated_Source\PSoC4/USBFS_std.c **** void USBFS_ConfigAltChanged(void) 
 806:Generated_Source\PSoC4/USBFS_std.c **** {
 807:Generated_Source\PSoC4/USBFS_std.c ****     uint32 ep;
 808:Generated_Source\PSoC4/USBFS_std.c ****     uint32 curEp;
 809:Generated_Source\PSoC4/USBFS_std.c ****     uint32 epType;
 810:Generated_Source\PSoC4/USBFS_std.c ****     uint32 i;
 811:Generated_Source\PSoC4/USBFS_std.c ****     uint8 interfaceNum;
 812:Generated_Source\PSoC4/USBFS_std.c **** 
 813:Generated_Source\PSoC4/USBFS_std.c ****     const T_USBFS_LUT CYCODE *pTmp;
ARM GAS  C:\Users\User\AppData\Local\Temp\ccieNkfn.s 			page 19


 814:Generated_Source\PSoC4/USBFS_std.c ****     const T_USBFS_EP_SETTINGS_BLOCK CYCODE *pEP;
 815:Generated_Source\PSoC4/USBFS_std.c **** 
 816:Generated_Source\PSoC4/USBFS_std.c ****     /* Init Endpoints and Device Status if configured */
 817:Generated_Source\PSoC4/USBFS_std.c ****     if (USBFS_configuration > 0u)
 818:Generated_Source\PSoC4/USBFS_std.c ****     {
 819:Generated_Source\PSoC4/USBFS_std.c ****         /* Get number of endpoints configurations (ep). */
 820:Generated_Source\PSoC4/USBFS_std.c ****         pTmp = USBFS_GetConfigTablePtr(USBFS_configuration - 1u);
 821:Generated_Source\PSoC4/USBFS_std.c ****         pTmp = &pTmp[1u];
 822:Generated_Source\PSoC4/USBFS_std.c ****         ep = pTmp->c;
 823:Generated_Source\PSoC4/USBFS_std.c **** 
 824:Generated_Source\PSoC4/USBFS_std.c ****         /* Get pointer to endpoints setting table (pEP). */
 825:Generated_Source\PSoC4/USBFS_std.c ****         pEP = (const T_USBFS_EP_SETTINGS_BLOCK CYCODE *) pTmp->p_list;
 826:Generated_Source\PSoC4/USBFS_std.c ****         
 827:Generated_Source\PSoC4/USBFS_std.c ****         /* Look through all possible endpoint configurations. Find endpoints 
 828:Generated_Source\PSoC4/USBFS_std.c ****         * which belong to current interface and alternate settings for 
 829:Generated_Source\PSoC4/USBFS_std.c ****         * re-configuration.
 830:Generated_Source\PSoC4/USBFS_std.c ****         */
 831:Generated_Source\PSoC4/USBFS_std.c ****         interfaceNum = USBFS_interfaceNumber;
 832:Generated_Source\PSoC4/USBFS_std.c ****         for (i = 0u; i < ep; i++)
 833:Generated_Source\PSoC4/USBFS_std.c ****         {
 834:Generated_Source\PSoC4/USBFS_std.c ****             /* Find endpoints which belong to current interface and alternate settings. */
 835:Generated_Source\PSoC4/USBFS_std.c ****             if ((interfaceNum == pEP->interface) && 
 836:Generated_Source\PSoC4/USBFS_std.c ****                 (USBFS_interfaceSetting[interfaceNum] == pEP->altSetting))
 837:Generated_Source\PSoC4/USBFS_std.c ****             {
 838:Generated_Source\PSoC4/USBFS_std.c ****                 curEp  = ((uint32) pEP->addr & USBFS_DIR_UNUSED);
 839:Generated_Source\PSoC4/USBFS_std.c ****                 epType = ((uint32) pEP->attributes & USBFS_EP_TYPE_MASK);
 840:Generated_Source\PSoC4/USBFS_std.c ****                 
 841:Generated_Source\PSoC4/USBFS_std.c ****                 /* Change the SIE mode for the selected EP to NAK ALL */
 842:Generated_Source\PSoC4/USBFS_std.c ****                 USBFS_EP[curEp].epToggle   = 0u;
 843:Generated_Source\PSoC4/USBFS_std.c ****                 USBFS_EP[curEp].addr       = pEP->addr;
 844:Generated_Source\PSoC4/USBFS_std.c ****                 USBFS_EP[curEp].attrib     = pEP->attributes;
 845:Generated_Source\PSoC4/USBFS_std.c ****                 USBFS_EP[curEp].bufferSize = pEP->bufferSize;
 846:Generated_Source\PSoC4/USBFS_std.c **** 
 847:Generated_Source\PSoC4/USBFS_std.c ****                 if (0u != (pEP->addr & USBFS_DIR_IN))
 848:Generated_Source\PSoC4/USBFS_std.c ****                 {
 849:Generated_Source\PSoC4/USBFS_std.c ****                     /* IN Endpoint */
 850:Generated_Source\PSoC4/USBFS_std.c ****                     USBFS_EP[curEp].epMode     = USBFS_GET_ACTIVE_IN_EP_CR0_MODE(epType);
 851:Generated_Source\PSoC4/USBFS_std.c ****                     USBFS_EP[curEp].apiEpState = USBFS_EVENT_PENDING;
 852:Generated_Source\PSoC4/USBFS_std.c ****                 }
 853:Generated_Source\PSoC4/USBFS_std.c ****                 else
 854:Generated_Source\PSoC4/USBFS_std.c ****                 {
 855:Generated_Source\PSoC4/USBFS_std.c ****                     /* OUT Endpoint */
 856:Generated_Source\PSoC4/USBFS_std.c ****                     USBFS_EP[curEp].epMode     = USBFS_GET_ACTIVE_OUT_EP_CR0_MODE(epType);
 857:Generated_Source\PSoC4/USBFS_std.c ****                     USBFS_EP[curEp].apiEpState = USBFS_NO_EVENT_PENDING;
 858:Generated_Source\PSoC4/USBFS_std.c ****                 }
 859:Generated_Source\PSoC4/USBFS_std.c ****                 
 860:Generated_Source\PSoC4/USBFS_std.c ****                 /* Make SIE to NAK any endpoint requests */
 861:Generated_Source\PSoC4/USBFS_std.c ****                 USBFS_SIE_EP_BASE.sieEp[curEp].epCr0 = USBFS_MODE_NAK_IN_OUT;
 862:Generated_Source\PSoC4/USBFS_std.c **** 
 863:Generated_Source\PSoC4/USBFS_std.c ****             #if (USBFS_EP_MANAGEMENT_DMA_AUTO)
 864:Generated_Source\PSoC4/USBFS_std.c ****                 /* Clear IN data ready. */
 865:Generated_Source\PSoC4/USBFS_std.c ****                 USBFS_ARB_EP_BASE.arbEp[curEp].epCfg &= (uint32) ~USBFS_ARB_EPX_CFG_IN_DATA_RDY;
 866:Generated_Source\PSoC4/USBFS_std.c **** 
 867:Generated_Source\PSoC4/USBFS_std.c ****                 /* Select endpoint number of reconfiguration */
 868:Generated_Source\PSoC4/USBFS_std.c ****                 USBFS_DYN_RECONFIG_REG = (uint32) ((curEp - 1u) << USBFS_DYN_RECONFIG_EP_SHIFT);
 869:Generated_Source\PSoC4/USBFS_std.c ****                 
 870:Generated_Source\PSoC4/USBFS_std.c ****                 /* Request for dynamic re-configuration of endpoint. */
ARM GAS  C:\Users\User\AppData\Local\Temp\ccieNkfn.s 			page 20


 871:Generated_Source\PSoC4/USBFS_std.c ****                 USBFS_DYN_RECONFIG_REG |= USBFS_DYN_RECONFIG_ENABLE;
 872:Generated_Source\PSoC4/USBFS_std.c ****                 
 873:Generated_Source\PSoC4/USBFS_std.c ****                 /* Wait until block is ready for re-configuration */
 874:Generated_Source\PSoC4/USBFS_std.c ****                 while (0u == (USBFS_DYN_RECONFIG_REG & USBFS_DYN_RECONFIG_RDY_STS))
 875:Generated_Source\PSoC4/USBFS_std.c ****                 {
 876:Generated_Source\PSoC4/USBFS_std.c ****                 }
 877:Generated_Source\PSoC4/USBFS_std.c ****                 
 878:Generated_Source\PSoC4/USBFS_std.c ****                 /* Once DYN_RECONFIG_RDY_STS bit is set, FW can change the EP configuration. */
 879:Generated_Source\PSoC4/USBFS_std.c ****                 /* Change EP Type with new direction */
 880:Generated_Source\PSoC4/USBFS_std.c ****                 if (0u != (pEP->addr & USBFS_DIR_IN))
 881:Generated_Source\PSoC4/USBFS_std.c ****                 {
 882:Generated_Source\PSoC4/USBFS_std.c ****                     /* Set endpoint type: 0 - IN and 1 - OUT. */
 883:Generated_Source\PSoC4/USBFS_std.c ****                     USBFS_EP_TYPE_REG &= (uint32) ~(uint32)((uint32) 0x01u << (curEp - 1u));
 884:Generated_Source\PSoC4/USBFS_std.c ****                     
 885:Generated_Source\PSoC4/USBFS_std.c ****                 #if (CY_PSOC4)
 886:Generated_Source\PSoC4/USBFS_std.c ****                     /* Clear DMA_TERMIN for IN endpoint */
 887:Generated_Source\PSoC4/USBFS_std.c ****                     USBFS_ARB_EP_BASE.arbEp[curEp].epIntEn &= (uint32) ~USBFS_ARB_EPX_INT_DMA_TERMI
 888:Generated_Source\PSoC4/USBFS_std.c ****                 #endif /* (CY_PSOC4) */
 889:Generated_Source\PSoC4/USBFS_std.c ****                 }
 890:Generated_Source\PSoC4/USBFS_std.c ****                 else
 891:Generated_Source\PSoC4/USBFS_std.c ****                 {
 892:Generated_Source\PSoC4/USBFS_std.c ****                     /* Set endpoint type: 0 - IN and 1- OUT. */
 893:Generated_Source\PSoC4/USBFS_std.c ****                     USBFS_EP_TYPE_REG |= (uint32) ((uint32) 0x01u << (curEp - 1u));
 894:Generated_Source\PSoC4/USBFS_std.c ****                     
 895:Generated_Source\PSoC4/USBFS_std.c ****                 #if (CY_PSOC4)
 896:Generated_Source\PSoC4/USBFS_std.c ****                     /* Set DMA_TERMIN for OUT endpoint */
 897:Generated_Source\PSoC4/USBFS_std.c ****                     USBFS_ARB_EP_BASE.arbEp[curEp].epIntEn |= (uint32) USBFS_ARB_EPX_INT_DMA_TERMIN
 898:Generated_Source\PSoC4/USBFS_std.c ****                 #endif /* (CY_PSOC4) */
 899:Generated_Source\PSoC4/USBFS_std.c ****                 }
 900:Generated_Source\PSoC4/USBFS_std.c ****                 
 901:Generated_Source\PSoC4/USBFS_std.c ****                 /* Complete dynamic re-configuration: all endpoint related status and signals 
 902:Generated_Source\PSoC4/USBFS_std.c ****                 * are set into the default state.
 903:Generated_Source\PSoC4/USBFS_std.c ****                 */
 904:Generated_Source\PSoC4/USBFS_std.c ****                 USBFS_DYN_RECONFIG_REG &= (uint32) ~USBFS_DYN_RECONFIG_ENABLE;
 905:Generated_Source\PSoC4/USBFS_std.c **** 
 906:Generated_Source\PSoC4/USBFS_std.c ****             #else
 907:Generated_Source\PSoC4/USBFS_std.c ****                 USBFS_SIE_EP_BASE.sieEp[curEp].epCnt0 = HI8(USBFS_EP[curEp].bufferSize);
 908:Generated_Source\PSoC4/USBFS_std.c ****                 USBFS_SIE_EP_BASE.sieEp[curEp].epCnt1 = LO8(USBFS_EP[curEp].bufferSize);
 909:Generated_Source\PSoC4/USBFS_std.c ****                 
 910:Generated_Source\PSoC4/USBFS_std.c ****                 #if (CY_PSOC4)
 911:Generated_Source\PSoC4/USBFS_std.c ****                     USBFS_ARB_EP16_BASE.arbEp[curEp].rwRa16  = (uint32) USBFS_EP[curEp].buffOffset;
 912:Generated_Source\PSoC4/USBFS_std.c ****                     USBFS_ARB_EP16_BASE.arbEp[curEp].rwWa16  = (uint32) USBFS_EP[curEp].buffOffset;
 913:Generated_Source\PSoC4/USBFS_std.c ****                 #else
 914:Generated_Source\PSoC4/USBFS_std.c ****                     USBFS_ARB_EP_BASE.arbEp[curEp].rwRa    = LO8(USBFS_EP[curEp].buffOffset);
 915:Generated_Source\PSoC4/USBFS_std.c ****                     USBFS_ARB_EP_BASE.arbEp[curEp].rwRaMsb = HI8(USBFS_EP[curEp].buffOffset);
 916:Generated_Source\PSoC4/USBFS_std.c ****                     USBFS_ARB_EP_BASE.arbEp[curEp].rwWa    = LO8(USBFS_EP[curEp].buffOffset);
 917:Generated_Source\PSoC4/USBFS_std.c ****                     USBFS_ARB_EP_BASE.arbEp[curEp].rwWaMsb = HI8(USBFS_EP[curEp].buffOffset);
 918:Generated_Source\PSoC4/USBFS_std.c ****                 #endif /* (CY_PSOC4) */                
 919:Generated_Source\PSoC4/USBFS_std.c ****             #endif /* (USBFS_EP_MANAGEMENT_DMA_AUTO) */
 920:Generated_Source\PSoC4/USBFS_std.c ****             }
 921:Generated_Source\PSoC4/USBFS_std.c ****             
 922:Generated_Source\PSoC4/USBFS_std.c ****             pEP = &pEP[1u]; /* Get next EP element */
 923:Generated_Source\PSoC4/USBFS_std.c ****         }
 924:Generated_Source\PSoC4/USBFS_std.c ****         
 925:Generated_Source\PSoC4/USBFS_std.c ****         /* The main loop has to re-enable DMA and OUT endpoint */
 926:Generated_Source\PSoC4/USBFS_std.c ****     }
 927:Generated_Source\PSoC4/USBFS_std.c **** }
ARM GAS  C:\Users\User\AppData\Local\Temp\ccieNkfn.s 			page 21


 928:Generated_Source\PSoC4/USBFS_std.c **** 
 929:Generated_Source\PSoC4/USBFS_std.c **** 
 930:Generated_Source\PSoC4/USBFS_std.c **** /*******************************************************************************
 931:Generated_Source\PSoC4/USBFS_std.c **** * Function Name: USBFS_GetConfigTablePtr
 932:Generated_Source\PSoC4/USBFS_std.c **** ****************************************************************************//**
 933:Generated_Source\PSoC4/USBFS_std.c **** *
 934:Generated_Source\PSoC4/USBFS_std.c **** *  This routine returns a pointer a configuration table entry
 935:Generated_Source\PSoC4/USBFS_std.c **** *
 936:Generated_Source\PSoC4/USBFS_std.c **** *  \param confIndex:  Configuration Index
 937:Generated_Source\PSoC4/USBFS_std.c **** *
 938:Generated_Source\PSoC4/USBFS_std.c **** * \return
 939:Generated_Source\PSoC4/USBFS_std.c **** *  Device Descriptor pointer or NULL when descriptor does not exist.
 940:Generated_Source\PSoC4/USBFS_std.c **** *
 941:Generated_Source\PSoC4/USBFS_std.c **** *******************************************************************************/
 942:Generated_Source\PSoC4/USBFS_std.c **** const T_USBFS_LUT CYCODE *USBFS_GetConfigTablePtr(uint8 confIndex)
 943:Generated_Source\PSoC4/USBFS_std.c ****                                                         
 944:Generated_Source\PSoC4/USBFS_std.c **** {
 210              		.loc 1 944 0
 211              		.cfi_startproc
 212              		@ args = 0, pretend = 0, frame = 0
 213              		@ frame_needed = 0, uses_anonymous_args = 0
 214              		@ link register save eliminated.
 215              	.LVL8:
 945:Generated_Source\PSoC4/USBFS_std.c ****     /* Device Table */
 946:Generated_Source\PSoC4/USBFS_std.c ****     const T_USBFS_LUT CYCODE *pTmp;
 947:Generated_Source\PSoC4/USBFS_std.c **** 
 948:Generated_Source\PSoC4/USBFS_std.c ****     pTmp = (const T_USBFS_LUT CYCODE *) USBFS_TABLE[USBFS_device].p_list;
 216              		.loc 1 948 0
 217 0000 074B     		ldr	r3, .L19
 218 0002 1B78     		ldrb	r3, [r3]
 219 0004 DB00     		lsls	r3, r3, #3
 220 0006 074A     		ldr	r2, .L19+4
 221 0008 D318     		adds	r3, r2, r3
 222 000a 5B68     		ldr	r3, [r3, #4]
 223              	.LVL9:
 949:Generated_Source\PSoC4/USBFS_std.c **** 
 950:Generated_Source\PSoC4/USBFS_std.c ****     /* The first entry points to the Device Descriptor,
 951:Generated_Source\PSoC4/USBFS_std.c ****     *  the second entry point to the BOS Descriptor
 952:Generated_Source\PSoC4/USBFS_std.c ****     *  the rest configuration entries.
 953:Generated_Source\PSoC4/USBFS_std.c ****     *  Set pointer to the first Configuration Descriptor
 954:Generated_Source\PSoC4/USBFS_std.c ****     */
 955:Generated_Source\PSoC4/USBFS_std.c ****     pTmp = &pTmp[2u];
 956:Generated_Source\PSoC4/USBFS_std.c ****     /* For this table, c is the number of configuration descriptors  */
 957:Generated_Source\PSoC4/USBFS_std.c ****     if(confIndex >= pTmp->c)   /* Verify that required configuration descriptor exists */
 224              		.loc 1 957 0
 225 000c 1A7C     		ldrb	r2, [r3, #16]
 226 000e 8242     		cmp	r2, r0
 227 0010 04D9     		bls	.L18
 958:Generated_Source\PSoC4/USBFS_std.c ****     {
 959:Generated_Source\PSoC4/USBFS_std.c ****         pTmp = (const T_USBFS_LUT CYCODE *) NULL;
 960:Generated_Source\PSoC4/USBFS_std.c ****     }
 961:Generated_Source\PSoC4/USBFS_std.c ****     else
 962:Generated_Source\PSoC4/USBFS_std.c ****     {
 963:Generated_Source\PSoC4/USBFS_std.c ****         pTmp = (const T_USBFS_LUT CYCODE *) pTmp[confIndex].p_list;
 228              		.loc 1 963 0
 229 0012 C000     		lsls	r0, r0, #3
 230              	.LVL10:
ARM GAS  C:\Users\User\AppData\Local\Temp\ccieNkfn.s 			page 22


 231 0014 1030     		adds	r0, r0, #16
 232 0016 1818     		adds	r0, r3, r0
 233 0018 4068     		ldr	r0, [r0, #4]
 234              	.LVL11:
 235 001a 00E0     		b	.L17
 236              	.LVL12:
 237              	.L18:
 959:Generated_Source\PSoC4/USBFS_std.c ****     }
 238              		.loc 1 959 0
 239 001c 0020     		movs	r0, #0
 240              	.LVL13:
 241              	.L17:
 964:Generated_Source\PSoC4/USBFS_std.c ****     }
 965:Generated_Source\PSoC4/USBFS_std.c **** 
 966:Generated_Source\PSoC4/USBFS_std.c ****     return (pTmp);
 967:Generated_Source\PSoC4/USBFS_std.c **** }
 242              		.loc 1 967 0
 243              		@ sp needed
 244 001e 7047     		bx	lr
 245              	.L20:
 246              		.align	2
 247              	.L19:
 248 0020 00000000 		.word	USBFS_device
 249 0024 00000000 		.word	USBFS_TABLE
 250              		.cfi_endproc
 251              	.LFE6:
 252              		.size	USBFS_GetConfigTablePtr, .-USBFS_GetConfigTablePtr
 253              		.section	.text.USBFS_ConfigAltChanged,"ax",%progbits
 254              		.align	2
 255              		.global	USBFS_ConfigAltChanged
 256              		.code	16
 257              		.thumb_func
 258              		.type	USBFS_ConfigAltChanged, %function
 259              	USBFS_ConfigAltChanged:
 260              	.LFB5:
 806:Generated_Source\PSoC4/USBFS_std.c ****     uint32 ep;
 261              		.loc 1 806 0
 262              		.cfi_startproc
 263              		@ args = 0, pretend = 0, frame = 0
 264              		@ frame_needed = 0, uses_anonymous_args = 0
 265 0000 F0B5     		push	{r4, r5, r6, r7, lr}
 266              		.cfi_def_cfa_offset 20
 267              		.cfi_offset 4, -20
 268              		.cfi_offset 5, -16
 269              		.cfi_offset 6, -12
 270              		.cfi_offset 7, -8
 271              		.cfi_offset 14, -4
 272 0002 5746     		mov	r7, r10
 273 0004 4E46     		mov	r6, r9
 274 0006 4546     		mov	r5, r8
 275 0008 E0B4     		push	{r5, r6, r7}
 276              		.cfi_def_cfa_offset 32
 277              		.cfi_offset 8, -32
 278              		.cfi_offset 9, -28
 279              		.cfi_offset 10, -24
 817:Generated_Source\PSoC4/USBFS_std.c ****     {
 280              		.loc 1 817 0
ARM GAS  C:\Users\User\AppData\Local\Temp\ccieNkfn.s 			page 23


 281 000a 3F4B     		ldr	r3, .L32
 282 000c 1B78     		ldrb	r3, [r3]
 283 000e 002B     		cmp	r3, #0
 284 0010 75D0     		beq	.L21
 820:Generated_Source\PSoC4/USBFS_std.c ****         pTmp = &pTmp[1u];
 285              		.loc 1 820 0
 286 0012 3D4B     		ldr	r3, .L32
 287 0014 1878     		ldrb	r0, [r3]
 288 0016 0138     		subs	r0, r0, #1
 289 0018 C0B2     		uxtb	r0, r0
 290 001a FFF7FEFF 		bl	USBFS_GetConfigTablePtr
 291              	.LVL14:
 822:Generated_Source\PSoC4/USBFS_std.c **** 
 292              		.loc 1 822 0
 293 001e 047A     		ldrb	r4, [r0, #8]
 294              	.LVL15:
 825:Generated_Source\PSoC4/USBFS_std.c ****         
 295              		.loc 1 825 0
 296 0020 C368     		ldr	r3, [r0, #12]
 297              	.LVL16:
 831:Generated_Source\PSoC4/USBFS_std.c ****         for (i = 0u; i < ep; i++)
 298              		.loc 1 831 0
 299 0022 3A4A     		ldr	r2, .L32+4
 300 0024 1078     		ldrb	r0, [r2]
 301              	.LVL17:
 302 0026 C0B2     		uxtb	r0, r0
 303              	.LVL18:
 832:Generated_Source\PSoC4/USBFS_std.c ****         {
 304              		.loc 1 832 0
 305 0028 0022     		movs	r2, #0
 306 002a 66E0     		b	.L23
 307              	.LVL19:
 308              	.L29:
 835:Generated_Source\PSoC4/USBFS_std.c ****                 (USBFS_interfaceSetting[interfaceNum] == pEP->altSetting))
 309              		.loc 1 835 0
 310 002c 1978     		ldrb	r1, [r3]
 311 002e 8842     		cmp	r0, r1
 312 0030 61D1     		bne	.L24
 836:Generated_Source\PSoC4/USBFS_std.c ****             {
 313              		.loc 1 836 0 discriminator 1
 314 0032 3749     		ldr	r1, .L32+8
 315 0034 095C     		ldrb	r1, [r1, r0]
 316 0036 C9B2     		uxtb	r1, r1
 317 0038 5D78     		ldrb	r5, [r3, #1]
 835:Generated_Source\PSoC4/USBFS_std.c ****                 (USBFS_interfaceSetting[interfaceNum] == pEP->altSetting))
 318              		.loc 1 835 0 discriminator 1
 319 003a A942     		cmp	r1, r5
 320 003c 5BD1     		bne	.L24
 838:Generated_Source\PSoC4/USBFS_std.c ****                 epType = ((uint32) pEP->attributes & USBFS_EP_TYPE_MASK);
 321              		.loc 1 838 0
 322 003e 9978     		ldrb	r1, [r3, #2]
 323 0040 7F25     		movs	r5, #127
 324 0042 2940     		ands	r1, r5
 325              	.LVL20:
 839:Generated_Source\PSoC4/USBFS_std.c ****                 
 326              		.loc 1 839 0
 327 0044 DD78     		ldrb	r5, [r3, #3]
ARM GAS  C:\Users\User\AppData\Local\Temp\ccieNkfn.s 			page 24


 328 0046 0326     		movs	r6, #3
 329 0048 2E40     		ands	r6, r5
 330 004a B446     		mov	ip, r6
 331              	.LVL21:
 842:Generated_Source\PSoC4/USBFS_std.c ****                 USBFS_EP[curEp].addr       = pEP->addr;
 332              		.loc 1 842 0
 333 004c 314D     		ldr	r5, .L32+12
 334 004e A846     		mov	r8, r5
 335 0050 4E00     		lsls	r6, r1, #1
 336              	.LVL22:
 337 0052 7718     		adds	r7, r6, r1
 338 0054 BD00     		lsls	r5, r7, #2
 339 0056 4544     		add	r5, r5, r8
 340 0058 AA46     		mov	r10, r5
 341 005a 0027     		movs	r7, #0
 342 005c EF70     		strb	r7, [r5, #3]
 843:Generated_Source\PSoC4/USBFS_std.c ****                 USBFS_EP[curEp].attrib     = pEP->attributes;
 343              		.loc 1 843 0
 344 005e 9F78     		ldrb	r7, [r3, #2]
 345 0060 2F71     		strb	r7, [r5, #4]
 844:Generated_Source\PSoC4/USBFS_std.c ****                 USBFS_EP[curEp].bufferSize = pEP->bufferSize;
 346              		.loc 1 844 0
 347 0062 DF78     		ldrb	r7, [r3, #3]
 348 0064 B946     		mov	r9, r7
 349 0066 7618     		adds	r6, r6, r1
 350 0068 B700     		lsls	r7, r6, #2
 351 006a 4646     		mov	r6, r8
 352 006c 4D46     		mov	r5, r9
 353 006e BD55     		strb	r5, [r7, r6]
 845:Generated_Source\PSoC4/USBFS_std.c **** 
 354              		.loc 1 845 0
 355 0070 9E88     		ldrh	r6, [r3, #4]
 356 0072 5546     		mov	r5, r10
 357 0074 2E81     		strh	r6, [r5, #8]
 847:Generated_Source\PSoC4/USBFS_std.c ****                 {
 358              		.loc 1 847 0
 359 0076 0225     		movs	r5, #2
 360 0078 5D57     		ldrsb	r5, [r3, r5]
 361 007a 002D     		cmp	r5, #0
 362 007c 0EDA     		bge	.L25
 850:Generated_Source\PSoC4/USBFS_std.c ****                     USBFS_EP[curEp].apiEpState = USBFS_EVENT_PENDING;
 363              		.loc 1 850 0
 364 007e 6546     		mov	r5, ip
 365 0080 012D     		cmp	r5, #1
 366 0082 01D1     		bne	.L30
 367 0084 0727     		movs	r7, #7
 368 0086 00E0     		b	.L26
 369              	.L30:
 370 0088 0D27     		movs	r7, #13
 371              	.L26:
 850:Generated_Source\PSoC4/USBFS_std.c ****                     USBFS_EP[curEp].apiEpState = USBFS_EVENT_PENDING;
 372              		.loc 1 850 0 is_stmt 0 discriminator 4
 373 008a 4E00     		lsls	r6, r1, #1
 374 008c 7618     		adds	r6, r6, r1
 375 008e B500     		lsls	r5, r6, #2
 376 0090 204E     		ldr	r6, .L32+12
 377 0092 7519     		adds	r5, r6, r5
ARM GAS  C:\Users\User\AppData\Local\Temp\ccieNkfn.s 			page 25


 378 0094 6F71     		strb	r7, [r5, #5]
 851:Generated_Source\PSoC4/USBFS_std.c ****                 }
 379              		.loc 1 851 0 is_stmt 1 discriminator 4
 380 0096 0126     		movs	r6, #1
 381 0098 6E70     		strb	r6, [r5, #1]
 382 009a 0DE0     		b	.L27
 383              	.L25:
 856:Generated_Source\PSoC4/USBFS_std.c ****                     USBFS_EP[curEp].apiEpState = USBFS_NO_EVENT_PENDING;
 384              		.loc 1 856 0
 385 009c 6546     		mov	r5, ip
 386 009e 012D     		cmp	r5, #1
 387 00a0 01D1     		bne	.L31
 388              	.LVL23:
 389 00a2 0527     		movs	r7, #5
 390 00a4 00E0     		b	.L28
 391              	.L31:
 392 00a6 0927     		movs	r7, #9
 393              	.L28:
 856:Generated_Source\PSoC4/USBFS_std.c ****                     USBFS_EP[curEp].apiEpState = USBFS_NO_EVENT_PENDING;
 394              		.loc 1 856 0 is_stmt 0 discriminator 4
 395 00a8 4E00     		lsls	r6, r1, #1
 396 00aa 7618     		adds	r6, r6, r1
 397 00ac B500     		lsls	r5, r6, #2
 398              	.LVL24:
 399 00ae 194E     		ldr	r6, .L32+12
 400 00b0 7519     		adds	r5, r6, r5
 401 00b2 6F71     		strb	r7, [r5, #5]
 857:Generated_Source\PSoC4/USBFS_std.c ****                 }
 402              		.loc 1 857 0 is_stmt 1 discriminator 4
 403 00b4 0026     		movs	r6, #0
 404 00b6 6E70     		strb	r6, [r5, #1]
 405              	.L27:
 861:Generated_Source\PSoC4/USBFS_std.c **** 
 406              		.loc 1 861 0
 407 00b8 8D01     		lsls	r5, r1, #6
 408 00ba 174E     		ldr	r6, .L32+16
 409 00bc B146     		mov	r9, r6
 410 00be A944     		add	r9, r9, r5
 411 00c0 0126     		movs	r6, #1
 412 00c2 4F46     		mov	r7, r9
 413 00c4 BE60     		str	r6, [r7, #8]
 907:Generated_Source\PSoC4/USBFS_std.c ****                 USBFS_SIE_EP_BASE.sieEp[curEp].epCnt1 = LO8(USBFS_EP[curEp].bufferSize);
 414              		.loc 1 907 0
 415 00c6 4E00     		lsls	r6, r1, #1
 416 00c8 7118     		adds	r1, r6, r1
 417              	.LVL25:
 418 00ca 8E00     		lsls	r6, r1, #2
 419 00cc 1149     		ldr	r1, .L32+12
 420 00ce 8919     		adds	r1, r1, r6
 421 00d0 0E89     		ldrh	r6, [r1, #8]
 422 00d2 360A     		lsrs	r6, r6, #8
 423 00d4 B046     		mov	r8, r6
 424 00d6 104E     		ldr	r6, .L32+16
 425 00d8 4746     		mov	r7, r8
 426 00da AF51     		str	r7, [r5, r6]
 908:Generated_Source\PSoC4/USBFS_std.c ****                 
 427              		.loc 1 908 0
ARM GAS  C:\Users\User\AppData\Local\Temp\ccieNkfn.s 			page 26


 428 00dc 0E89     		ldrh	r6, [r1, #8]
 429 00de F6B2     		uxtb	r6, r6
 430 00e0 4F46     		mov	r7, r9
 431 00e2 7E60     		str	r6, [r7, #4]
 911:Generated_Source\PSoC4/USBFS_std.c ****                     USBFS_ARB_EP16_BASE.arbEp[curEp].rwWa16  = (uint32) USBFS_EP[curEp].buffOffset;
 432              		.loc 1 911 0
 433 00e4 CE88     		ldrh	r6, [r1, #6]
 434 00e6 B6B2     		uxth	r6, r6
 435 00e8 0C4F     		ldr	r7, .L32+20
 436 00ea EF19     		adds	r7, r5, r7
 437 00ec BE60     		str	r6, [r7, #8]
 912:Generated_Source\PSoC4/USBFS_std.c ****                 #else
 438              		.loc 1 912 0
 439 00ee C988     		ldrh	r1, [r1, #6]
 440 00f0 89B2     		uxth	r1, r1
 441 00f2 0A4E     		ldr	r6, .L32+20
 442 00f4 A951     		str	r1, [r5, r6]
 443              	.LVL26:
 444              	.L24:
 922:Generated_Source\PSoC4/USBFS_std.c ****         }
 445              		.loc 1 922 0 discriminator 2
 446 00f6 0833     		adds	r3, r3, #8
 447              	.LVL27:
 832:Generated_Source\PSoC4/USBFS_std.c ****         {
 448              		.loc 1 832 0 discriminator 2
 449 00f8 0132     		adds	r2, r2, #1
 450              	.LVL28:
 451              	.L23:
 832:Generated_Source\PSoC4/USBFS_std.c ****         {
 452              		.loc 1 832 0 is_stmt 0 discriminator 1
 453 00fa A242     		cmp	r2, r4
 454 00fc 96D3     		bcc	.L29
 455              	.LVL29:
 456              	.L21:
 927:Generated_Source\PSoC4/USBFS_std.c **** 
 457              		.loc 1 927 0 is_stmt 1
 458              		@ sp needed
 459 00fe 1CBC     		pop	{r2, r3, r4}
 460 0100 9046     		mov	r8, r2
 461 0102 9946     		mov	r9, r3
 462 0104 A246     		mov	r10, r4
 463 0106 F0BD     		pop	{r4, r5, r6, r7, pc}
 464              	.L33:
 465              		.align	2
 466              	.L32:
 467 0108 00000000 		.word	USBFS_configuration
 468 010c 00000000 		.word	USBFS_interfaceNumber
 469 0110 00000000 		.word	USBFS_interfaceSetting
 470 0114 00000000 		.word	USBFS_EP
 471 0118 F0FF2B40 		.word	1076625392
 472 011c D0112C40 		.word	1076629968
 473              		.cfi_endproc
 474              	.LFE5:
 475              		.size	USBFS_ConfigAltChanged, .-USBFS_ConfigAltChanged
 476              		.section	.text.USBFS_GetDeviceTablePtr,"ax",%progbits
 477              		.align	2
 478              		.global	USBFS_GetDeviceTablePtr
ARM GAS  C:\Users\User\AppData\Local\Temp\ccieNkfn.s 			page 27


 479              		.code	16
 480              		.thumb_func
 481              		.type	USBFS_GetDeviceTablePtr, %function
 482              	USBFS_GetDeviceTablePtr:
 483              	.LFB7:
 968:Generated_Source\PSoC4/USBFS_std.c **** 
 969:Generated_Source\PSoC4/USBFS_std.c **** 
 970:Generated_Source\PSoC4/USBFS_std.c **** #if (USBFS_BOS_ENABLE)
 971:Generated_Source\PSoC4/USBFS_std.c ****     /*******************************************************************************
 972:Generated_Source\PSoC4/USBFS_std.c ****     * Function Name: USBFS_GetBOSPtr
 973:Generated_Source\PSoC4/USBFS_std.c ****     ****************************************************************************//**
 974:Generated_Source\PSoC4/USBFS_std.c ****     *
 975:Generated_Source\PSoC4/USBFS_std.c ****     *  This routine returns a pointer a BOS table entry
 976:Generated_Source\PSoC4/USBFS_std.c ****     *
 977:Generated_Source\PSoC4/USBFS_std.c ****     *  
 978:Generated_Source\PSoC4/USBFS_std.c ****     *
 979:Generated_Source\PSoC4/USBFS_std.c ****     * \return
 980:Generated_Source\PSoC4/USBFS_std.c ****     *  BOS Descriptor pointer or NULL when descriptor does not exist.
 981:Generated_Source\PSoC4/USBFS_std.c ****     *
 982:Generated_Source\PSoC4/USBFS_std.c ****     *******************************************************************************/
 983:Generated_Source\PSoC4/USBFS_std.c ****     const T_USBFS_LUT CYCODE *USBFS_GetBOSPtr(void)
 984:Generated_Source\PSoC4/USBFS_std.c ****                                                             
 985:Generated_Source\PSoC4/USBFS_std.c ****     {
 986:Generated_Source\PSoC4/USBFS_std.c ****         /* Device Table */
 987:Generated_Source\PSoC4/USBFS_std.c ****         const T_USBFS_LUT CYCODE *pTmp;
 988:Generated_Source\PSoC4/USBFS_std.c **** 
 989:Generated_Source\PSoC4/USBFS_std.c ****         pTmp = (const T_USBFS_LUT CYCODE *) USBFS_TABLE[USBFS_device].p_list;
 990:Generated_Source\PSoC4/USBFS_std.c **** 
 991:Generated_Source\PSoC4/USBFS_std.c ****         /* The first entry points to the Device Descriptor,
 992:Generated_Source\PSoC4/USBFS_std.c ****         *  the second entry points to the BOS Descriptor
 993:Generated_Source\PSoC4/USBFS_std.c ****         */
 994:Generated_Source\PSoC4/USBFS_std.c ****         pTmp = &pTmp[1u];
 995:Generated_Source\PSoC4/USBFS_std.c ****         pTmp = (const T_USBFS_LUT CYCODE *) pTmp->p_list;
 996:Generated_Source\PSoC4/USBFS_std.c ****         return (pTmp);
 997:Generated_Source\PSoC4/USBFS_std.c ****     }
 998:Generated_Source\PSoC4/USBFS_std.c **** #endif /* (USBFS_BOS_ENABLE) */
 999:Generated_Source\PSoC4/USBFS_std.c **** 
1000:Generated_Source\PSoC4/USBFS_std.c **** 
1001:Generated_Source\PSoC4/USBFS_std.c **** /*******************************************************************************
1002:Generated_Source\PSoC4/USBFS_std.c **** * Function Name: USBFS_GetDeviceTablePtr
1003:Generated_Source\PSoC4/USBFS_std.c **** ****************************************************************************//**
1004:Generated_Source\PSoC4/USBFS_std.c **** *
1005:Generated_Source\PSoC4/USBFS_std.c **** *  This routine returns a pointer to the Device table
1006:Generated_Source\PSoC4/USBFS_std.c **** *
1007:Generated_Source\PSoC4/USBFS_std.c **** * \return
1008:Generated_Source\PSoC4/USBFS_std.c **** *  Device Table pointer
1009:Generated_Source\PSoC4/USBFS_std.c **** *
1010:Generated_Source\PSoC4/USBFS_std.c **** *******************************************************************************/
1011:Generated_Source\PSoC4/USBFS_std.c **** const T_USBFS_LUT CYCODE *USBFS_GetDeviceTablePtr(void)
1012:Generated_Source\PSoC4/USBFS_std.c ****                                                             
1013:Generated_Source\PSoC4/USBFS_std.c **** {
 484              		.loc 1 1013 0
 485              		.cfi_startproc
 486              		@ args = 0, pretend = 0, frame = 0
 487              		@ frame_needed = 0, uses_anonymous_args = 0
 488              		@ link register save eliminated.
1014:Generated_Source\PSoC4/USBFS_std.c ****     /* Device Table */
ARM GAS  C:\Users\User\AppData\Local\Temp\ccieNkfn.s 			page 28


1015:Generated_Source\PSoC4/USBFS_std.c ****     return( (const T_USBFS_LUT CYCODE *) USBFS_TABLE[USBFS_device].p_list );
 489              		.loc 1 1015 0
 490 0000 034B     		ldr	r3, .L35
 491 0002 1B78     		ldrb	r3, [r3]
 492 0004 DB00     		lsls	r3, r3, #3
 493 0006 034A     		ldr	r2, .L35+4
 494 0008 D318     		adds	r3, r2, r3
 495 000a 5868     		ldr	r0, [r3, #4]
1016:Generated_Source\PSoC4/USBFS_std.c **** }
 496              		.loc 1 1016 0
 497              		@ sp needed
 498 000c 7047     		bx	lr
 499              	.L36:
 500 000e C046     		.align	2
 501              	.L35:
 502 0010 00000000 		.word	USBFS_device
 503 0014 00000000 		.word	USBFS_TABLE
 504              		.cfi_endproc
 505              	.LFE7:
 506              		.size	USBFS_GetDeviceTablePtr, .-USBFS_GetDeviceTablePtr
 507              		.section	.text.USBFS_GetInterfaceClassTablePtr,"ax",%progbits
 508              		.align	2
 509              		.global	USBFS_GetInterfaceClassTablePtr
 510              		.code	16
 511              		.thumb_func
 512              		.type	USBFS_GetInterfaceClassTablePtr, %function
 513              	USBFS_GetInterfaceClassTablePtr:
 514              	.LFB8:
1017:Generated_Source\PSoC4/USBFS_std.c **** 
1018:Generated_Source\PSoC4/USBFS_std.c **** 
1019:Generated_Source\PSoC4/USBFS_std.c **** /*******************************************************************************
1020:Generated_Source\PSoC4/USBFS_std.c **** * Function Name: USB_GetInterfaceClassTablePtr
1021:Generated_Source\PSoC4/USBFS_std.c **** ****************************************************************************//**
1022:Generated_Source\PSoC4/USBFS_std.c **** *
1023:Generated_Source\PSoC4/USBFS_std.c **** *  This routine returns Interface Class table pointer, which contains
1024:Generated_Source\PSoC4/USBFS_std.c **** *  the relation between interface number and interface class.
1025:Generated_Source\PSoC4/USBFS_std.c **** *
1026:Generated_Source\PSoC4/USBFS_std.c **** * \return
1027:Generated_Source\PSoC4/USBFS_std.c **** *  Interface Class table pointer.
1028:Generated_Source\PSoC4/USBFS_std.c **** *
1029:Generated_Source\PSoC4/USBFS_std.c **** *******************************************************************************/
1030:Generated_Source\PSoC4/USBFS_std.c **** const uint8 CYCODE *USBFS_GetInterfaceClassTablePtr(void)
1031:Generated_Source\PSoC4/USBFS_std.c ****                                                         
1032:Generated_Source\PSoC4/USBFS_std.c **** {
 515              		.loc 1 1032 0
 516              		.cfi_startproc
 517              		@ args = 0, pretend = 0, frame = 0
 518              		@ frame_needed = 0, uses_anonymous_args = 0
 519 0000 10B5     		push	{r4, lr}
 520              		.cfi_def_cfa_offset 8
 521              		.cfi_offset 4, -8
 522              		.cfi_offset 14, -4
1033:Generated_Source\PSoC4/USBFS_std.c ****     const T_USBFS_LUT CYCODE *pTmp;
1034:Generated_Source\PSoC4/USBFS_std.c ****     const uint8 CYCODE *pInterfaceClass;
1035:Generated_Source\PSoC4/USBFS_std.c ****     uint8 currentInterfacesNum;
1036:Generated_Source\PSoC4/USBFS_std.c **** 
1037:Generated_Source\PSoC4/USBFS_std.c ****     pTmp = USBFS_GetConfigTablePtr(USBFS_configuration - 1u);
ARM GAS  C:\Users\User\AppData\Local\Temp\ccieNkfn.s 			page 29


 523              		.loc 1 1037 0
 524 0002 084B     		ldr	r3, .L40
 525 0004 1878     		ldrb	r0, [r3]
 526 0006 0138     		subs	r0, r0, #1
 527 0008 C0B2     		uxtb	r0, r0
 528 000a FFF7FEFF 		bl	USBFS_GetConfigTablePtr
 529              	.LVL30:
1038:Generated_Source\PSoC4/USBFS_std.c ****     if (pTmp != NULL)
 530              		.loc 1 1038 0
 531 000e 0028     		cmp	r0, #0
 532 0010 06D0     		beq	.L39
1039:Generated_Source\PSoC4/USBFS_std.c ****     {
1040:Generated_Source\PSoC4/USBFS_std.c ****         currentInterfacesNum  = ((const uint8 *) pTmp->p_list)[USBFS_CONFIG_DESCR_NUM_INTERFACES];
 533              		.loc 1 1040 0
 534 0012 4368     		ldr	r3, [r0, #4]
 535 0014 1B79     		ldrb	r3, [r3, #4]
 536              	.LVL31:
1041:Generated_Source\PSoC4/USBFS_std.c ****         /* Third entry in the LUT starts the Interface Table pointers */
1042:Generated_Source\PSoC4/USBFS_std.c ****         /* The INTERFACE_CLASS table is located after all interfaces */
1043:Generated_Source\PSoC4/USBFS_std.c ****         pTmp = &pTmp[currentInterfacesNum + 2u];
 537              		.loc 1 1043 0
 538 0016 0233     		adds	r3, r3, #2
 539              	.LVL32:
 540 0018 DB00     		lsls	r3, r3, #3
 541              	.LVL33:
 542 001a C018     		adds	r0, r0, r3
 543              	.LVL34:
1044:Generated_Source\PSoC4/USBFS_std.c ****         pInterfaceClass = (const uint8 CYCODE *) pTmp->p_list;
 544              		.loc 1 1044 0
 545 001c 4068     		ldr	r0, [r0, #4]
 546              	.LVL35:
 547 001e 00E0     		b	.L38
 548              	.LVL36:
 549              	.L39:
1045:Generated_Source\PSoC4/USBFS_std.c ****     }
1046:Generated_Source\PSoC4/USBFS_std.c ****     else
1047:Generated_Source\PSoC4/USBFS_std.c ****     {
1048:Generated_Source\PSoC4/USBFS_std.c ****         pInterfaceClass = (const uint8 CYCODE *) NULL;
 550              		.loc 1 1048 0
 551 0020 0020     		movs	r0, #0
 552              	.LVL37:
 553              	.L38:
1049:Generated_Source\PSoC4/USBFS_std.c ****     }
1050:Generated_Source\PSoC4/USBFS_std.c **** 
1051:Generated_Source\PSoC4/USBFS_std.c ****     return (pInterfaceClass);
1052:Generated_Source\PSoC4/USBFS_std.c **** }
 554              		.loc 1 1052 0
 555              		@ sp needed
 556 0022 10BD     		pop	{r4, pc}
 557              	.L41:
 558              		.align	2
 559              	.L40:
 560 0024 00000000 		.word	USBFS_configuration
 561              		.cfi_endproc
 562              	.LFE8:
 563              		.size	USBFS_GetInterfaceClassTablePtr, .-USBFS_GetInterfaceClassTablePtr
 564              		.section	.text.USBFS_Config,"ax",%progbits
ARM GAS  C:\Users\User\AppData\Local\Temp\ccieNkfn.s 			page 30


 565              		.align	2
 566              		.global	USBFS_Config
 567              		.code	16
 568              		.thumb_func
 569              		.type	USBFS_Config, %function
 570              	USBFS_Config:
 571              	.LFB4:
 571:Generated_Source\PSoC4/USBFS_std.c ****     uint8 ep;
 572              		.loc 1 571 0
 573              		.cfi_startproc
 574              		@ args = 0, pretend = 0, frame = 0
 575              		@ frame_needed = 0, uses_anonymous_args = 0
 576              	.LVL38:
 577 0000 F0B5     		push	{r4, r5, r6, r7, lr}
 578              		.cfi_def_cfa_offset 20
 579              		.cfi_offset 4, -20
 580              		.cfi_offset 5, -16
 581              		.cfi_offset 6, -12
 582              		.cfi_offset 7, -8
 583              		.cfi_offset 14, -4
 584 0002 5746     		mov	r7, r10
 585 0004 4E46     		mov	r6, r9
 586 0006 4546     		mov	r5, r8
 587 0008 E0B4     		push	{r5, r6, r7}
 588              		.cfi_def_cfa_offset 32
 589              		.cfi_offset 8, -32
 590              		.cfi_offset 9, -28
 591              		.cfi_offset 10, -24
 592              	.LVL39:
 586:Generated_Source\PSoC4/USBFS_std.c ****     {
 593              		.loc 1 586 0
 594 000a 0023     		movs	r3, #0
 595 000c 12E0     		b	.L43
 596              	.LVL40:
 597              	.L44:
 588:Generated_Source\PSoC4/USBFS_std.c ****         USBFS_EP[ep].hwEpState  = 0u;
 598              		.loc 1 588 0 discriminator 3
 599 000e 6C4E     		ldr	r6, .L67
 600 0010 5900     		lsls	r1, r3, #1
 601 0012 CC18     		adds	r4, r1, r3
 602 0014 A200     		lsls	r2, r4, #2
 603 0016 0024     		movs	r4, #0
 604 0018 9455     		strb	r4, [r2, r6]
 589:Generated_Source\PSoC4/USBFS_std.c ****         USBFS_EP[ep].epToggle   = 0u;
 605              		.loc 1 589 0 discriminator 3
 606 001a B218     		adds	r2, r6, r2
 607 001c 9470     		strb	r4, [r2, #2]
 590:Generated_Source\PSoC4/USBFS_std.c ****         USBFS_EP[ep].bufferSize = 0u;
 608              		.loc 1 590 0 discriminator 3
 609 001e D470     		strb	r4, [r2, #3]
 591:Generated_Source\PSoC4/USBFS_std.c ****         USBFS_EP[ep].interface  = 0u;
 610              		.loc 1 591 0 discriminator 3
 611 0020 0025     		movs	r5, #0
 612 0022 1481     		strh	r4, [r2, #8]
 592:Generated_Source\PSoC4/USBFS_std.c ****         USBFS_EP[ep].apiEpState = USBFS_NO_EVENT_PENDING;
 613              		.loc 1 592 0 discriminator 3
 614 0024 9572     		strb	r5, [r2, #10]
ARM GAS  C:\Users\User\AppData\Local\Temp\ccieNkfn.s 			page 31


 593:Generated_Source\PSoC4/USBFS_std.c ****         USBFS_EP[ep].epMode     = USBFS_MODE_DISABLE;   
 615              		.loc 1 593 0 discriminator 3
 616 0026 5570     		strb	r5, [r2, #1]
 594:Generated_Source\PSoC4/USBFS_std.c ****     }
 617              		.loc 1 594 0 discriminator 3
 618 0028 C918     		adds	r1, r1, r3
 619 002a 8A00     		lsls	r2, r1, #2
 620 002c B218     		adds	r2, r6, r2
 621 002e 5571     		strb	r5, [r2, #5]
 586:Generated_Source\PSoC4/USBFS_std.c ****     {
 622              		.loc 1 586 0 discriminator 3
 623 0030 0133     		adds	r3, r3, #1
 624              	.LVL41:
 625 0032 DBB2     		uxtb	r3, r3
 626              	.LVL42:
 627              	.L43:
 586:Generated_Source\PSoC4/USBFS_std.c ****     {
 628              		.loc 1 586 0 is_stmt 0 discriminator 1
 629 0034 082B     		cmp	r3, #8
 630 0036 EAD9     		bls	.L44
 598:Generated_Source\PSoC4/USBFS_std.c ****     {
 631              		.loc 1 598 0 is_stmt 1
 632 0038 0028     		cmp	r0, #0
 633 003a 08D1     		bne	.L64
 634 003c 0AE0     		b	.L46
 635              	.LVL43:
 636              	.L47:
 602:Generated_Source\PSoC4/USBFS_std.c ****             USBFS_interfaceSettingLast[i] = 0u;
 637              		.loc 1 602 0 discriminator 3
 638 003e 0022     		movs	r2, #0
 639 0040 6049     		ldr	r1, .L67+4
 640 0042 CA54     		strb	r2, [r1, r3]
 603:Generated_Source\PSoC4/USBFS_std.c ****         }
 641              		.loc 1 603 0 discriminator 3
 642 0044 6049     		ldr	r1, .L67+8
 643 0046 CA54     		strb	r2, [r1, r3]
 600:Generated_Source\PSoC4/USBFS_std.c ****         {
 644              		.loc 1 600 0 discriminator 3
 645 0048 0133     		adds	r3, r3, #1
 646              	.LVL44:
 647 004a DBB2     		uxtb	r3, r3
 648              	.LVL45:
 649 004c 00E0     		b	.L45
 650              	.LVL46:
 651              	.L64:
 652 004e 0023     		movs	r3, #0
 653              	.LVL47:
 654              	.L45:
 600:Generated_Source\PSoC4/USBFS_std.c ****         {
 655              		.loc 1 600 0 is_stmt 0 discriminator 1
 656 0050 002B     		cmp	r3, #0
 657 0052 F4D0     		beq	.L47
 658              	.LVL48:
 659              	.L46:
 608:Generated_Source\PSoC4/USBFS_std.c ****     {
 660              		.loc 1 608 0 is_stmt 1
 661 0054 5D4B     		ldr	r3, .L67+12
ARM GAS  C:\Users\User\AppData\Local\Temp\ccieNkfn.s 			page 32


 662 0056 1B78     		ldrb	r3, [r3]
 663 0058 002B     		cmp	r3, #0
 664 005a 00D1     		bne	.LCB645
 665 005c ABE0     		b	.L42	@long jump
 666              	.LCB645:
 614:Generated_Source\PSoC4/USBFS_std.c ****         
 667              		.loc 1 614 0
 668 005e 5B4B     		ldr	r3, .L67+12
 669 0060 1878     		ldrb	r0, [r3]
 670              	.LVL49:
 671 0062 0138     		subs	r0, r0, #1
 672 0064 C0B2     		uxtb	r0, r0
 673 0066 FFF7FEFF 		bl	USBFS_GetConfigTablePtr
 674              	.LVL50:
 675 006a 8246     		mov	r10, r0
 676              	.LVL51:
 618:Generated_Source\PSoC4/USBFS_std.c ****         {
 677              		.loc 1 618 0
 678 006c 4368     		ldr	r3, [r0, #4]
 679 006e DB79     		ldrb	r3, [r3, #7]
 680 0070 5B06     		lsls	r3, r3, #25
 681 0072 06D5     		bpl	.L49
 620:Generated_Source\PSoC4/USBFS_std.c ****         }
 682              		.loc 1 620 0
 683 0074 564A     		ldr	r2, .L67+16
 684 0076 1178     		ldrb	r1, [r2]
 685 0078 0123     		movs	r3, #1
 686 007a 0B43     		orrs	r3, r1
 687 007c DBB2     		uxtb	r3, r3
 688 007e 1370     		strb	r3, [r2]
 689 0080 04E0     		b	.L50
 690              	.L49:
 624:Generated_Source\PSoC4/USBFS_std.c ****         }
 691              		.loc 1 624 0
 692 0082 534A     		ldr	r2, .L67+16
 693 0084 1378     		ldrb	r3, [r2]
 694 0086 0121     		movs	r1, #1
 695 0088 8B43     		bics	r3, r1
 696 008a 1370     		strb	r3, [r2]
 697              	.L50:
 698              	.LVL52:
 629:Generated_Source\PSoC4/USBFS_std.c **** 
 699              		.loc 1 629 0
 700 008c 5346     		mov	r3, r10
 701 008e 1E7A     		ldrb	r6, [r3, #8]
 702              	.LVL53:
 687:Generated_Source\PSoC4/USBFS_std.c ****             {
 703              		.loc 1 687 0
 704 0090 0124     		movs	r4, #1
 705 0092 65E0     		b	.L51
 706              	.LVL54:
 707              	.L59:
 690:Generated_Source\PSoC4/USBFS_std.c ****                 /* Find max length for each EP and select it (length could be different in differen
 708              		.loc 1 690 0
 709 0094 5346     		mov	r3, r10
 710 0096 D968     		ldr	r1, [r3, #12]
 711              	.LVL55:
ARM GAS  C:\Users\User\AppData\Local\Temp\ccieNkfn.s 			page 33


 694:Generated_Source\PSoC4/USBFS_std.c ****                 {
 712              		.loc 1 694 0
 713 0098 0023     		movs	r3, #0
 714 009a 5DE0     		b	.L52
 715              	.LVL56:
 716              	.L58:
 696:Generated_Source\PSoC4/USBFS_std.c ****                     {
 717              		.loc 1 696 0
 718 009c 8A78     		ldrb	r2, [r1, #2]
 719 009e 7F25     		movs	r5, #127
 720 00a0 2A40     		ands	r2, r5
 721 00a2 9442     		cmp	r4, r2
 722 00a4 55D1     		bne	.L53
 699:Generated_Source\PSoC4/USBFS_std.c ****                         {
 723              		.loc 1 699 0
 724 00a6 2700     		movs	r7, r4
 725 00a8 6500     		lsls	r5, r4, #1
 726 00aa 2D19     		adds	r5, r5, r4
 727 00ac AA00     		lsls	r2, r5, #2
 728 00ae 444D     		ldr	r5, .L67
 729 00b0 AA18     		adds	r2, r5, r2
 730 00b2 1289     		ldrh	r2, [r2, #8]
 731 00b4 92B2     		uxth	r2, r2
 732 00b6 8D88     		ldrh	r5, [r1, #4]
 733 00b8 AA42     		cmp	r2, r5
 734 00ba 08D2     		bcs	.L54
 701:Generated_Source\PSoC4/USBFS_std.c ****                         }
 735              		.loc 1 701 0
 736 00bc 6200     		lsls	r2, r4, #1
 737 00be 9446     		mov	ip, r2
 738 00c0 A444     		add	ip, ip, r4
 739 00c2 6246     		mov	r2, ip
 740 00c4 9200     		lsls	r2, r2, #2
 741 00c6 3E48     		ldr	r0, .L67
 742 00c8 8446     		mov	ip, r0
 743 00ca 6244     		add	r2, r2, ip
 744 00cc 1581     		strh	r5, [r2, #8]
 745              	.L54:
 705:Generated_Source\PSoC4/USBFS_std.c ****                         {                            
 746              		.loc 1 705 0
 747 00ce 0A78     		ldrb	r2, [r1]
 748 00d0 3C4D     		ldr	r5, .L67+4
 749 00d2 AA5C     		ldrb	r2, [r5, r2]
 750 00d4 D2B2     		uxtb	r2, r2
 751 00d6 4D78     		ldrb	r5, [r1, #1]
 752 00d8 AA42     		cmp	r2, r5
 753 00da 3AD1     		bne	.L53
 707:Generated_Source\PSoC4/USBFS_std.c ****                             USBFS_EP[i].attrib = pEP->attributes;
 754              		.loc 1 707 0
 755 00dc 8A78     		ldrb	r2, [r1, #2]
 756 00de 9146     		mov	r9, r2
 757 00e0 374A     		ldr	r2, .L67
 758 00e2 9446     		mov	ip, r2
 759 00e4 7A00     		lsls	r2, r7, #1
 760 00e6 D019     		adds	r0, r2, r7
 761 00e8 8500     		lsls	r5, r0, #2
 762 00ea 6544     		add	r5, r5, ip
ARM GAS  C:\Users\User\AppData\Local\Temp\ccieNkfn.s 			page 34


 763 00ec 4846     		mov	r0, r9
 764 00ee 2871     		strb	r0, [r5, #4]
 708:Generated_Source\PSoC4/USBFS_std.c ****                             
 765              		.loc 1 708 0
 766 00f0 C878     		ldrb	r0, [r1, #3]
 767 00f2 D219     		adds	r2, r2, r7
 768 00f4 9500     		lsls	r5, r2, #2
 769 00f6 6246     		mov	r2, ip
 770 00f8 A854     		strb	r0, [r5, r2]
 710:Generated_Source\PSoC4/USBFS_std.c ****                             
 771              		.loc 1 710 0
 772 00fa CA78     		ldrb	r2, [r1, #3]
 773 00fc 0325     		movs	r5, #3
 774 00fe 2A40     		ands	r2, r5
 775              	.LVL57:
 712:Generated_Source\PSoC4/USBFS_std.c ****                             {
 776              		.loc 1 712 0
 777 0100 0225     		movs	r5, #2
 778 0102 4D57     		ldrsb	r5, [r1, r5]
 779 0104 002D     		cmp	r5, #0
 780 0106 12DA     		bge	.L55
 715:Generated_Source\PSoC4/USBFS_std.c ****                                 USBFS_EP[i].apiEpState = USBFS_EVENT_PENDING;
 781              		.loc 1 715 0
 782 0108 012A     		cmp	r2, #1
 783 010a 02D1     		bne	.L65
 784 010c 0632     		adds	r2, r2, #6
 785              	.LVL58:
 786 010e 9146     		mov	r9, r2
 787 0110 01E0     		b	.L56
 788              	.LVL59:
 789              	.L65:
 790 0112 0D22     		movs	r2, #13
 791              	.LVL60:
 792 0114 9146     		mov	r9, r2
 793              	.L56:
 715:Generated_Source\PSoC4/USBFS_std.c ****                                 USBFS_EP[i].apiEpState = USBFS_EVENT_PENDING;
 794              		.loc 1 715 0 is_stmt 0 discriminator 4
 795 0116 2A4A     		ldr	r2, .L67
 796 0118 9446     		mov	ip, r2
 797 011a 7A00     		lsls	r2, r7, #1
 798 011c D019     		adds	r0, r2, r7
 799 011e 8500     		lsls	r5, r0, #2
 800 0120 6544     		add	r5, r5, ip
 801 0122 4846     		mov	r0, r9
 802 0124 6871     		strb	r0, [r5, #5]
 803              	.LVL61:
 716:Generated_Source\PSoC4/USBFS_std.c ****                                 
 804              		.loc 1 716 0 is_stmt 1 discriminator 4
 805 0126 2A00     		movs	r2, r5
 806 0128 0125     		movs	r5, #1
 807 012a 5570     		strb	r5, [r2, #1]
 808 012c 11E0     		b	.L53
 809              	.LVL62:
 810              	.L55:
 728:Generated_Source\PSoC4/USBFS_std.c ****                                 USBFS_EP[i].apiEpState = USBFS_NO_EVENT_PENDING;
 811              		.loc 1 728 0
 812 012e 012A     		cmp	r2, #1
ARM GAS  C:\Users\User\AppData\Local\Temp\ccieNkfn.s 			page 35


 813 0130 02D1     		bne	.L66
 814 0132 0432     		adds	r2, r2, #4
 815              	.LVL63:
 816 0134 9146     		mov	r9, r2
 817 0136 01E0     		b	.L57
 818              	.LVL64:
 819              	.L66:
 820 0138 0922     		movs	r2, #9
 821              	.LVL65:
 822 013a 9146     		mov	r9, r2
 823              	.L57:
 728:Generated_Source\PSoC4/USBFS_std.c ****                                 USBFS_EP[i].apiEpState = USBFS_NO_EVENT_PENDING;
 824              		.loc 1 728 0 is_stmt 0 discriminator 4
 825 013c 204A     		ldr	r2, .L67
 826 013e 9446     		mov	ip, r2
 827 0140 7A00     		lsls	r2, r7, #1
 828 0142 D019     		adds	r0, r2, r7
 829 0144 8500     		lsls	r5, r0, #2
 830 0146 6544     		add	r5, r5, ip
 831 0148 4846     		mov	r0, r9
 832 014a 6871     		strb	r0, [r5, #5]
 833              	.LVL66:
 729:Generated_Source\PSoC4/USBFS_std.c ****                                 
 834              		.loc 1 729 0 is_stmt 1 discriminator 4
 835 014c 2A00     		movs	r2, r5
 836 014e 0025     		movs	r5, #0
 837 0150 5570     		strb	r5, [r2, #1]
 838              	.L53:
 752:Generated_Source\PSoC4/USBFS_std.c ****                 }
 839              		.loc 1 752 0 discriminator 2
 840 0152 0831     		adds	r1, r1, #8
 841              	.LVL67:
 694:Generated_Source\PSoC4/USBFS_std.c ****                 {
 842              		.loc 1 694 0 discriminator 2
 843 0154 0133     		adds	r3, r3, #1
 844              	.LVL68:
 845 0156 DBB2     		uxtb	r3, r3
 846              	.LVL69:
 847              	.L52:
 694:Generated_Source\PSoC4/USBFS_std.c ****                 {
 848              		.loc 1 694 0 is_stmt 0 discriminator 1
 849 0158 B342     		cmp	r3, r6
 850 015a 9FD3     		bcc	.L58
 687:Generated_Source\PSoC4/USBFS_std.c ****             {
 851              		.loc 1 687 0 is_stmt 1 discriminator 2
 852 015c 0134     		adds	r4, r4, #1
 853              	.LVL70:
 854 015e E4B2     		uxtb	r4, r4
 855              	.LVL71:
 856              	.L51:
 687:Generated_Source\PSoC4/USBFS_std.c ****             {
 857              		.loc 1 687 0 is_stmt 0 discriminator 1
 858 0160 082C     		cmp	r4, #8
 859 0162 97D9     		bls	.L59
 762:Generated_Source\PSoC4/USBFS_std.c ****         for (i = 0u; i < ep; i++)
 860              		.loc 1 762 0 is_stmt 1
 861 0164 5346     		mov	r3, r10
ARM GAS  C:\Users\User\AppData\Local\Temp\ccieNkfn.s 			page 36


 862 0166 D868     		ldr	r0, [r3, #12]
 863              	.LVL72:
 763:Generated_Source\PSoC4/USBFS_std.c ****         {
 864              		.loc 1 763 0
 865 0168 0022     		movs	r2, #0
 866 016a 0CE0     		b	.L60
 867              	.LVL73:
 868              	.L61:
 766:Generated_Source\PSoC4/USBFS_std.c ****             pEP = &pEP[1u];
 869              		.loc 1 766 0 discriminator 3
 870 016c 8378     		ldrb	r3, [r0, #2]
 871 016e 7F21     		movs	r1, #127
 872 0170 0B40     		ands	r3, r1
 873 0172 0478     		ldrb	r4, [r0]
 874 0174 5900     		lsls	r1, r3, #1
 875 0176 CB18     		adds	r3, r1, r3
 876 0178 9900     		lsls	r1, r3, #2
 877 017a 114B     		ldr	r3, .L67
 878 017c 5918     		adds	r1, r3, r1
 879 017e 8C72     		strb	r4, [r1, #10]
 767:Generated_Source\PSoC4/USBFS_std.c ****         }
 880              		.loc 1 767 0 discriminator 3
 881 0180 0830     		adds	r0, r0, #8
 882              	.LVL74:
 763:Generated_Source\PSoC4/USBFS_std.c ****         {
 883              		.loc 1 763 0 discriminator 3
 884 0182 0132     		adds	r2, r2, #1
 885              	.LVL75:
 886 0184 D2B2     		uxtb	r2, r2
 887              	.LVL76:
 888              	.L60:
 763:Generated_Source\PSoC4/USBFS_std.c ****         {
 889              		.loc 1 763 0 is_stmt 0 discriminator 1
 890 0186 B242     		cmp	r2, r6
 891 0188 F0D3     		bcc	.L61
 771:Generated_Source\PSoC4/USBFS_std.c ****         
 892              		.loc 1 771 0 is_stmt 1
 893 018a FFF7FEFF 		bl	USBFS_GetInterfaceClassTablePtr
 894              	.LVL77:
 895 018e 114B     		ldr	r3, .L67+20
 896 0190 1860     		str	r0, [r3]
 897              	.LVL78:
 775:Generated_Source\PSoC4/USBFS_std.c ****         for (ep = USBFS_EP1; ep < USBFS_MAX_EP; ++ep)
 898              		.loc 1 775 0
 899 0192 0021     		movs	r1, #0
 776:Generated_Source\PSoC4/USBFS_std.c ****         {
 900              		.loc 1 776 0
 901 0194 0123     		movs	r3, #1
 902 0196 0AE0     		b	.L62
 903              	.LVL79:
 904              	.L63:
 778:Generated_Source\PSoC4/USBFS_std.c ****             buffCount += USBFS_EP[ep].bufferSize;
 905              		.loc 1 778 0 discriminator 3
 906 0198 094D     		ldr	r5, .L67
 907 019a 5A00     		lsls	r2, r3, #1
 908 019c D018     		adds	r0, r2, r3
 909 019e 8400     		lsls	r4, r0, #2
ARM GAS  C:\Users\User\AppData\Local\Temp\ccieNkfn.s 			page 37


 910 01a0 2C19     		adds	r4, r5, r4
 911 01a2 E180     		strh	r1, [r4, #6]
 779:Generated_Source\PSoC4/USBFS_std.c ****             
 912              		.loc 1 779 0 discriminator 3
 913 01a4 2289     		ldrh	r2, [r4, #8]
 914 01a6 5118     		adds	r1, r2, r1
 915              	.LVL80:
 916 01a8 89B2     		uxth	r1, r1
 917              	.LVL81:
 776:Generated_Source\PSoC4/USBFS_std.c ****         {
 918              		.loc 1 776 0 discriminator 3
 919 01aa 0133     		adds	r3, r3, #1
 920              	.LVL82:
 921 01ac DBB2     		uxtb	r3, r3
 922              	.LVL83:
 923              	.L62:
 776:Generated_Source\PSoC4/USBFS_std.c ****         {
 924              		.loc 1 776 0 is_stmt 0 discriminator 1
 925 01ae 082B     		cmp	r3, #8
 926 01b0 F2D9     		bls	.L63
 789:Generated_Source\PSoC4/USBFS_std.c ****     }
 927              		.loc 1 789 0 is_stmt 1
 928 01b2 FFF7FEFF 		bl	USBFS_ConfigReg
 929              	.LVL84:
 930              	.L42:
 791:Generated_Source\PSoC4/USBFS_std.c **** 
 931              		.loc 1 791 0
 932              		@ sp needed
 933 01b6 1CBC     		pop	{r2, r3, r4}
 934 01b8 9046     		mov	r8, r2
 935 01ba 9946     		mov	r9, r3
 936 01bc A246     		mov	r10, r4
 937 01be F0BD     		pop	{r4, r5, r6, r7, pc}
 938              	.L68:
 939              		.align	2
 940              	.L67:
 941 01c0 00000000 		.word	USBFS_EP
 942 01c4 00000000 		.word	USBFS_interfaceSetting
 943 01c8 00000000 		.word	USBFS_interfaceSettingLast
 944 01cc 00000000 		.word	USBFS_configuration
 945 01d0 00000000 		.word	USBFS_deviceStatus
 946 01d4 00000000 		.word	USBFS_interfaceClass
 947              		.cfi_endproc
 948              	.LFE4:
 949              		.size	USBFS_Config, .-USBFS_Config
 950              		.section	.text.USBFS_TerminateEP,"ax",%progbits
 951              		.align	2
 952              		.global	USBFS_TerminateEP
 953              		.code	16
 954              		.thumb_func
 955              		.type	USBFS_TerminateEP, %function
 956              	USBFS_TerminateEP:
 957              	.LFB9:
1053:Generated_Source\PSoC4/USBFS_std.c **** 
1054:Generated_Source\PSoC4/USBFS_std.c **** 
1055:Generated_Source\PSoC4/USBFS_std.c **** /*******************************************************************************
1056:Generated_Source\PSoC4/USBFS_std.c **** * Function Name: USBFS_TerminateEP
ARM GAS  C:\Users\User\AppData\Local\Temp\ccieNkfn.s 			page 38


1057:Generated_Source\PSoC4/USBFS_std.c **** ****************************************************************************//**
1058:Generated_Source\PSoC4/USBFS_std.c **** *
1059:Generated_Source\PSoC4/USBFS_std.c **** *  This function terminates the specified USBFS endpoint.
1060:Generated_Source\PSoC4/USBFS_std.c **** *  This function should be used before endpoint reconfiguration.
1061:Generated_Source\PSoC4/USBFS_std.c **** *
1062:Generated_Source\PSoC4/USBFS_std.c **** *  \param ep Contains the data endpoint number.
1063:Generated_Source\PSoC4/USBFS_std.c **** *
1064:Generated_Source\PSoC4/USBFS_std.c **** *  \reentrant
1065:Generated_Source\PSoC4/USBFS_std.c **** *  No.
1066:Generated_Source\PSoC4/USBFS_std.c **** *
1067:Generated_Source\PSoC4/USBFS_std.c **** * \sideeffect
1068:Generated_Source\PSoC4/USBFS_std.c **** * 
1069:Generated_Source\PSoC4/USBFS_std.c **** * The device responds with a NAK for any transactions on the selected endpoint.
1070:Generated_Source\PSoC4/USBFS_std.c **** *   
1071:Generated_Source\PSoC4/USBFS_std.c **** *******************************************************************************/
1072:Generated_Source\PSoC4/USBFS_std.c **** void USBFS_TerminateEP(uint8 epNumber) 
1073:Generated_Source\PSoC4/USBFS_std.c **** {
 958              		.loc 1 1073 0
 959              		.cfi_startproc
 960              		@ args = 0, pretend = 0, frame = 0
 961              		@ frame_needed = 0, uses_anonymous_args = 0
 962              		@ link register save eliminated.
 963              	.LVL85:
1074:Generated_Source\PSoC4/USBFS_std.c ****     /* Get endpoint number */
1075:Generated_Source\PSoC4/USBFS_std.c ****     epNumber &= USBFS_DIR_UNUSED;
 964              		.loc 1 1075 0
 965 0000 7F23     		movs	r3, #127
 966 0002 1840     		ands	r0, r3
 967              	.LVL86:
1076:Generated_Source\PSoC4/USBFS_std.c **** 
1077:Generated_Source\PSoC4/USBFS_std.c ****     if ((epNumber > USBFS_EP0) && (epNumber < USBFS_MAX_EP))
 968              		.loc 1 1077 0
 969 0004 431E     		subs	r3, r0, #1
 970 0006 DBB2     		uxtb	r3, r3
 971 0008 072B     		cmp	r3, #7
 972 000a 1ED8     		bhi	.L69
1078:Generated_Source\PSoC4/USBFS_std.c ****     {
1079:Generated_Source\PSoC4/USBFS_std.c ****         /* Set the endpoint Halt */
1080:Generated_Source\PSoC4/USBFS_std.c ****         USBFS_EP[epNumber].hwEpState |= USBFS_ENDPOINT_STATUS_HALT;
 973              		.loc 1 1080 0
 974 000c 4200     		lsls	r2, r0, #1
 975 000e 1218     		adds	r2, r2, r0
 976 0010 9300     		lsls	r3, r2, #2
 977 0012 0E4A     		ldr	r2, .L72
 978 0014 D318     		adds	r3, r2, r3
 979 0016 9978     		ldrb	r1, [r3, #2]
 980 0018 0122     		movs	r2, #1
 981 001a 0A43     		orrs	r2, r1
 982 001c D2B2     		uxtb	r2, r2
 983 001e 9A70     		strb	r2, [r3, #2]
1081:Generated_Source\PSoC4/USBFS_std.c **** 
1082:Generated_Source\PSoC4/USBFS_std.c ****         /* Clear the data toggle */
1083:Generated_Source\PSoC4/USBFS_std.c ****         USBFS_EP[epNumber].epToggle = 0u;
 984              		.loc 1 1083 0
 985 0020 0022     		movs	r2, #0
 986 0022 DA70     		strb	r2, [r3, #3]
1084:Generated_Source\PSoC4/USBFS_std.c ****         USBFS_EP[epNumber].apiEpState = USBFS_NO_EVENT_ALLOWED;
ARM GAS  C:\Users\User\AppData\Local\Temp\ccieNkfn.s 			page 39


 987              		.loc 1 1084 0
 988 0024 0232     		adds	r2, r2, #2
 989 0026 5A70     		strb	r2, [r3, #1]
1085:Generated_Source\PSoC4/USBFS_std.c **** 
1086:Generated_Source\PSoC4/USBFS_std.c ****         if ((USBFS_EP[epNumber].addr & USBFS_DIR_IN) != 0u)
 990              		.loc 1 1086 0
 991 0028 1B79     		ldrb	r3, [r3, #4]
 992 002a 5BB2     		sxtb	r3, r3
 993 002c 002B     		cmp	r3, #0
 994 002e 06DA     		bge	.L71
1087:Generated_Source\PSoC4/USBFS_std.c ****         {   
1088:Generated_Source\PSoC4/USBFS_std.c ****             /* IN Endpoint */
1089:Generated_Source\PSoC4/USBFS_std.c ****             USBFS_SIE_EP_BASE.sieEp[epNumber].epCr0 = USBFS_MODE_NAK_IN;
 995              		.loc 1 1089 0
 996 0030 8001     		lsls	r0, r0, #6
 997              	.LVL87:
 998 0032 074B     		ldr	r3, .L72+4
 999 0034 9C46     		mov	ip, r3
 1000 0036 6044     		add	r0, r0, ip
 1001 0038 0C23     		movs	r3, #12
 1002 003a 8360     		str	r3, [r0, #8]
 1003 003c 05E0     		b	.L69
 1004              	.LVL88:
 1005              	.L71:
1090:Generated_Source\PSoC4/USBFS_std.c ****         }
1091:Generated_Source\PSoC4/USBFS_std.c ****         else
1092:Generated_Source\PSoC4/USBFS_std.c ****         {
1093:Generated_Source\PSoC4/USBFS_std.c ****             /* OUT Endpoint */
1094:Generated_Source\PSoC4/USBFS_std.c ****             USBFS_SIE_EP_BASE.sieEp[epNumber].epCr0 = USBFS_MODE_NAK_OUT;
 1006              		.loc 1 1094 0
 1007 003e 8001     		lsls	r0, r0, #6
 1008              	.LVL89:
 1009 0040 034B     		ldr	r3, .L72+4
 1010 0042 9C46     		mov	ip, r3
 1011 0044 6044     		add	r0, r0, ip
 1012 0046 0823     		movs	r3, #8
 1013 0048 8360     		str	r3, [r0, #8]
 1014              	.L69:
1095:Generated_Source\PSoC4/USBFS_std.c ****         }
1096:Generated_Source\PSoC4/USBFS_std.c ****     }
1097:Generated_Source\PSoC4/USBFS_std.c **** }
 1015              		.loc 1 1097 0
 1016              		@ sp needed
 1017 004a 7047     		bx	lr
 1018              	.L73:
 1019              		.align	2
 1020              	.L72:
 1021 004c 00000000 		.word	USBFS_EP
 1022 0050 F0FF2B40 		.word	1076625392
 1023              		.cfi_endproc
 1024              	.LFE9:
 1025              		.size	USBFS_TerminateEP, .-USBFS_TerminateEP
 1026              		.section	.text.USBFS_SetEndpointHalt,"ax",%progbits
 1027              		.align	2
 1028              		.global	USBFS_SetEndpointHalt
 1029              		.code	16
 1030              		.thumb_func
ARM GAS  C:\Users\User\AppData\Local\Temp\ccieNkfn.s 			page 40


 1031              		.type	USBFS_SetEndpointHalt, %function
 1032              	USBFS_SetEndpointHalt:
 1033              	.LFB10:
1098:Generated_Source\PSoC4/USBFS_std.c **** 
1099:Generated_Source\PSoC4/USBFS_std.c **** 
1100:Generated_Source\PSoC4/USBFS_std.c **** /*******************************************************************************
1101:Generated_Source\PSoC4/USBFS_std.c **** * Function Name: USBFS_SetEndpointHalt
1102:Generated_Source\PSoC4/USBFS_std.c **** ****************************************************************************//**
1103:Generated_Source\PSoC4/USBFS_std.c **** *
1104:Generated_Source\PSoC4/USBFS_std.c **** *  This routine handles set endpoint halt.
1105:Generated_Source\PSoC4/USBFS_std.c **** *
1106:Generated_Source\PSoC4/USBFS_std.c **** * \return
1107:Generated_Source\PSoC4/USBFS_std.c **** *  requestHandled.
1108:Generated_Source\PSoC4/USBFS_std.c **** *
1109:Generated_Source\PSoC4/USBFS_std.c **** * \reentrant
1110:Generated_Source\PSoC4/USBFS_std.c **** *  No.
1111:Generated_Source\PSoC4/USBFS_std.c **** *
1112:Generated_Source\PSoC4/USBFS_std.c **** *******************************************************************************/
1113:Generated_Source\PSoC4/USBFS_std.c **** uint8 USBFS_SetEndpointHalt(void) 
1114:Generated_Source\PSoC4/USBFS_std.c **** {
 1034              		.loc 1 1114 0
 1035              		.cfi_startproc
 1036              		@ args = 0, pretend = 0, frame = 0
 1037              		@ frame_needed = 0, uses_anonymous_args = 0
 1038 0000 10B5     		push	{r4, lr}
 1039              		.cfi_def_cfa_offset 8
 1040              		.cfi_offset 4, -8
 1041              		.cfi_offset 14, -4
 1042              	.LVL90:
1115:Generated_Source\PSoC4/USBFS_std.c ****     uint8 requestHandled = USBFS_FALSE;
1116:Generated_Source\PSoC4/USBFS_std.c ****     uint32 ep;
1117:Generated_Source\PSoC4/USBFS_std.c ****     
1118:Generated_Source\PSoC4/USBFS_std.c ****     /* Set endpoint halt */
1119:Generated_Source\PSoC4/USBFS_std.c ****     ep = USBFS_wIndexLoReg & USBFS_DIR_UNUSED;
 1043              		.loc 1 1119 0
 1044 0002 174B     		ldr	r3, .L79
 1045 0004 1B69     		ldr	r3, [r3, #16]
 1046 0006 7F22     		movs	r2, #127
 1047 0008 1340     		ands	r3, r2
 1048              	.LVL91:
1120:Generated_Source\PSoC4/USBFS_std.c **** 
1121:Generated_Source\PSoC4/USBFS_std.c ****     if ((ep > USBFS_EP0) && (ep < USBFS_MAX_EP))
 1049              		.loc 1 1121 0
 1050 000a 5A1E     		subs	r2, r3, #1
 1051 000c 072A     		cmp	r2, #7
 1052 000e 24D8     		bhi	.L78
1122:Generated_Source\PSoC4/USBFS_std.c ****     {
1123:Generated_Source\PSoC4/USBFS_std.c ****         /* Set the endpoint Halt */
1124:Generated_Source\PSoC4/USBFS_std.c ****         USBFS_EP[ep].hwEpState |= (USBFS_ENDPOINT_STATUS_HALT);
 1053              		.loc 1 1124 0
 1054 0010 5900     		lsls	r1, r3, #1
 1055 0012 C918     		adds	r1, r1, r3
 1056 0014 8A00     		lsls	r2, r1, #2
 1057 0016 1349     		ldr	r1, .L79+4
 1058 0018 8A18     		adds	r2, r1, r2
 1059 001a 9078     		ldrb	r0, [r2, #2]
 1060 001c 0121     		movs	r1, #1
ARM GAS  C:\Users\User\AppData\Local\Temp\ccieNkfn.s 			page 41


 1061 001e 0143     		orrs	r1, r0
 1062 0020 C9B2     		uxtb	r1, r1
 1063 0022 9170     		strb	r1, [r2, #2]
1125:Generated_Source\PSoC4/USBFS_std.c **** 
1126:Generated_Source\PSoC4/USBFS_std.c ****         /* Clear the data toggle */
1127:Generated_Source\PSoC4/USBFS_std.c ****         USBFS_EP[ep].epToggle = 0u;
 1064              		.loc 1 1127 0
 1065 0024 0021     		movs	r1, #0
 1066 0026 D170     		strb	r1, [r2, #3]
1128:Generated_Source\PSoC4/USBFS_std.c ****         USBFS_EP[ep].apiEpState |= USBFS_NO_EVENT_ALLOWED;
 1067              		.loc 1 1128 0
 1068 0028 5078     		ldrb	r0, [r2, #1]
 1069 002a 0221     		movs	r1, #2
 1070 002c 0143     		orrs	r1, r0
 1071 002e C9B2     		uxtb	r1, r1
 1072 0030 5170     		strb	r1, [r2, #1]
1129:Generated_Source\PSoC4/USBFS_std.c **** 
1130:Generated_Source\PSoC4/USBFS_std.c ****         if ((USBFS_EP[ep].addr & USBFS_DIR_IN) != 0u)
 1073              		.loc 1 1130 0
 1074 0032 1279     		ldrb	r2, [r2, #4]
 1075 0034 52B2     		sxtb	r2, r2
 1076 0036 002A     		cmp	r2, #0
 1077 0038 06DA     		bge	.L76
1131:Generated_Source\PSoC4/USBFS_std.c ****         {
1132:Generated_Source\PSoC4/USBFS_std.c ****             /* IN Endpoint */
1133:Generated_Source\PSoC4/USBFS_std.c ****             USBFS_SIE_EP_BASE.sieEp[ep].epCr0 = (USBFS_MODE_STALL_DATA_EP | 
 1078              		.loc 1 1133 0
 1079 003a 9B01     		lsls	r3, r3, #6
 1080              	.LVL92:
 1081 003c 0A4A     		ldr	r2, .L79+8
 1082 003e 9446     		mov	ip, r2
 1083 0040 6344     		add	r3, r3, ip
 1084 0042 8D22     		movs	r2, #141
 1085 0044 9A60     		str	r2, [r3, #8]
 1086 0046 05E0     		b	.L77
 1087              	.LVL93:
 1088              	.L76:
1134:Generated_Source\PSoC4/USBFS_std.c ****                                                             USBFS_MODE_ACK_IN);
1135:Generated_Source\PSoC4/USBFS_std.c ****         }
1136:Generated_Source\PSoC4/USBFS_std.c ****         else
1137:Generated_Source\PSoC4/USBFS_std.c ****         {
1138:Generated_Source\PSoC4/USBFS_std.c ****             /* OUT Endpoint */
1139:Generated_Source\PSoC4/USBFS_std.c ****             USBFS_SIE_EP_BASE.sieEp[ep].epCr0 = (USBFS_MODE_STALL_DATA_EP | 
 1089              		.loc 1 1139 0
 1090 0048 9B01     		lsls	r3, r3, #6
 1091              	.LVL94:
 1092 004a 074A     		ldr	r2, .L79+8
 1093 004c 9446     		mov	ip, r2
 1094 004e 6344     		add	r3, r3, ip
 1095 0050 8922     		movs	r2, #137
 1096 0052 9A60     		str	r2, [r3, #8]
 1097              	.L77:
1140:Generated_Source\PSoC4/USBFS_std.c ****                                                             USBFS_MODE_ACK_OUT);
1141:Generated_Source\PSoC4/USBFS_std.c ****         }
1142:Generated_Source\PSoC4/USBFS_std.c ****         requestHandled = USBFS_InitNoDataControlTransfer();
 1098              		.loc 1 1142 0
 1099 0054 FFF7FEFF 		bl	USBFS_InitNoDataControlTransfer
ARM GAS  C:\Users\User\AppData\Local\Temp\ccieNkfn.s 			page 42


 1100              	.LVL95:
 1101 0058 00E0     		b	.L75
 1102              	.LVL96:
 1103              	.L78:
1115:Generated_Source\PSoC4/USBFS_std.c ****     uint32 ep;
 1104              		.loc 1 1115 0
 1105 005a 0020     		movs	r0, #0
 1106              	.LVL97:
 1107              	.L75:
1143:Generated_Source\PSoC4/USBFS_std.c ****     }
1144:Generated_Source\PSoC4/USBFS_std.c **** 
1145:Generated_Source\PSoC4/USBFS_std.c ****     return (requestHandled);
1146:Generated_Source\PSoC4/USBFS_std.c **** }
 1108              		.loc 1 1146 0
 1109              		@ sp needed
 1110 005c 10BD     		pop	{r4, pc}
 1111              	.L80:
 1112 005e C046     		.align	2
 1113              	.L79:
 1114 0060 00002C40 		.word	1076625408
 1115 0064 00000000 		.word	USBFS_EP
 1116 0068 F0FF2B40 		.word	1076625392
 1117              		.cfi_endproc
 1118              	.LFE10:
 1119              		.size	USBFS_SetEndpointHalt, .-USBFS_SetEndpointHalt
 1120              		.section	.text.USBFS_ClearEndpointHalt,"ax",%progbits
 1121              		.align	2
 1122              		.global	USBFS_ClearEndpointHalt
 1123              		.code	16
 1124              		.thumb_func
 1125              		.type	USBFS_ClearEndpointHalt, %function
 1126              	USBFS_ClearEndpointHalt:
 1127              	.LFB11:
1147:Generated_Source\PSoC4/USBFS_std.c **** 
1148:Generated_Source\PSoC4/USBFS_std.c **** 
1149:Generated_Source\PSoC4/USBFS_std.c **** /*******************************************************************************
1150:Generated_Source\PSoC4/USBFS_std.c **** * Function Name: USBFS_ClearEndpointHalt
1151:Generated_Source\PSoC4/USBFS_std.c **** ****************************************************************************//**
1152:Generated_Source\PSoC4/USBFS_std.c **** *
1153:Generated_Source\PSoC4/USBFS_std.c **** *  This routine handles clear endpoint halt.
1154:Generated_Source\PSoC4/USBFS_std.c **** *
1155:Generated_Source\PSoC4/USBFS_std.c **** * \return
1156:Generated_Source\PSoC4/USBFS_std.c **** *  requestHandled.
1157:Generated_Source\PSoC4/USBFS_std.c **** *
1158:Generated_Source\PSoC4/USBFS_std.c **** * \reentrant
1159:Generated_Source\PSoC4/USBFS_std.c **** *  No.
1160:Generated_Source\PSoC4/USBFS_std.c **** *
1161:Generated_Source\PSoC4/USBFS_std.c **** *******************************************************************************/
1162:Generated_Source\PSoC4/USBFS_std.c **** uint8 USBFS_ClearEndpointHalt(void) 
1163:Generated_Source\PSoC4/USBFS_std.c **** {
 1128              		.loc 1 1163 0
 1129              		.cfi_startproc
 1130              		@ args = 0, pretend = 0, frame = 0
 1131              		@ frame_needed = 0, uses_anonymous_args = 0
 1132 0000 70B5     		push	{r4, r5, r6, lr}
 1133              		.cfi_def_cfa_offset 16
 1134              		.cfi_offset 4, -16
ARM GAS  C:\Users\User\AppData\Local\Temp\ccieNkfn.s 			page 43


 1135              		.cfi_offset 5, -12
 1136              		.cfi_offset 6, -8
 1137              		.cfi_offset 14, -4
 1138              	.LVL98:
1164:Generated_Source\PSoC4/USBFS_std.c ****     uint8 requestHandled = USBFS_FALSE;
1165:Generated_Source\PSoC4/USBFS_std.c ****     uint32 ep;
1166:Generated_Source\PSoC4/USBFS_std.c **** 
1167:Generated_Source\PSoC4/USBFS_std.c ****     /* Clear endpoint halt */
1168:Generated_Source\PSoC4/USBFS_std.c ****     ep = USBFS_wIndexLoReg & USBFS_DIR_UNUSED;
 1139              		.loc 1 1168 0
 1140 0002 284B     		ldr	r3, .L88
 1141 0004 1B69     		ldr	r3, [r3, #16]
 1142 0006 7F22     		movs	r2, #127
 1143 0008 1340     		ands	r3, r2
 1144              	.LVL99:
1169:Generated_Source\PSoC4/USBFS_std.c **** 
1170:Generated_Source\PSoC4/USBFS_std.c ****     if ((ep > USBFS_EP0) && (ep < USBFS_MAX_EP))
 1145              		.loc 1 1170 0
 1146 000a 5A1E     		subs	r2, r3, #1
 1147 000c 072A     		cmp	r2, #7
 1148 000e 46D8     		bhi	.L87
1171:Generated_Source\PSoC4/USBFS_std.c ****     {
1172:Generated_Source\PSoC4/USBFS_std.c ****         /* Clear the endpoint Halt */
1173:Generated_Source\PSoC4/USBFS_std.c ****         USBFS_EP[ep].hwEpState &= (uint8) ~USBFS_ENDPOINT_STATUS_HALT;
 1149              		.loc 1 1173 0
 1150 0010 5900     		lsls	r1, r3, #1
 1151 0012 C918     		adds	r1, r1, r3
 1152 0014 8A00     		lsls	r2, r1, #2
 1153 0016 2449     		ldr	r1, .L88+4
 1154 0018 8A18     		adds	r2, r1, r2
 1155 001a 9178     		ldrb	r1, [r2, #2]
 1156 001c 0120     		movs	r0, #1
 1157 001e 8143     		bics	r1, r0
 1158 0020 9170     		strb	r1, [r2, #2]
1174:Generated_Source\PSoC4/USBFS_std.c **** 
1175:Generated_Source\PSoC4/USBFS_std.c ****         /* Clear the data toggle */
1176:Generated_Source\PSoC4/USBFS_std.c ****         USBFS_EP[ep].epToggle = 0u;
 1159              		.loc 1 1176 0
 1160 0022 0021     		movs	r1, #0
 1161 0024 D170     		strb	r1, [r2, #3]
1177:Generated_Source\PSoC4/USBFS_std.c ****         
1178:Generated_Source\PSoC4/USBFS_std.c ****         /* Clear toggle bit for already armed packet */
1179:Generated_Source\PSoC4/USBFS_std.c ****         USBFS_SIE_EP_BASE.sieEp[ep].epCnt0 &= (uint32) ~(uint32)USBFS_EPX_CNT_DATA_TOGGLE;
 1162              		.loc 1 1179 0
 1163 0026 2148     		ldr	r0, .L88+8
 1164 0028 9C01     		lsls	r4, r3, #6
 1165 002a 2158     		ldr	r1, [r4, r0]
 1166 002c 8025     		movs	r5, #128
 1167 002e A943     		bics	r1, r5
 1168 0030 2150     		str	r1, [r4, r0]
1180:Generated_Source\PSoC4/USBFS_std.c ****         
1181:Generated_Source\PSoC4/USBFS_std.c ****         /* Return API State as it was defined before */
1182:Generated_Source\PSoC4/USBFS_std.c ****         USBFS_EP[ep].apiEpState &= (uint8) ~USBFS_NO_EVENT_ALLOWED;
 1169              		.loc 1 1182 0
 1170 0032 5178     		ldrb	r1, [r2, #1]
 1171 0034 0220     		movs	r0, #2
 1172 0036 8143     		bics	r1, r0
ARM GAS  C:\Users\User\AppData\Local\Temp\ccieNkfn.s 			page 44


 1173 0038 5170     		strb	r1, [r2, #1]
1183:Generated_Source\PSoC4/USBFS_std.c **** 
1184:Generated_Source\PSoC4/USBFS_std.c ****         if ((USBFS_EP[ep].addr & USBFS_DIR_IN) != 0u)
 1174              		.loc 1 1184 0
 1175 003a 1279     		ldrb	r2, [r2, #4]
 1176 003c 52B2     		sxtb	r2, r2
 1177 003e 002A     		cmp	r2, #0
 1178 0040 15DA     		bge	.L83
1185:Generated_Source\PSoC4/USBFS_std.c ****         {
1186:Generated_Source\PSoC4/USBFS_std.c ****             /* IN Endpoint */
1187:Generated_Source\PSoC4/USBFS_std.c ****             if(USBFS_EP[ep].apiEpState == USBFS_IN_BUFFER_EMPTY)
 1179              		.loc 1 1187 0
 1180 0042 5900     		lsls	r1, r3, #1
 1181 0044 C918     		adds	r1, r1, r3
 1182 0046 8A00     		lsls	r2, r1, #2
 1183 0048 1749     		ldr	r1, .L88+4
 1184 004a 8A18     		adds	r2, r1, r2
 1185 004c 5278     		ldrb	r2, [r2, #1]
 1186 004e 012A     		cmp	r2, #1
 1187 0050 06D1     		bne	.L84
1188:Generated_Source\PSoC4/USBFS_std.c ****             {       
1189:Generated_Source\PSoC4/USBFS_std.c ****                 /* Wait for next packet from application */
1190:Generated_Source\PSoC4/USBFS_std.c ****                 USBFS_SIE_EP_BASE.sieEp[ep].epCr0 = USBFS_MODE_NAK_IN;
 1188              		.loc 1 1190 0
 1189 0052 2300     		movs	r3, r4
 1190              	.LVL100:
 1191 0054 154A     		ldr	r2, .L88+8
 1192 0056 9446     		mov	ip, r2
 1193 0058 6344     		add	r3, r3, ip
 1194 005a 0C22     		movs	r2, #12
 1195 005c 9A60     		str	r2, [r3, #8]
 1196 005e 1BE0     		b	.L85
 1197              	.LVL101:
 1198              	.L84:
1191:Generated_Source\PSoC4/USBFS_std.c ****             }
1192:Generated_Source\PSoC4/USBFS_std.c ****             else    /* Continue armed transfer */
1193:Generated_Source\PSoC4/USBFS_std.c ****             {
1194:Generated_Source\PSoC4/USBFS_std.c ****                 USBFS_SIE_EP_BASE.sieEp[ep].epCr0 = USBFS_MODE_ACK_IN;
 1199              		.loc 1 1194 0
 1200 0060 9B01     		lsls	r3, r3, #6
 1201              	.LVL102:
 1202 0062 124A     		ldr	r2, .L88+8
 1203 0064 9446     		mov	ip, r2
 1204 0066 6344     		add	r3, r3, ip
 1205 0068 0D22     		movs	r2, #13
 1206 006a 9A60     		str	r2, [r3, #8]
 1207 006c 14E0     		b	.L85
 1208              	.LVL103:
 1209              	.L83:
1195:Generated_Source\PSoC4/USBFS_std.c ****             }
1196:Generated_Source\PSoC4/USBFS_std.c ****         }
1197:Generated_Source\PSoC4/USBFS_std.c ****         else
1198:Generated_Source\PSoC4/USBFS_std.c ****         {
1199:Generated_Source\PSoC4/USBFS_std.c ****             /* OUT Endpoint */
1200:Generated_Source\PSoC4/USBFS_std.c ****             if (USBFS_EP[ep].apiEpState == USBFS_OUT_BUFFER_FULL)
 1210              		.loc 1 1200 0
 1211 006e 5900     		lsls	r1, r3, #1
ARM GAS  C:\Users\User\AppData\Local\Temp\ccieNkfn.s 			page 45


 1212 0070 C918     		adds	r1, r1, r3
 1213 0072 8A00     		lsls	r2, r1, #2
 1214 0074 0C49     		ldr	r1, .L88+4
 1215 0076 8A18     		adds	r2, r1, r2
 1216 0078 5278     		ldrb	r2, [r2, #1]
 1217 007a 012A     		cmp	r2, #1
 1218 007c 06D1     		bne	.L86
1201:Generated_Source\PSoC4/USBFS_std.c ****             {       
1202:Generated_Source\PSoC4/USBFS_std.c ****                 /* Allow application to read full buffer */
1203:Generated_Source\PSoC4/USBFS_std.c ****                 USBFS_SIE_EP_BASE.sieEp[ep].epCr0 = USBFS_MODE_NAK_OUT;
 1219              		.loc 1 1203 0
 1220 007e 9B01     		lsls	r3, r3, #6
 1221              	.LVL104:
 1222 0080 0A4A     		ldr	r2, .L88+8
 1223 0082 9446     		mov	ip, r2
 1224 0084 6344     		add	r3, r3, ip
 1225 0086 0822     		movs	r2, #8
 1226 0088 9A60     		str	r2, [r3, #8]
 1227 008a 05E0     		b	.L85
 1228              	.LVL105:
 1229              	.L86:
1204:Generated_Source\PSoC4/USBFS_std.c ****             }
1205:Generated_Source\PSoC4/USBFS_std.c ****             else    /* Mark endpoint as empty, so it will be reloaded */
1206:Generated_Source\PSoC4/USBFS_std.c ****             {
1207:Generated_Source\PSoC4/USBFS_std.c ****                 USBFS_SIE_EP_BASE.sieEp[ep].epCr0 = USBFS_MODE_ACK_OUT;
 1230              		.loc 1 1207 0
 1231 008c 9B01     		lsls	r3, r3, #6
 1232              	.LVL106:
 1233 008e 074A     		ldr	r2, .L88+8
 1234 0090 9446     		mov	ip, r2
 1235 0092 6344     		add	r3, r3, ip
 1236 0094 0922     		movs	r2, #9
 1237 0096 9A60     		str	r2, [r3, #8]
 1238              	.L85:
1208:Generated_Source\PSoC4/USBFS_std.c ****             }
1209:Generated_Source\PSoC4/USBFS_std.c ****         }
1210:Generated_Source\PSoC4/USBFS_std.c ****         
1211:Generated_Source\PSoC4/USBFS_std.c ****         requestHandled = USBFS_InitNoDataControlTransfer();
 1239              		.loc 1 1211 0
 1240 0098 FFF7FEFF 		bl	USBFS_InitNoDataControlTransfer
 1241              	.LVL107:
 1242 009c 00E0     		b	.L82
 1243              	.LVL108:
 1244              	.L87:
1164:Generated_Source\PSoC4/USBFS_std.c ****     uint32 ep;
 1245              		.loc 1 1164 0
 1246 009e 0020     		movs	r0, #0
 1247              	.LVL109:
 1248              	.L82:
1212:Generated_Source\PSoC4/USBFS_std.c ****     }
1213:Generated_Source\PSoC4/USBFS_std.c **** 
1214:Generated_Source\PSoC4/USBFS_std.c ****     return(requestHandled);
1215:Generated_Source\PSoC4/USBFS_std.c **** }
 1249              		.loc 1 1215 0
 1250              		@ sp needed
 1251 00a0 70BD     		pop	{r4, r5, r6, pc}
 1252              	.L89:
ARM GAS  C:\Users\User\AppData\Local\Temp\ccieNkfn.s 			page 46


 1253 00a2 C046     		.align	2
 1254              	.L88:
 1255 00a4 00002C40 		.word	1076625408
 1256 00a8 00000000 		.word	USBFS_EP
 1257 00ac F0FF2B40 		.word	1076625392
 1258              		.cfi_endproc
 1259              	.LFE11:
 1260              		.size	USBFS_ClearEndpointHalt, .-USBFS_ClearEndpointHalt
 1261              		.section	.text.USBFS_ValidateAlternateSetting,"ax",%progbits
 1262              		.align	2
 1263              		.global	USBFS_ValidateAlternateSetting
 1264              		.code	16
 1265              		.thumb_func
 1266              		.type	USBFS_ValidateAlternateSetting, %function
 1267              	USBFS_ValidateAlternateSetting:
 1268              	.LFB12:
1216:Generated_Source\PSoC4/USBFS_std.c **** 
1217:Generated_Source\PSoC4/USBFS_std.c **** 
1218:Generated_Source\PSoC4/USBFS_std.c **** /*******************************************************************************
1219:Generated_Source\PSoC4/USBFS_std.c **** * Function Name: USBFS_ValidateAlternateSetting
1220:Generated_Source\PSoC4/USBFS_std.c **** ****************************************************************************//**
1221:Generated_Source\PSoC4/USBFS_std.c **** *
1222:Generated_Source\PSoC4/USBFS_std.c **** *  Validates (and records) a SET INTERFACE request.
1223:Generated_Source\PSoC4/USBFS_std.c **** *
1224:Generated_Source\PSoC4/USBFS_std.c **** * \return
1225:Generated_Source\PSoC4/USBFS_std.c **** *  requestHandled.
1226:Generated_Source\PSoC4/USBFS_std.c **** *
1227:Generated_Source\PSoC4/USBFS_std.c **** * \reentrant
1228:Generated_Source\PSoC4/USBFS_std.c **** *  No.
1229:Generated_Source\PSoC4/USBFS_std.c **** *
1230:Generated_Source\PSoC4/USBFS_std.c **** *******************************************************************************/
1231:Generated_Source\PSoC4/USBFS_std.c **** uint8 USBFS_ValidateAlternateSetting(void) 
1232:Generated_Source\PSoC4/USBFS_std.c **** {
 1269              		.loc 1 1232 0
 1270              		.cfi_startproc
 1271              		@ args = 0, pretend = 0, frame = 0
 1272              		@ frame_needed = 0, uses_anonymous_args = 0
 1273 0000 70B5     		push	{r4, r5, r6, lr}
 1274              		.cfi_def_cfa_offset 16
 1275              		.cfi_offset 4, -16
 1276              		.cfi_offset 5, -12
 1277              		.cfi_offset 6, -8
 1278              		.cfi_offset 14, -4
 1279              	.LVL110:
1233:Generated_Source\PSoC4/USBFS_std.c ****     uint8 requestHandled = USBFS_FALSE;
1234:Generated_Source\PSoC4/USBFS_std.c ****     
1235:Generated_Source\PSoC4/USBFS_std.c ****     uint8 interfaceNum;
1236:Generated_Source\PSoC4/USBFS_std.c ****     uint8 curInterfacesNum;
1237:Generated_Source\PSoC4/USBFS_std.c ****     const T_USBFS_LUT CYCODE *pTmp;
1238:Generated_Source\PSoC4/USBFS_std.c ****     
1239:Generated_Source\PSoC4/USBFS_std.c ****     /* Get interface number from the request. */
1240:Generated_Source\PSoC4/USBFS_std.c ****     interfaceNum = (uint8) USBFS_wIndexLoReg;
 1280              		.loc 1 1240 0
 1281 0002 0F4B     		ldr	r3, .L94
 1282 0004 1C69     		ldr	r4, [r3, #16]
 1283 0006 E5B2     		uxtb	r5, r4
 1284              	.LVL111:
ARM GAS  C:\Users\User\AppData\Local\Temp\ccieNkfn.s 			page 47


1241:Generated_Source\PSoC4/USBFS_std.c ****     
1242:Generated_Source\PSoC4/USBFS_std.c ****     /* Get number of interfaces for current configuration. */
1243:Generated_Source\PSoC4/USBFS_std.c ****     pTmp = USBFS_GetConfigTablePtr(USBFS_configuration - 1u);
 1285              		.loc 1 1243 0
 1286 0008 0E4B     		ldr	r3, .L94+4
 1287 000a 1878     		ldrb	r0, [r3]
 1288 000c 0138     		subs	r0, r0, #1
 1289 000e C0B2     		uxtb	r0, r0
 1290 0010 FFF7FEFF 		bl	USBFS_GetConfigTablePtr
 1291              	.LVL112:
1244:Generated_Source\PSoC4/USBFS_std.c ****     curInterfacesNum  = ((const uint8 *) pTmp->p_list)[USBFS_CONFIG_DESCR_NUM_INTERFACES];
 1292              		.loc 1 1244 0
 1293 0014 4368     		ldr	r3, [r0, #4]
 1294 0016 1B79     		ldrb	r3, [r3, #4]
 1295              	.LVL113:
1245:Generated_Source\PSoC4/USBFS_std.c **** 
1246:Generated_Source\PSoC4/USBFS_std.c ****     /* Validate that interface number is within range. */
1247:Generated_Source\PSoC4/USBFS_std.c ****     if ((interfaceNum <= curInterfacesNum) || (interfaceNum <= USBFS_MAX_INTERFACES_NUMBER))
 1296              		.loc 1 1247 0
 1297 0018 9D42     		cmp	r5, r3
 1298 001a 01D9     		bls	.L91
 1299              		.loc 1 1247 0 is_stmt 0 discriminator 1
 1300 001c 012D     		cmp	r5, #1
 1301 001e 0CD8     		bhi	.L93
 1302              	.L91:
1248:Generated_Source\PSoC4/USBFS_std.c ****     {
1249:Generated_Source\PSoC4/USBFS_std.c ****         /* Save current and new alternate settings (come with request) to make 
1250:Generated_Source\PSoC4/USBFS_std.c ****         * desicion about following endpoint re-configuration.
1251:Generated_Source\PSoC4/USBFS_std.c ****         */
1252:Generated_Source\PSoC4/USBFS_std.c ****         USBFS_interfaceSettingLast[interfaceNum] = USBFS_interfaceSetting[interfaceNum];
 1303              		.loc 1 1252 0 is_stmt 1
 1304 0020 FF23     		movs	r3, #255
 1305              	.LVL114:
 1306 0022 2340     		ands	r3, r4
 1307 0024 0849     		ldr	r1, .L94+8
 1308 0026 CA5C     		ldrb	r2, [r1, r3]
 1309 0028 D2B2     		uxtb	r2, r2
 1310 002a 0848     		ldr	r0, .L94+12
 1311              	.LVL115:
 1312 002c C254     		strb	r2, [r0, r3]
1253:Generated_Source\PSoC4/USBFS_std.c ****         USBFS_interfaceSetting[interfaceNum]     = (uint8) USBFS_wValueLoReg;
 1313              		.loc 1 1253 0
 1314 002e 044A     		ldr	r2, .L94
 1315 0030 9268     		ldr	r2, [r2, #8]
 1316 0032 D2B2     		uxtb	r2, r2
 1317 0034 CA54     		strb	r2, [r1, r3]
 1318              	.LVL116:
1254:Generated_Source\PSoC4/USBFS_std.c ****         
1255:Generated_Source\PSoC4/USBFS_std.c ****         requestHandled = USBFS_TRUE;
 1319              		.loc 1 1255 0
 1320 0036 0120     		movs	r0, #1
 1321 0038 00E0     		b	.L92
 1322              	.LVL117:
 1323              	.L93:
1233:Generated_Source\PSoC4/USBFS_std.c ****     
 1324              		.loc 1 1233 0
 1325 003a 0020     		movs	r0, #0
ARM GAS  C:\Users\User\AppData\Local\Temp\ccieNkfn.s 			page 48


 1326              	.LVL118:
 1327              	.L92:
1256:Generated_Source\PSoC4/USBFS_std.c ****     }
1257:Generated_Source\PSoC4/USBFS_std.c **** 
1258:Generated_Source\PSoC4/USBFS_std.c ****     return (requestHandled);
1259:Generated_Source\PSoC4/USBFS_std.c **** }
 1328              		.loc 1 1259 0
 1329              		@ sp needed
 1330              	.LVL119:
 1331 003c 70BD     		pop	{r4, r5, r6, pc}
 1332              	.L95:
 1333 003e C046     		.align	2
 1334              	.L94:
 1335 0040 00002C40 		.word	1076625408
 1336 0044 00000000 		.word	USBFS_configuration
 1337 0048 00000000 		.word	USBFS_interfaceSetting
 1338 004c 00000000 		.word	USBFS_interfaceSettingLast
 1339              		.cfi_endproc
 1340              	.LFE12:
 1341              		.size	USBFS_ValidateAlternateSetting, .-USBFS_ValidateAlternateSetting
 1342              		.section	.text.USBFS_HandleStandardRqst,"ax",%progbits
 1343              		.align	2
 1344              		.global	USBFS_HandleStandardRqst
 1345              		.code	16
 1346              		.thumb_func
 1347              		.type	USBFS_HandleStandardRqst, %function
 1348              	USBFS_HandleStandardRqst:
 1349              	.LFB1:
  85:Generated_Source\PSoC4/USBFS_std.c ****     uint8 requestHandled = USBFS_FALSE;
 1350              		.loc 1 85 0
 1351              		.cfi_startproc
 1352              		@ args = 0, pretend = 0, frame = 0
 1353              		@ frame_needed = 0, uses_anonymous_args = 0
 1354 0000 10B5     		push	{r4, lr}
 1355              		.cfi_def_cfa_offset 8
 1356              		.cfi_offset 4, -8
 1357              		.cfi_offset 14, -4
 1358              	.LVL120:
  89:Generated_Source\PSoC4/USBFS_std.c **** 
 1359              		.loc 1 89 0
 1360 0002 AA4B     		ldr	r3, .L149
 1361 0004 1B68     		ldr	r3, [r3]
 1362              	.LVL121:
 102:Generated_Source\PSoC4/USBFS_std.c **** 
 1363              		.loc 1 102 0
 1364 0006 0021     		movs	r1, #0
 1365 0008 A94A     		ldr	r2, .L149+4
 1366 000a 1180     		strh	r1, [r2]
 104:Generated_Source\PSoC4/USBFS_std.c ****     {
 1367              		.loc 1 104 0
 1368 000c 1A06     		lsls	r2, r3, #24
 1369 000e 00D4     		bmi	.LCB1394
 1370 0010 90E0     		b	.L97	@long jump
 1371              	.LCB1394:
 107:Generated_Source\PSoC4/USBFS_std.c ****         {
 1372              		.loc 1 107 0
 1373 0012 A64A     		ldr	r2, .L149
ARM GAS  C:\Users\User\AppData\Local\Temp\ccieNkfn.s 			page 49


 1374 0014 5268     		ldr	r2, [r2, #4]
 1375 0016 062A     		cmp	r2, #6
 1376 0018 08D0     		beq	.L99
 1377 001a 02D8     		bhi	.L100
 1378 001c 002A     		cmp	r2, #0
 1379 001e 4DD0     		beq	.L101
 1380 0020 26E1     		b	.L129
 1381              	.L100:
 1382 0022 082A     		cmp	r2, #8
 1383 0024 73D0     		beq	.L102
 1384 0026 0A2A     		cmp	r2, #10
 1385 0028 79D0     		beq	.L103
 1386 002a 21E1     		b	.L129
 1387              	.L99:
 110:Generated_Source\PSoC4/USBFS_std.c ****                 {
 1388              		.loc 1 110 0
 1389 002c 9F4B     		ldr	r3, .L149
 1390              	.LVL122:
 1391 002e DB68     		ldr	r3, [r3, #12]
 1392 0030 012B     		cmp	r3, #1
 1393 0032 09D1     		bne	.L104
 112:Generated_Source\PSoC4/USBFS_std.c ****                     USBFS_currentTD.pData = (volatile uint8 *)pTmp->p_list;
 1394              		.loc 1 112 0
 1395 0034 FFF7FEFF 		bl	USBFS_GetDeviceTablePtr
 1396              	.LVL123:
 113:Generated_Source\PSoC4/USBFS_std.c ****                     USBFS_currentTD.count = USBFS_DEVICE_DESCR_LENGTH;
 1397              		.loc 1 113 0
 1398 0038 4268     		ldr	r2, [r0, #4]
 1399 003a 9D4B     		ldr	r3, .L149+4
 1400 003c 5A60     		str	r2, [r3, #4]
 114:Generated_Source\PSoC4/USBFS_std.c ****                     
 1401              		.loc 1 114 0
 1402 003e 1222     		movs	r2, #18
 1403 0040 1A80     		strh	r2, [r3]
 116:Generated_Source\PSoC4/USBFS_std.c ****                 }
 1404              		.loc 1 116 0
 1405 0042 FFF7FEFF 		bl	USBFS_InitControlRead
 1406              	.LVL124:
 1407 0046 30E1     		b	.L98
 1408              	.LVL125:
 1409              	.L104:
 118:Generated_Source\PSoC4/USBFS_std.c ****                 {
 1410              		.loc 1 118 0
 1411 0048 984B     		ldr	r3, .L149
 1412 004a DB68     		ldr	r3, [r3, #12]
 1413 004c 022B     		cmp	r3, #2
 1414 004e 14D1     		bne	.L105
 120:Generated_Source\PSoC4/USBFS_std.c ****                     
 1415              		.loc 1 120 0
 1416 0050 964B     		ldr	r3, .L149
 1417 0052 9868     		ldr	r0, [r3, #8]
 1418 0054 C0B2     		uxtb	r0, r0
 1419 0056 FFF7FEFF 		bl	USBFS_GetConfigTablePtr
 1420              	.LVL126:
 123:Generated_Source\PSoC4/USBFS_std.c ****                     {
 1421              		.loc 1 123 0
 1422 005a 0028     		cmp	r0, #0
ARM GAS  C:\Users\User\AppData\Local\Temp\ccieNkfn.s 			page 50


 1423 005c 00D1     		bne	.LCB1449
 1424 005e 09E1     		b	.L130	@long jump
 1425              	.LCB1449:
 125:Generated_Source\PSoC4/USBFS_std.c ****                         USBFS_currentTD.count = (uint16)((uint16)(USBFS_currentTD.pData)[USBFS_CONF
 1426              		.loc 1 125 0
 1427 0060 4368     		ldr	r3, [r0, #4]
 1428 0062 934A     		ldr	r2, .L149+4
 1429 0064 5360     		str	r3, [r2, #4]
 126:Generated_Source\PSoC4/USBFS_std.c ****                                                                             (USBFS_currentTD.pData)
 1430              		.loc 1 126 0
 1431 0066 5368     		ldr	r3, [r2, #4]
 1432 0068 DB78     		ldrb	r3, [r3, #3]
 1433 006a 1B02     		lsls	r3, r3, #8
 127:Generated_Source\PSoC4/USBFS_std.c ****                         requestHandled  = USBFS_InitControlRead();
 1434              		.loc 1 127 0
 1435 006c 5168     		ldr	r1, [r2, #4]
 1436 006e 8978     		ldrb	r1, [r1, #2]
 126:Generated_Source\PSoC4/USBFS_std.c ****                                                                             (USBFS_currentTD.pData)
 1437              		.loc 1 126 0
 1438 0070 0B43     		orrs	r3, r1
 1439 0072 1380     		strh	r3, [r2]
 128:Generated_Source\PSoC4/USBFS_std.c ****                     }
 1440              		.loc 1 128 0
 1441 0074 FFF7FEFF 		bl	USBFS_InitControlRead
 1442              	.LVL127:
 1443 0078 17E1     		b	.L98
 1444              	.LVL128:
 1445              	.L105:
 149:Generated_Source\PSoC4/USBFS_std.c ****                 {
 1446              		.loc 1 149 0
 1447 007a 8C4B     		ldr	r3, .L149
 1448 007c DB68     		ldr	r3, [r3, #12]
 1449 007e 032B     		cmp	r3, #3
 1450 0080 05D0     		beq	.L131
 1451 0082 18E0     		b	.L145
 1452              	.LVL129:
 1453              	.L109:
 159:Generated_Source\PSoC4/USBFS_std.c ****                         /* Move to next string descriptor */
 1454              		.loc 1 159 0
 1455 0084 1178     		ldrb	r1, [r2]
 1456              	.LVL130:
 161:Generated_Source\PSoC4/USBFS_std.c ****                         nStr++;
 1457              		.loc 1 161 0
 1458 0086 5218     		adds	r2, r2, r1
 1459              	.LVL131:
 162:Generated_Source\PSoC4/USBFS_std.c ****                     }
 1460              		.loc 1 162 0
 1461 0088 0133     		adds	r3, r3, #1
 1462              	.LVL132:
 1463 008a DBB2     		uxtb	r3, r3
 1464              	.LVL133:
 1465 008c 01E0     		b	.L106
 1466              	.LVL134:
 1467              	.L131:
 1468 008e 0023     		movs	r3, #0
 1469 0090 884A     		ldr	r2, .L149+8
 1470              	.LVL135:
ARM GAS  C:\Users\User\AppData\Local\Temp\ccieNkfn.s 			page 51


 1471              	.L106:
 156:Generated_Source\PSoC4/USBFS_std.c ****                     {
 1472              		.loc 1 156 0
 1473 0092 8649     		ldr	r1, .L149
 1474 0094 8968     		ldr	r1, [r1, #8]
 1475 0096 9942     		cmp	r1, r3
 1476 0098 02D9     		bls	.L108
 156:Generated_Source\PSoC4/USBFS_std.c ****                     {
 1477              		.loc 1 156 0 is_stmt 0 discriminator 1
 1478 009a 1178     		ldrb	r1, [r2]
 1479 009c 0029     		cmp	r1, #0
 1480 009e F1D1     		bne	.L109
 1481              	.L108:
 199:Generated_Source\PSoC4/USBFS_std.c ****                     {
 1482              		.loc 1 199 0 is_stmt 1
 1483 00a0 1378     		ldrb	r3, [r2]
 1484              	.LVL136:
 1485 00a2 002B     		cmp	r3, #0
 1486 00a4 00D1     		bne	.LCB1521
 1487 00a6 E7E0     		b	.L132	@long jump
 1488              	.LCB1521:
 201:Generated_Source\PSoC4/USBFS_std.c ****                         USBFS_currentTD.pData = pStr;
 1489              		.loc 1 201 0
 1490 00a8 1378     		ldrb	r3, [r2]
 1491 00aa 8149     		ldr	r1, .L149+4
 1492 00ac 0B80     		strh	r3, [r1]
 202:Generated_Source\PSoC4/USBFS_std.c ****                         requestHandled  = USBFS_InitControlRead();
 1493              		.loc 1 202 0
 1494 00ae 4A60     		str	r2, [r1, #4]
 203:Generated_Source\PSoC4/USBFS_std.c ****                     }
 1495              		.loc 1 203 0
 1496 00b0 FFF7FEFF 		bl	USBFS_InitControlRead
 1497              	.LVL137:
 1498 00b4 F9E0     		b	.L98
 1499              	.LVL138:
 1500              	.L145:
 209:Generated_Source\PSoC4/USBFS_std.c ****                 }
 1501              		.loc 1 209 0
 1502 00b6 FFF7FEFF 		bl	USBFS_DispatchClassRqst
 1503              	.LVL139:
 1504 00ba F6E0     		b	.L98
 1505              	.LVL140:
 1506              	.L101:
 214:Generated_Source\PSoC4/USBFS_std.c ****                 {
 1507              		.loc 1 214 0
 1508 00bc 0322     		movs	r2, #3
 1509 00be 1340     		ands	r3, r2
 1510              	.LVL141:
 1511 00c0 17D0     		beq	.L110
 1512 00c2 022B     		cmp	r3, #2
 1513 00c4 00D0     		beq	.LCB1553
 1514 00c6 D9E0     		b	.L146	@long jump
 1515              	.LCB1553:
 217:Generated_Source\PSoC4/USBFS_std.c ****                         USBFS_tBuffer[0u]     = USBFS_EP[USBFS_wIndexLoReg & USBFS_DIR_UNUSED].hwEp
 1516              		.loc 1 217 0
 1517 00c8 7949     		ldr	r1, .L149+4
 1518 00ca 0B80     		strh	r3, [r1]
ARM GAS  C:\Users\User\AppData\Local\Temp\ccieNkfn.s 			page 52


 218:Generated_Source\PSoC4/USBFS_std.c ****                         USBFS_tBuffer[1u]     = 0u;
 1519              		.loc 1 218 0
 1520 00cc 774B     		ldr	r3, .L149
 1521 00ce 1B69     		ldr	r3, [r3, #16]
 1522 00d0 7C32     		adds	r2, r2, #124
 1523 00d2 1340     		ands	r3, r2
 1524 00d4 5A00     		lsls	r2, r3, #1
 1525 00d6 D318     		adds	r3, r2, r3
 1526 00d8 9A00     		lsls	r2, r3, #2
 1527 00da 774B     		ldr	r3, .L149+12
 1528 00dc 9A18     		adds	r2, r3, r2
 1529 00de 9278     		ldrb	r2, [r2, #2]
 1530 00e0 D2B2     		uxtb	r2, r2
 1531 00e2 764B     		ldr	r3, .L149+16
 1532 00e4 1A70     		strb	r2, [r3]
 219:Generated_Source\PSoC4/USBFS_std.c ****                         USBFS_currentTD.pData = &USBFS_tBuffer[0u];
 1533              		.loc 1 219 0
 1534 00e6 0022     		movs	r2, #0
 1535 00e8 5A70     		strb	r2, [r3, #1]
 220:Generated_Source\PSoC4/USBFS_std.c ****                         
 1536              		.loc 1 220 0
 1537 00ea 4B60     		str	r3, [r1, #4]
 222:Generated_Source\PSoC4/USBFS_std.c ****                         break;
 1538              		.loc 1 222 0
 1539 00ec FFF7FEFF 		bl	USBFS_InitControlRead
 1540              	.LVL142:
 223:Generated_Source\PSoC4/USBFS_std.c ****                     case USBFS_RQST_RCPT_DEV:
 1541              		.loc 1 223 0
 1542 00f0 DBE0     		b	.L98
 1543              	.LVL143:
 1544              	.L110:
 225:Generated_Source\PSoC4/USBFS_std.c ****                         USBFS_tBuffer[0u]     = USBFS_deviceStatus;
 1545              		.loc 1 225 0
 1546 00f2 6F49     		ldr	r1, .L149+4
 1547 00f4 0223     		movs	r3, #2
 1548 00f6 0B80     		strh	r3, [r1]
 226:Generated_Source\PSoC4/USBFS_std.c ****                         USBFS_tBuffer[1u]     = 0u;
 1549              		.loc 1 226 0
 1550 00f8 714B     		ldr	r3, .L149+20
 1551 00fa 1A78     		ldrb	r2, [r3]
 1552 00fc D2B2     		uxtb	r2, r2
 1553 00fe 6F4B     		ldr	r3, .L149+16
 1554 0100 1A70     		strb	r2, [r3]
 227:Generated_Source\PSoC4/USBFS_std.c ****                         USBFS_currentTD.pData = &USBFS_tBuffer[0u];
 1555              		.loc 1 227 0
 1556 0102 0022     		movs	r2, #0
 1557 0104 5A70     		strb	r2, [r3, #1]
 228:Generated_Source\PSoC4/USBFS_std.c ****                         
 1558              		.loc 1 228 0
 1559 0106 4B60     		str	r3, [r1, #4]
 230:Generated_Source\PSoC4/USBFS_std.c ****                         break;
 1560              		.loc 1 230 0
 1561 0108 FFF7FEFF 		bl	USBFS_InitControlRead
 1562              	.LVL144:
 231:Generated_Source\PSoC4/USBFS_std.c ****                     default:    /* requestHandled is initialized as FALSE by default */
 1563              		.loc 1 231 0
 1564 010c CDE0     		b	.L98
ARM GAS  C:\Users\User\AppData\Local\Temp\ccieNkfn.s 			page 53


 1565              	.LVL145:
 1566              	.L102:
 238:Generated_Source\PSoC4/USBFS_std.c ****                 USBFS_currentTD.pData = (volatile uint8 *) &USBFS_configuration;
 1567              		.loc 1 238 0
 1568 010e 684B     		ldr	r3, .L149+4
 1569              	.LVL146:
 1570 0110 0122     		movs	r2, #1
 1571 0112 1A80     		strh	r2, [r3]
 239:Generated_Source\PSoC4/USBFS_std.c ****                 requestHandled  = USBFS_InitControlRead();
 1572              		.loc 1 239 0
 1573 0114 6B4A     		ldr	r2, .L149+24
 1574 0116 5A60     		str	r2, [r3, #4]
 240:Generated_Source\PSoC4/USBFS_std.c ****                 break;
 1575              		.loc 1 240 0
 1576 0118 FFF7FEFF 		bl	USBFS_InitControlRead
 1577              	.LVL147:
 241:Generated_Source\PSoC4/USBFS_std.c ****                 
 1578              		.loc 1 241 0
 1579 011c C5E0     		b	.L98
 1580              	.LVL148:
 1581              	.L103:
 244:Generated_Source\PSoC4/USBFS_std.c ****                 USBFS_currentTD.pData = (volatile uint8 *) &USBFS_interfaceSetting[USBFS_wIndexLoRe
 1582              		.loc 1 244 0
 1583 011e 644A     		ldr	r2, .L149+4
 1584 0120 0123     		movs	r3, #1
 1585              	.LVL149:
 1586 0122 1380     		strh	r3, [r2]
 245:Generated_Source\PSoC4/USBFS_std.c ****                 requestHandled  = USBFS_InitControlRead();
 1587              		.loc 1 245 0
 1588 0124 614B     		ldr	r3, .L149
 1589 0126 1969     		ldr	r1, [r3, #16]
 1590 0128 674B     		ldr	r3, .L149+28
 1591 012a CB18     		adds	r3, r1, r3
 1592 012c 5360     		str	r3, [r2, #4]
 246:Generated_Source\PSoC4/USBFS_std.c ****                 break;
 1593              		.loc 1 246 0
 1594 012e FFF7FEFF 		bl	USBFS_InitControlRead
 1595              	.LVL150:
 247:Generated_Source\PSoC4/USBFS_std.c ****                 
 1596              		.loc 1 247 0
 1597 0132 BAE0     		b	.L98
 1598              	.LVL151:
 1599              	.L97:
 256:Generated_Source\PSoC4/USBFS_std.c ****         {
 1600              		.loc 1 256 0
 1601 0134 5D4A     		ldr	r2, .L149
 1602 0136 5268     		ldr	r2, [r2, #4]
 1603 0138 0B2A     		cmp	r2, #11
 1604 013a 00D9     		bls	.LCB1636
 1605 013c A0E0     		b	.L134	@long jump
 1606              	.LCB1636:
 1607 013e 9200     		lsls	r2, r2, #2
 1608 0140 6249     		ldr	r1, .L149+32
 1609 0142 8A58     		ldr	r2, [r1, r2]
 1610 0144 9746     		mov	pc, r2
 1611              		.section	.rodata
 1612              		.align	2
ARM GAS  C:\Users\User\AppData\Local\Temp\ccieNkfn.s 			page 54


 1613              	.L113:
 1614 0000 80020000 		.word	.L134
 1615 0004 CA010000 		.word	.L112
 1616 0008 80020000 		.word	.L134
 1617 000c 1C020000 		.word	.L114
 1618 0010 80020000 		.word	.L134
 1619 0014 46010000 		.word	.L115
 1620 0018 80020000 		.word	.L134
 1621 001c 80020000 		.word	.L134
 1622 0020 80020000 		.word	.L134
 1623 0024 56010000 		.word	.L116
 1624 0028 80020000 		.word	.L134
 1625 002c 96010000 		.word	.L117
 1626              		.section	.text.USBFS_HandleStandardRqst
 1627              	.L115:
 260:Generated_Source\PSoC4/USBFS_std.c ****                 requestHandled = USBFS_InitNoDataControlTransfer();
 1628              		.loc 1 260 0
 1629 0146 594B     		ldr	r3, .L149
 1630              	.LVL152:
 1631 0148 9B68     		ldr	r3, [r3, #8]
 1632 014a DBB2     		uxtb	r3, r3
 1633 014c 604A     		ldr	r2, .L149+36
 1634 014e 1370     		strb	r3, [r2]
 261:Generated_Source\PSoC4/USBFS_std.c ****                 break;
 1635              		.loc 1 261 0
 1636 0150 FFF7FEFF 		bl	USBFS_InitNoDataControlTransfer
 1637              	.LVL153:
 262:Generated_Source\PSoC4/USBFS_std.c ****                 
 1638              		.loc 1 262 0
 1639 0154 A9E0     		b	.L98
 1640              	.LVL154:
 1641              	.L116:
 265:Generated_Source\PSoC4/USBFS_std.c ****                 
 1642              		.loc 1 265 0
 1643 0156 554B     		ldr	r3, .L149
 1644              	.LVL155:
 1645 0158 9C68     		ldr	r4, [r3, #8]
 1646              	.LVL156:
 268:Generated_Source\PSoC4/USBFS_std.c ****                 {
 1647              		.loc 1 268 0
 1648 015a 002C     		cmp	r4, #0
 1649 015c 03D0     		beq	.L118
 270:Generated_Source\PSoC4/USBFS_std.c ****                 }
 1650              		.loc 1 270 0
 1651 015e 601E     		subs	r0, r4, #1
 1652 0160 C0B2     		uxtb	r0, r0
 1653 0162 FFF7FEFF 		bl	USBFS_GetConfigTablePtr
 1654              	.LVL157:
 1655              	.L118:
 274:Generated_Source\PSoC4/USBFS_std.c ****                 {
 1656              		.loc 1 274 0
 1657 0166 002C     		cmp	r4, #0
 1658 0168 01D0     		beq	.L119
 274:Generated_Source\PSoC4/USBFS_std.c ****                 {
 1659              		.loc 1 274 0 is_stmt 0 discriminator 1
 1660 016a 0028     		cmp	r0, #0
 1661 016c 02D1     		bne	.L120
ARM GAS  C:\Users\User\AppData\Local\Temp\ccieNkfn.s 			page 55


 1662              	.L119:
 274:Generated_Source\PSoC4/USBFS_std.c ****                 {
 1663              		.loc 1 274 0 discriminator 3
 1664 016e 002C     		cmp	r4, #0
 1665 0170 00D0     		beq	.LCB1684
 1666 0172 87E0     		b	.L135	@long jump
 1667              	.LCB1684:
 1668              	.L120:
 277:Generated_Source\PSoC4/USBFS_std.c ****                     {
 1669              		.loc 1 277 0 is_stmt 1
 1670 0174 534B     		ldr	r3, .L149+24
 1671 0176 1B78     		ldrb	r3, [r3]
 1672 0178 DBB2     		uxtb	r3, r3
 1673 017a 9C42     		cmp	r4, r3
 1674 017c 08D0     		beq	.L121
 279:Generated_Source\PSoC4/USBFS_std.c ****                         USBFS_configurationChanged = USBFS_TRUE;
 1675              		.loc 1 279 0
 1676 017e E4B2     		uxtb	r4, r4
 1677              	.LVL158:
 1678 0180 504B     		ldr	r3, .L149+24
 1679 0182 1C70     		strb	r4, [r3]
 280:Generated_Source\PSoC4/USBFS_std.c ****                         USBFS_Config(USBFS_TRUE);
 1680              		.loc 1 280 0
 1681 0184 0122     		movs	r2, #1
 1682 0186 534B     		ldr	r3, .L149+40
 1683 0188 1A70     		strb	r2, [r3]
 281:Generated_Source\PSoC4/USBFS_std.c ****                     }
 1684              		.loc 1 281 0
 1685 018a 0120     		movs	r0, #1
 1686              	.LVL159:
 1687 018c FFF7FEFF 		bl	USBFS_Config
 1688              	.LVL160:
 1689              	.L121:
 283:Generated_Source\PSoC4/USBFS_std.c ****                 }
 1690              		.loc 1 283 0
 1691 0190 FFF7FEFF 		bl	USBFS_InitNoDataControlTransfer
 1692              	.LVL161:
 1693 0194 89E0     		b	.L98
 1694              	.LVL162:
 1695              	.L117:
 288:Generated_Source\PSoC4/USBFS_std.c ****                 {
 1696              		.loc 1 288 0
 1697 0196 FFF7FEFF 		bl	USBFS_ValidateAlternateSetting
 1698              	.LVL163:
 1699 019a 0028     		cmp	r0, #0
 1700 019c 74D0     		beq	.L136
 291:Generated_Source\PSoC4/USBFS_std.c ****                     USBFS_interfaceNumber = (uint8) USBFS_wIndexLoReg;
 1701              		.loc 1 291 0
 1702 019e 434B     		ldr	r3, .L149
 1703 01a0 1969     		ldr	r1, [r3, #16]
 1704              	.LVL164:
 292:Generated_Source\PSoC4/USBFS_std.c ****                      
 1705              		.loc 1 292 0
 1706 01a2 1B69     		ldr	r3, [r3, #16]
 1707 01a4 DBB2     		uxtb	r3, r3
 1708 01a6 4C4A     		ldr	r2, .L149+44
 1709 01a8 1370     		strb	r3, [r2]
ARM GAS  C:\Users\User\AppData\Local\Temp\ccieNkfn.s 			page 56


 295:Generated_Source\PSoC4/USBFS_std.c ****                     {
 1710              		.loc 1 295 0
 1711 01aa 4C4B     		ldr	r3, .L149+48
 1712 01ac 5A5C     		ldrb	r2, [r3, r1]
 1713 01ae D2B2     		uxtb	r2, r2
 1714 01b0 454B     		ldr	r3, .L149+28
 1715 01b2 5B5C     		ldrb	r3, [r3, r1]
 1716 01b4 DBB2     		uxtb	r3, r3
 1717 01b6 9A42     		cmp	r2, r3
 1718 01b8 04D0     		beq	.L122
 297:Generated_Source\PSoC4/USBFS_std.c ****                     
 1719              		.loc 1 297 0
 1720 01ba 0122     		movs	r2, #1
 1721 01bc 454B     		ldr	r3, .L149+40
 1722 01be 1A70     		strb	r2, [r3]
 303:Generated_Source\PSoC4/USBFS_std.c ****                     #endif /* (USBFS_EP_MANAGEMENT_MANUAL && USBFS_EP_ALLOC_DYNAMIC) */
 1723              		.loc 1 303 0
 1724 01c0 FFF7FEFF 		bl	USBFS_ConfigAltChanged
 1725              	.LVL165:
 1726              	.L122:
 307:Generated_Source\PSoC4/USBFS_std.c ****                 }
 1727              		.loc 1 307 0
 1728 01c4 FFF7FEFF 		bl	USBFS_InitNoDataControlTransfer
 1729              	.LVL166:
 1730 01c8 6FE0     		b	.L98
 1731              	.LVL167:
 1732              	.L112:
 312:Generated_Source\PSoC4/USBFS_std.c ****                 {
 1733              		.loc 1 312 0
 1734 01ca 0322     		movs	r2, #3
 1735 01cc 1340     		ands	r3, r2
 1736              	.LVL168:
 1737 01ce 012B     		cmp	r3, #1
 1738 01d0 16D0     		beq	.L123
 1739 01d2 002B     		cmp	r3, #0
 1740 01d4 08D0     		beq	.L124
 1741 01d6 022B     		cmp	r3, #2
 1742 01d8 58D1     		bne	.L147
 315:Generated_Source\PSoC4/USBFS_std.c ****                         {
 1743              		.loc 1 315 0
 1744 01da 344B     		ldr	r3, .L149
 1745 01dc 9B68     		ldr	r3, [r3, #8]
 1746 01de 002B     		cmp	r3, #0
 1747 01e0 56D1     		bne	.L138
 317:Generated_Source\PSoC4/USBFS_std.c ****                         }
 1748              		.loc 1 317 0
 1749 01e2 FFF7FEFF 		bl	USBFS_ClearEndpointHalt
 1750              	.LVL169:
 1751 01e6 60E0     		b	.L98
 1752              	.LVL170:
 1753              	.L124:
 322:Generated_Source\PSoC4/USBFS_std.c ****                         {
 1754              		.loc 1 322 0
 1755 01e8 304B     		ldr	r3, .L149
 1756 01ea 9B68     		ldr	r3, [r3, #8]
 1757 01ec 012B     		cmp	r3, #1
 1758 01ee 51D1     		bne	.L139
ARM GAS  C:\Users\User\AppData\Local\Temp\ccieNkfn.s 			page 57


 324:Generated_Source\PSoC4/USBFS_std.c ****                             requestHandled = USBFS_InitNoDataControlTransfer();
 1759              		.loc 1 324 0
 1760 01f0 334A     		ldr	r2, .L149+20
 1761 01f2 1378     		ldrb	r3, [r2]
 1762 01f4 0221     		movs	r1, #2
 1763 01f6 8B43     		bics	r3, r1
 1764 01f8 1370     		strb	r3, [r2]
 325:Generated_Source\PSoC4/USBFS_std.c ****                         }
 1765              		.loc 1 325 0
 1766 01fa FFF7FEFF 		bl	USBFS_InitNoDataControlTransfer
 1767              	.LVL171:
 1768 01fe 54E0     		b	.L98
 1769              	.LVL172:
 1770              	.L123:
 330:Generated_Source\PSoC4/USBFS_std.c ****                         {
 1771              		.loc 1 330 0
 1772 0200 2A4B     		ldr	r3, .L149
 1773 0202 1B69     		ldr	r3, [r3, #16]
 1774 0204 002B     		cmp	r3, #0
 1775 0206 47D1     		bne	.L140
 332:Generated_Source\PSoC4/USBFS_std.c ****                             requestHandled = USBFS_InitNoDataControlTransfer();
 1776              		.loc 1 332 0
 1777 0208 284B     		ldr	r3, .L149
 1778 020a 9868     		ldr	r0, [r3, #8]
 1779 020c 1A69     		ldr	r2, [r3, #16]
 1780 020e 3449     		ldr	r1, .L149+52
 1781 0210 8B5C     		ldrb	r3, [r1, r2]
 1782 0212 8343     		bics	r3, r0
 1783 0214 8B54     		strb	r3, [r1, r2]
 333:Generated_Source\PSoC4/USBFS_std.c ****                         }
 1784              		.loc 1 333 0
 1785 0216 FFF7FEFF 		bl	USBFS_InitNoDataControlTransfer
 1786              	.LVL173:
 1787 021a 46E0     		b	.L98
 1788              	.LVL174:
 1789              	.L114:
 342:Generated_Source\PSoC4/USBFS_std.c ****                 {
 1790              		.loc 1 342 0
 1791 021c 0322     		movs	r2, #3
 1792 021e 1340     		ands	r3, r2
 1793              	.LVL175:
 1794 0220 012B     		cmp	r3, #1
 1795 0222 17D0     		beq	.L126
 1796 0224 002B     		cmp	r3, #0
 1797 0226 08D0     		beq	.L127
 1798 0228 022B     		cmp	r3, #2
 1799 022a 37D1     		bne	.L148
 345:Generated_Source\PSoC4/USBFS_std.c ****                         {
 1800              		.loc 1 345 0
 1801 022c 1F4B     		ldr	r3, .L149
 1802 022e 9B68     		ldr	r3, [r3, #8]
 1803 0230 002B     		cmp	r3, #0
 1804 0232 35D1     		bne	.L142
 347:Generated_Source\PSoC4/USBFS_std.c ****                         }
 1805              		.loc 1 347 0
 1806 0234 FFF7FEFF 		bl	USBFS_SetEndpointHalt
 1807              	.LVL176:
ARM GAS  C:\Users\User\AppData\Local\Temp\ccieNkfn.s 			page 58


 1808 0238 37E0     		b	.L98
 1809              	.LVL177:
 1810              	.L127:
 353:Generated_Source\PSoC4/USBFS_std.c ****                         {
 1811              		.loc 1 353 0
 1812 023a 1C4B     		ldr	r3, .L149
 1813 023c 9B68     		ldr	r3, [r3, #8]
 1814 023e 012B     		cmp	r3, #1
 1815 0240 30D1     		bne	.L143
 355:Generated_Source\PSoC4/USBFS_std.c ****                             requestHandled = USBFS_InitNoDataControlTransfer();
 1816              		.loc 1 355 0
 1817 0242 1F4A     		ldr	r2, .L149+20
 1818 0244 1178     		ldrb	r1, [r2]
 1819 0246 0223     		movs	r3, #2
 1820 0248 0B43     		orrs	r3, r1
 1821 024a DBB2     		uxtb	r3, r3
 1822 024c 1370     		strb	r3, [r2]
 356:Generated_Source\PSoC4/USBFS_std.c ****                         }
 1823              		.loc 1 356 0
 1824 024e FFF7FEFF 		bl	USBFS_InitNoDataControlTransfer
 1825              	.LVL178:
 1826 0252 2AE0     		b	.L98
 1827              	.LVL179:
 1828              	.L126:
 362:Generated_Source\PSoC4/USBFS_std.c ****                         {
 1829              		.loc 1 362 0
 1830 0254 154B     		ldr	r3, .L149
 1831 0256 1B69     		ldr	r3, [r3, #16]
 1832 0258 002B     		cmp	r3, #0
 1833 025a 25D1     		bne	.L144
 364:Generated_Source\PSoC4/USBFS_std.c ****                             requestHandled = USBFS_InitNoDataControlTransfer();
 1834              		.loc 1 364 0
 1835 025c 134B     		ldr	r3, .L149
 1836 025e 9868     		ldr	r0, [r3, #8]
 1837 0260 1A69     		ldr	r2, [r3, #16]
 1838 0262 1F49     		ldr	r1, .L149+52
 1839 0264 8B5C     		ldrb	r3, [r1, r2]
 1840 0266 8343     		bics	r3, r0
 1841 0268 8B54     		strb	r3, [r1, r2]
 365:Generated_Source\PSoC4/USBFS_std.c ****                         }
 1842              		.loc 1 365 0
 1843 026a FFF7FEFF 		bl	USBFS_InitNoDataControlTransfer
 1844              	.LVL180:
 1845 026e 1CE0     		b	.L98
 1846              	.LVL181:
 1847              	.L129:
  86:Generated_Source\PSoC4/USBFS_std.c ****     uint32 interfaceNumber;
 1848              		.loc 1 86 0
 1849 0270 0020     		movs	r0, #0
 1850 0272 1AE0     		b	.L98
 1851              	.LVL182:
 1852              	.L130:
 1853 0274 0020     		movs	r0, #0
 1854              	.LVL183:
 1855 0276 18E0     		b	.L98
 1856              	.LVL184:
 1857              	.L132:
ARM GAS  C:\Users\User\AppData\Local\Temp\ccieNkfn.s 			page 59


 1858 0278 0020     		movs	r0, #0
 1859 027a 16E0     		b	.L98
 1860              	.LVL185:
 1861              	.L146:
 1862 027c 0020     		movs	r0, #0
 1863 027e 14E0     		b	.L98
 1864              	.LVL186:
 1865              	.L134:
 1866 0280 0020     		movs	r0, #0
 1867 0282 12E0     		b	.L98
 1868              	.LVL187:
 1869              	.L135:
 1870 0284 0020     		movs	r0, #0
 1871              	.LVL188:
 1872 0286 10E0     		b	.L98
 1873              	.LVL189:
 1874              	.L136:
 1875 0288 0020     		movs	r0, #0
 1876 028a 0EE0     		b	.L98
 1877              	.L147:
 1878 028c 0020     		movs	r0, #0
 1879 028e 0CE0     		b	.L98
 1880              	.L138:
 1881 0290 0020     		movs	r0, #0
 1882 0292 0AE0     		b	.L98
 1883              	.L139:
 1884 0294 0020     		movs	r0, #0
 1885 0296 08E0     		b	.L98
 1886              	.L140:
 1887 0298 0020     		movs	r0, #0
 1888 029a 06E0     		b	.L98
 1889              	.L148:
 1890 029c 0020     		movs	r0, #0
 1891 029e 04E0     		b	.L98
 1892              	.L142:
 1893 02a0 0020     		movs	r0, #0
 1894 02a2 02E0     		b	.L98
 1895              	.L143:
 1896 02a4 0020     		movs	r0, #0
 1897 02a6 00E0     		b	.L98
 1898              	.L144:
 1899 02a8 0020     		movs	r0, #0
 1900              	.LVL190:
 1901              	.L98:
 380:Generated_Source\PSoC4/USBFS_std.c **** 
 1902              		.loc 1 380 0
 1903              		@ sp needed
 1904 02aa 10BD     		pop	{r4, pc}
 1905              	.L150:
 1906              		.align	2
 1907              	.L149:
 1908 02ac 00002C40 		.word	1076625408
 1909 02b0 00000000 		.word	USBFS_currentTD
 1910 02b4 00000000 		.word	USBFS_STRING_DESCRIPTORS
 1911 02b8 00000000 		.word	USBFS_EP
 1912 02bc 00000000 		.word	.LANCHOR0
 1913 02c0 00000000 		.word	USBFS_deviceStatus
ARM GAS  C:\Users\User\AppData\Local\Temp\ccieNkfn.s 			page 60


 1914 02c4 00000000 		.word	USBFS_configuration
 1915 02c8 00000000 		.word	USBFS_interfaceSetting
 1916 02cc 00000000 		.word	.L113
 1917 02d0 00000000 		.word	USBFS_deviceAddress
 1918 02d4 00000000 		.word	USBFS_configurationChanged
 1919 02d8 00000000 		.word	USBFS_interfaceNumber
 1920 02dc 00000000 		.word	USBFS_interfaceSettingLast
 1921 02e0 00000000 		.word	USBFS_interfaceStatus
 1922              		.cfi_endproc
 1923              	.LFE1:
 1924              		.size	USBFS_HandleStandardRqst, .-USBFS_HandleStandardRqst
 1925              		.bss
 1926              		.align	2
 1927              		.set	.LANCHOR0,. + 0
 1928              		.type	USBFS_tBuffer.5176, %object
 1929              		.size	USBFS_tBuffer.5176, 2
 1930              	USBFS_tBuffer.5176:
 1931 0000 0000     		.space	2
 1932              		.text
 1933              	.Letext0:
 1934              		.file 2 "Generated_Source\\PSoC4\\cytypes.h"
 1935              		.file 3 "Generated_Source\\PSoC4\\USBFS.h"
 1936              		.file 4 "Generated_Source\\PSoC4\\USBFS_pvt.h"
 1937              		.section	.debug_info,"",%progbits
 1938              	.Ldebug_info0:
 1939 0000 A40A0000 		.4byte	0xaa4
 1940 0004 0400     		.2byte	0x4
 1941 0006 00000000 		.4byte	.Ldebug_abbrev0
 1942 000a 04       		.byte	0x4
 1943 000b 01       		.uleb128 0x1
 1944 000c 92000000 		.4byte	.LASF116
 1945 0010 0C       		.byte	0xc
 1946 0011 7E010000 		.4byte	.LASF117
 1947 0015 51000000 		.4byte	.LASF118
 1948 0019 00000000 		.4byte	.Ldebug_ranges0+0
 1949 001d 00000000 		.4byte	0
 1950 0021 00000000 		.4byte	.Ldebug_line0
 1951 0025 02       		.uleb128 0x2
 1952 0026 01       		.byte	0x1
 1953 0027 06       		.byte	0x6
 1954 0028 BF010000 		.4byte	.LASF0
 1955 002c 02       		.uleb128 0x2
 1956 002d 01       		.byte	0x1
 1957 002e 08       		.byte	0x8
 1958 002f 13050000 		.4byte	.LASF1
 1959 0033 02       		.uleb128 0x2
 1960 0034 02       		.byte	0x2
 1961 0035 05       		.byte	0x5
 1962 0036 3A050000 		.4byte	.LASF2
 1963 003a 02       		.uleb128 0x2
 1964 003b 02       		.byte	0x2
 1965 003c 07       		.byte	0x7
 1966 003d 5A030000 		.4byte	.LASF3
 1967 0041 02       		.uleb128 0x2
 1968 0042 04       		.byte	0x4
 1969 0043 05       		.byte	0x5
 1970 0044 5C020000 		.4byte	.LASF4
ARM GAS  C:\Users\User\AppData\Local\Temp\ccieNkfn.s 			page 61


 1971 0048 02       		.uleb128 0x2
 1972 0049 04       		.byte	0x4
 1973 004a 07       		.byte	0x7
 1974 004b 14030000 		.4byte	.LASF5
 1975 004f 02       		.uleb128 0x2
 1976 0050 08       		.byte	0x8
 1977 0051 05       		.byte	0x5
 1978 0052 B1010000 		.4byte	.LASF6
 1979 0056 02       		.uleb128 0x2
 1980 0057 08       		.byte	0x8
 1981 0058 07       		.byte	0x7
 1982 0059 2A010000 		.4byte	.LASF7
 1983 005d 03       		.uleb128 0x3
 1984 005e 04       		.byte	0x4
 1985 005f 05       		.byte	0x5
 1986 0060 696E7400 		.ascii	"int\000"
 1987 0064 02       		.uleb128 0x2
 1988 0065 04       		.byte	0x4
 1989 0066 07       		.byte	0x7
 1990 0067 07030000 		.4byte	.LASF8
 1991 006b 04       		.uleb128 0x4
 1992 006c 65020000 		.4byte	.LASF9
 1993 0070 02       		.byte	0x2
 1994 0071 E401     		.2byte	0x1e4
 1995 0073 2C000000 		.4byte	0x2c
 1996 0077 04       		.uleb128 0x4
 1997 0078 13000000 		.4byte	.LASF10
 1998 007c 02       		.byte	0x2
 1999 007d E501     		.2byte	0x1e5
 2000 007f 3A000000 		.4byte	0x3a
 2001 0083 04       		.uleb128 0x4
 2002 0084 CF020000 		.4byte	.LASF11
 2003 0088 02       		.byte	0x2
 2004 0089 E601     		.2byte	0x1e6
 2005 008b 48000000 		.4byte	0x48
 2006 008f 02       		.uleb128 0x2
 2007 0090 04       		.byte	0x4
 2008 0091 04       		.byte	0x4
 2009 0092 CC040000 		.4byte	.LASF12
 2010 0096 02       		.uleb128 0x2
 2011 0097 08       		.byte	0x8
 2012 0098 04       		.byte	0x4
 2013 0099 93020000 		.4byte	.LASF13
 2014 009d 02       		.uleb128 0x2
 2015 009e 01       		.byte	0x1
 2016 009f 08       		.byte	0x8
 2017 00a0 DB050000 		.4byte	.LASF14
 2018 00a4 05       		.uleb128 0x5
 2019 00a5 6B000000 		.4byte	0x6b
 2020 00a9 04       		.uleb128 0x4
 2021 00aa E2030000 		.4byte	.LASF15
 2022 00ae 02       		.byte	0x2
 2023 00af 9002     		.2byte	0x290
 2024 00b1 B5000000 		.4byte	0xb5
 2025 00b5 05       		.uleb128 0x5
 2026 00b6 83000000 		.4byte	0x83
 2027 00ba 02       		.uleb128 0x2
ARM GAS  C:\Users\User\AppData\Local\Temp\ccieNkfn.s 			page 62


 2028 00bb 08       		.byte	0x8
 2029 00bc 04       		.byte	0x4
 2030 00bd 22040000 		.4byte	.LASF16
 2031 00c1 02       		.uleb128 0x2
 2032 00c2 04       		.byte	0x4
 2033 00c3 07       		.byte	0x7
 2034 00c4 19040000 		.4byte	.LASF17
 2035 00c8 06       		.uleb128 0x6
 2036 00c9 0C       		.byte	0xc
 2037 00ca 03       		.byte	0x3
 2038 00cb 93       		.byte	0x93
 2039 00cc 3D010000 		.4byte	0x13d
 2040 00d0 07       		.uleb128 0x7
 2041 00d1 44040000 		.4byte	.LASF18
 2042 00d5 03       		.byte	0x3
 2043 00d6 95       		.byte	0x95
 2044 00d7 6B000000 		.4byte	0x6b
 2045 00db 00       		.byte	0
 2046 00dc 07       		.uleb128 0x7
 2047 00dd EB040000 		.4byte	.LASF19
 2048 00e1 03       		.byte	0x3
 2049 00e2 96       		.byte	0x96
 2050 00e3 6B000000 		.4byte	0x6b
 2051 00e7 01       		.byte	0x1
 2052 00e8 07       		.uleb128 0x7
 2053 00e9 03040000 		.4byte	.LASF20
 2054 00ed 03       		.byte	0x3
 2055 00ee 97       		.byte	0x97
 2056 00ef 6B000000 		.4byte	0x6b
 2057 00f3 02       		.byte	0x2
 2058 00f4 07       		.uleb128 0x7
 2059 00f5 6B020000 		.4byte	.LASF21
 2060 00f9 03       		.byte	0x3
 2061 00fa 98       		.byte	0x98
 2062 00fb 6B000000 		.4byte	0x6b
 2063 00ff 03       		.byte	0x3
 2064 0100 07       		.uleb128 0x7
 2065 0101 41010000 		.4byte	.LASF22
 2066 0105 03       		.byte	0x3
 2067 0106 99       		.byte	0x99
 2068 0107 6B000000 		.4byte	0x6b
 2069 010b 04       		.byte	0x4
 2070 010c 07       		.uleb128 0x7
 2071 010d E2020000 		.4byte	.LASF23
 2072 0111 03       		.byte	0x3
 2073 0112 9A       		.byte	0x9a
 2074 0113 6B000000 		.4byte	0x6b
 2075 0117 05       		.byte	0x5
 2076 0118 07       		.uleb128 0x7
 2077 0119 0F060000 		.4byte	.LASF24
 2078 011d 03       		.byte	0x3
 2079 011e 9B       		.byte	0x9b
 2080 011f 77000000 		.4byte	0x77
 2081 0123 06       		.byte	0x6
 2082 0124 07       		.uleb128 0x7
 2083 0125 E0050000 		.4byte	.LASF25
 2084 0129 03       		.byte	0x3
ARM GAS  C:\Users\User\AppData\Local\Temp\ccieNkfn.s 			page 63


 2085 012a 9C       		.byte	0x9c
 2086 012b 77000000 		.4byte	0x77
 2087 012f 08       		.byte	0x8
 2088 0130 07       		.uleb128 0x7
 2089 0131 9E030000 		.4byte	.LASF26
 2090 0135 03       		.byte	0x3
 2091 0136 9D       		.byte	0x9d
 2092 0137 6B000000 		.4byte	0x6b
 2093 013b 0A       		.byte	0xa
 2094 013c 00       		.byte	0
 2095 013d 08       		.uleb128 0x8
 2096 013e 83050000 		.4byte	.LASF27
 2097 0142 03       		.byte	0x3
 2098 0143 9E       		.byte	0x9e
 2099 0144 C8000000 		.4byte	0xc8
 2100 0148 06       		.uleb128 0x6
 2101 0149 08       		.byte	0x8
 2102 014a 03       		.byte	0x3
 2103 014b A0       		.byte	0xa0
 2104 014c 99010000 		.4byte	0x199
 2105 0150 07       		.uleb128 0x7
 2106 0151 9E030000 		.4byte	.LASF26
 2107 0155 03       		.byte	0x3
 2108 0156 A2       		.byte	0xa2
 2109 0157 6B000000 		.4byte	0x6b
 2110 015b 00       		.byte	0
 2111 015c 07       		.uleb128 0x7
 2112 015d D0050000 		.4byte	.LASF28
 2113 0161 03       		.byte	0x3
 2114 0162 A3       		.byte	0xa3
 2115 0163 6B000000 		.4byte	0x6b
 2116 0167 01       		.byte	0x1
 2117 0168 07       		.uleb128 0x7
 2118 0169 41010000 		.4byte	.LASF22
 2119 016d 03       		.byte	0x3
 2120 016e A4       		.byte	0xa4
 2121 016f 6B000000 		.4byte	0x6b
 2122 0173 02       		.byte	0x2
 2123 0174 07       		.uleb128 0x7
 2124 0175 C5050000 		.4byte	.LASF29
 2125 0179 03       		.byte	0x3
 2126 017a A5       		.byte	0xa5
 2127 017b 6B000000 		.4byte	0x6b
 2128 017f 03       		.byte	0x3
 2129 0180 07       		.uleb128 0x7
 2130 0181 E0050000 		.4byte	.LASF25
 2131 0185 03       		.byte	0x3
 2132 0186 A6       		.byte	0xa6
 2133 0187 77000000 		.4byte	0x77
 2134 018b 04       		.byte	0x4
 2135 018c 07       		.uleb128 0x7
 2136 018d 9D060000 		.4byte	.LASF30
 2137 0191 03       		.byte	0x3
 2138 0192 A7       		.byte	0xa7
 2139 0193 6B000000 		.4byte	0x6b
 2140 0197 06       		.byte	0x6
 2141 0198 00       		.byte	0
ARM GAS  C:\Users\User\AppData\Local\Temp\ccieNkfn.s 			page 64


 2142 0199 08       		.uleb128 0x8
 2143 019a 9F020000 		.4byte	.LASF31
 2144 019e 03       		.byte	0x3
 2145 019f A8       		.byte	0xa8
 2146 01a0 48010000 		.4byte	0x148
 2147 01a4 06       		.uleb128 0x6
 2148 01a5 04       		.byte	0x4
 2149 01a6 03       		.byte	0x3
 2150 01a7 AA       		.byte	0xaa
 2151 01a8 C5010000 		.4byte	0x1c5
 2152 01ac 07       		.uleb128 0x7
 2153 01ad 61060000 		.4byte	.LASF32
 2154 01b1 03       		.byte	0x3
 2155 01b2 AC       		.byte	0xac
 2156 01b3 6B000000 		.4byte	0x6b
 2157 01b7 00       		.byte	0
 2158 01b8 07       		.uleb128 0x7
 2159 01b9 55060000 		.4byte	.LASF33
 2160 01bd 03       		.byte	0x3
 2161 01be AD       		.byte	0xad
 2162 01bf 77000000 		.4byte	0x77
 2163 01c3 02       		.byte	0x2
 2164 01c4 00       		.byte	0
 2165 01c5 08       		.uleb128 0x8
 2166 01c6 9F040000 		.4byte	.LASF34
 2167 01ca 03       		.byte	0x3
 2168 01cb AE       		.byte	0xae
 2169 01cc A4010000 		.4byte	0x1a4
 2170 01d0 06       		.uleb128 0x6
 2171 01d1 0C       		.byte	0xc
 2172 01d2 03       		.byte	0x3
 2173 01d3 B0       		.byte	0xb0
 2174 01d4 FD010000 		.4byte	0x1fd
 2175 01d8 07       		.uleb128 0x7
 2176 01d9 0D000000 		.4byte	.LASF35
 2177 01dd 03       		.byte	0x3
 2178 01de B2       		.byte	0xb2
 2179 01df 77000000 		.4byte	0x77
 2180 01e3 00       		.byte	0
 2181 01e4 07       		.uleb128 0x7
 2182 01e5 D6020000 		.4byte	.LASF36
 2183 01e9 03       		.byte	0x3
 2184 01ea B3       		.byte	0xb3
 2185 01eb FD010000 		.4byte	0x1fd
 2186 01ef 04       		.byte	0x4
 2187 01f0 07       		.uleb128 0x7
 2188 01f1 00000000 		.4byte	.LASF37
 2189 01f5 03       		.byte	0x3
 2190 01f6 B4       		.byte	0xb4
 2191 01f7 03020000 		.4byte	0x203
 2192 01fb 08       		.byte	0x8
 2193 01fc 00       		.byte	0
 2194 01fd 09       		.uleb128 0x9
 2195 01fe 04       		.byte	0x4
 2196 01ff A4000000 		.4byte	0xa4
 2197 0203 09       		.uleb128 0x9
 2198 0204 04       		.byte	0x4
ARM GAS  C:\Users\User\AppData\Local\Temp\ccieNkfn.s 			page 65


 2199 0205 C5010000 		.4byte	0x1c5
 2200 0209 08       		.uleb128 0x8
 2201 020a 44050000 		.4byte	.LASF38
 2202 020e 03       		.byte	0x3
 2203 020f B5       		.byte	0xb5
 2204 0210 D0010000 		.4byte	0x1d0
 2205 0214 06       		.uleb128 0x6
 2206 0215 08       		.byte	0x8
 2207 0216 03       		.byte	0x3
 2208 0217 B7       		.byte	0xb7
 2209 0218 33020000 		.4byte	0x233
 2210 021c 0A       		.uleb128 0xa
 2211 021d 6300     		.ascii	"c\000"
 2212 021f 03       		.byte	0x3
 2213 0220 B9       		.byte	0xb9
 2214 0221 6B000000 		.4byte	0x6b
 2215 0225 00       		.byte	0
 2216 0226 07       		.uleb128 0x7
 2217 0227 33040000 		.4byte	.LASF39
 2218 022b 03       		.byte	0x3
 2219 022c BA       		.byte	0xba
 2220 022d 33020000 		.4byte	0x233
 2221 0231 04       		.byte	0x4
 2222 0232 00       		.byte	0
 2223 0233 09       		.uleb128 0x9
 2224 0234 04       		.byte	0x4
 2225 0235 39020000 		.4byte	0x239
 2226 0239 0B       		.uleb128 0xb
 2227 023a 08       		.uleb128 0x8
 2228 023b 11070000 		.4byte	.LASF40
 2229 023f 03       		.byte	0x3
 2230 0240 BB       		.byte	0xbb
 2231 0241 14020000 		.4byte	0x214
 2232 0245 06       		.uleb128 0x6
 2233 0246 20       		.byte	0x20
 2234 0247 03       		.byte	0x3
 2235 0248 CB       		.byte	0xcb
 2236 0249 5A020000 		.4byte	0x25a
 2237 024d 07       		.uleb128 0x7
 2238 024e 96060000 		.4byte	.LASF41
 2239 0252 03       		.byte	0x3
 2240 0253 CD       		.byte	0xcd
 2241 0254 5A020000 		.4byte	0x25a
 2242 0258 00       		.byte	0
 2243 0259 00       		.byte	0
 2244 025a 0C       		.uleb128 0xc
 2245 025b 83000000 		.4byte	0x83
 2246 025f 6A020000 		.4byte	0x26a
 2247 0263 0D       		.uleb128 0xd
 2248 0264 C1000000 		.4byte	0xc1
 2249 0268 07       		.byte	0x7
 2250 0269 00       		.byte	0
 2251 026a 08       		.uleb128 0x8
 2252 026b 46010000 		.4byte	.LASF42
 2253 026f 03       		.byte	0x3
 2254 0270 CE       		.byte	0xce
 2255 0271 45020000 		.4byte	0x245
ARM GAS  C:\Users\User\AppData\Local\Temp\ccieNkfn.s 			page 66


 2256 0275 06       		.uleb128 0x6
 2257 0276 40       		.byte	0x40
 2258 0277 03       		.byte	0x3
 2259 0278 DA       		.byte	0xda
 2260 0279 AE020000 		.4byte	0x2ae
 2261 027d 07       		.uleb128 0x7
 2262 027e 7A040000 		.4byte	.LASF43
 2263 0282 03       		.byte	0x3
 2264 0283 DC       		.byte	0xdc
 2265 0284 83000000 		.4byte	0x83
 2266 0288 00       		.byte	0
 2267 0289 07       		.uleb128 0x7
 2268 028a 81040000 		.4byte	.LASF44
 2269 028e 03       		.byte	0x3
 2270 028f DD       		.byte	0xdd
 2271 0290 83000000 		.4byte	0x83
 2272 0294 04       		.byte	0x4
 2273 0295 07       		.uleb128 0x7
 2274 0296 B9040000 		.4byte	.LASF45
 2275 029a 03       		.byte	0x3
 2276 029b DE       		.byte	0xde
 2277 029c 83000000 		.4byte	0x83
 2278 02a0 08       		.byte	0x8
 2279 02a1 0A       		.uleb128 0xa
 2280 02a2 67617000 		.ascii	"gap\000"
 2281 02a6 03       		.byte	0x3
 2282 02a7 DF       		.byte	0xdf
 2283 02a8 AE020000 		.4byte	0x2ae
 2284 02ac 0C       		.byte	0xc
 2285 02ad 00       		.byte	0
 2286 02ae 0C       		.uleb128 0xc
 2287 02af 83000000 		.4byte	0x83
 2288 02b3 BE020000 		.4byte	0x2be
 2289 02b7 0D       		.uleb128 0xd
 2290 02b8 C1000000 		.4byte	0xc1
 2291 02bc 0C       		.byte	0xc
 2292 02bd 00       		.byte	0
 2293 02be 08       		.uleb128 0x8
 2294 02bf 74030000 		.4byte	.LASF46
 2295 02c3 03       		.byte	0x3
 2296 02c4 E0       		.byte	0xe0
 2297 02c5 75020000 		.4byte	0x275
 2298 02c9 06       		.uleb128 0x6
 2299 02ca 40       		.byte	0x40
 2300 02cb 03       		.byte	0x3
 2301 02cc EC       		.byte	0xec
 2302 02cd 4A030000 		.4byte	0x34a
 2303 02d1 07       		.uleb128 0x7
 2304 02d2 63010000 		.4byte	.LASF47
 2305 02d6 03       		.byte	0x3
 2306 02d7 EE       		.byte	0xee
 2307 02d8 83000000 		.4byte	0x83
 2308 02dc 00       		.byte	0
 2309 02dd 07       		.uleb128 0x7
 2310 02de C1060000 		.4byte	.LASF48
 2311 02e2 03       		.byte	0x3
 2312 02e3 EF       		.byte	0xef
ARM GAS  C:\Users\User\AppData\Local\Temp\ccieNkfn.s 			page 67


 2313 02e4 83000000 		.4byte	0x83
 2314 02e8 04       		.byte	0x4
 2315 02e9 07       		.uleb128 0x7
 2316 02ea 9A020000 		.4byte	.LASF49
 2317 02ee 03       		.byte	0x3
 2318 02ef F0       		.byte	0xf0
 2319 02f0 83000000 		.4byte	0x83
 2320 02f4 08       		.byte	0x8
 2321 02f5 07       		.uleb128 0x7
 2322 02f6 FE020000 		.4byte	.LASF50
 2323 02fa 03       		.byte	0x3
 2324 02fb F1       		.byte	0xf1
 2325 02fc 83000000 		.4byte	0x83
 2326 0300 0C       		.byte	0xc
 2327 0301 07       		.uleb128 0x7
 2328 0302 8E020000 		.4byte	.LASF51
 2329 0306 03       		.byte	0x3
 2330 0307 F2       		.byte	0xf2
 2331 0308 83000000 		.4byte	0x83
 2332 030c 10       		.byte	0x10
 2333 030d 07       		.uleb128 0x7
 2334 030e A3060000 		.4byte	.LASF52
 2335 0312 03       		.byte	0x3
 2336 0313 F3       		.byte	0xf3
 2337 0314 83000000 		.4byte	0x83
 2338 0318 14       		.byte	0x14
 2339 0319 07       		.uleb128 0x7
 2340 031a 67050000 		.4byte	.LASF53
 2341 031e 03       		.byte	0x3
 2342 031f F4       		.byte	0xf4
 2343 0320 83000000 		.4byte	0x83
 2344 0324 18       		.byte	0x18
 2345 0325 07       		.uleb128 0x7
 2346 0326 72040000 		.4byte	.LASF54
 2347 032a 03       		.byte	0x3
 2348 032b F5       		.byte	0xf5
 2349 032c 83000000 		.4byte	0x83
 2350 0330 1C       		.byte	0x1c
 2351 0331 07       		.uleb128 0x7
 2352 0332 80060000 		.4byte	.LASF55
 2353 0336 03       		.byte	0x3
 2354 0337 F6       		.byte	0xf6
 2355 0338 83000000 		.4byte	0x83
 2356 033c 20       		.byte	0x20
 2357 033d 0A       		.uleb128 0xa
 2358 033e 67617000 		.ascii	"gap\000"
 2359 0342 03       		.byte	0x3
 2360 0343 F7       		.byte	0xf7
 2361 0344 4A030000 		.4byte	0x34a
 2362 0348 24       		.byte	0x24
 2363 0349 00       		.byte	0
 2364 034a 0C       		.uleb128 0xc
 2365 034b 83000000 		.4byte	0x83
 2366 034f 5A030000 		.4byte	0x35a
 2367 0353 0D       		.uleb128 0xd
 2368 0354 C1000000 		.4byte	0xc1
 2369 0358 06       		.byte	0x6
ARM GAS  C:\Users\User\AppData\Local\Temp\ccieNkfn.s 			page 68


 2370 0359 00       		.byte	0
 2371 035a 08       		.uleb128 0x8
 2372 035b 38020000 		.4byte	.LASF56
 2373 035f 03       		.byte	0x3
 2374 0360 F8       		.byte	0xf8
 2375 0361 C9020000 		.4byte	0x2c9
 2376 0365 0E       		.uleb128 0xe
 2377 0366 40       		.byte	0x40
 2378 0367 03       		.byte	0x3
 2379 0368 0501     		.2byte	0x105
 2380 036a BD030000 		.4byte	0x3bd
 2381 036e 0F       		.uleb128 0xf
 2382 036f 5C010000 		.4byte	.LASF57
 2383 0373 03       		.byte	0x3
 2384 0374 0701     		.2byte	0x107
 2385 0376 83000000 		.4byte	0x83
 2386 037a 00       		.byte	0
 2387 037b 0F       		.uleb128 0xf
 2388 037c C9060000 		.4byte	.LASF58
 2389 0380 03       		.byte	0x3
 2390 0381 0801     		.2byte	0x108
 2391 0383 83000000 		.4byte	0x83
 2392 0387 04       		.byte	0x4
 2393 0388 0F       		.uleb128 0xf
 2394 0389 33050000 		.4byte	.LASF59
 2395 038d 03       		.byte	0x3
 2396 038e 0901     		.2byte	0x109
 2397 0390 83000000 		.4byte	0x83
 2398 0394 08       		.byte	0x8
 2399 0395 0F       		.uleb128 0xf
 2400 0396 D3060000 		.4byte	.LASF60
 2401 039a 03       		.byte	0x3
 2402 039b 0A01     		.2byte	0x10a
 2403 039d 83000000 		.4byte	0x83
 2404 03a1 0C       		.byte	0xc
 2405 03a2 0F       		.uleb128 0xf
 2406 03a3 A1010000 		.4byte	.LASF61
 2407 03a7 03       		.byte	0x3
 2408 03a8 0B01     		.2byte	0x10b
 2409 03aa 83000000 		.4byte	0x83
 2410 03ae 10       		.byte	0x10
 2411 03af 10       		.uleb128 0x10
 2412 03b0 67617000 		.ascii	"gap\000"
 2413 03b4 03       		.byte	0x3
 2414 03b5 0C01     		.2byte	0x10c
 2415 03b7 BD030000 		.4byte	0x3bd
 2416 03bb 14       		.byte	0x14
 2417 03bc 00       		.byte	0
 2418 03bd 0C       		.uleb128 0xc
 2419 03be 83000000 		.4byte	0x83
 2420 03c2 CD030000 		.4byte	0x3cd
 2421 03c6 0D       		.uleb128 0xd
 2422 03c7 C1000000 		.4byte	0xc1
 2423 03cb 0A       		.byte	0xa
 2424 03cc 00       		.byte	0
 2425 03cd 04       		.uleb128 0x4
 2426 03ce 74020000 		.4byte	.LASF62
ARM GAS  C:\Users\User\AppData\Local\Temp\ccieNkfn.s 			page 69


 2427 03d2 03       		.byte	0x3
 2428 03d3 0D01     		.2byte	0x10d
 2429 03d5 65030000 		.4byte	0x365
 2430 03d9 11       		.uleb128 0x11
 2431 03da 4002     		.2byte	0x240
 2432 03dc 03       		.byte	0x3
 2433 03dd 1401     		.2byte	0x114
 2434 03df F1030000 		.4byte	0x3f1
 2435 03e3 0F       		.uleb128 0xf
 2436 03e4 DC020000 		.4byte	.LASF63
 2437 03e8 03       		.byte	0x3
 2438 03e9 1601     		.2byte	0x116
 2439 03eb F1030000 		.4byte	0x3f1
 2440 03ef 00       		.byte	0
 2441 03f0 00       		.byte	0
 2442 03f1 0C       		.uleb128 0xc
 2443 03f2 BE020000 		.4byte	0x2be
 2444 03f6 01040000 		.4byte	0x401
 2445 03fa 0D       		.uleb128 0xd
 2446 03fb C1000000 		.4byte	0xc1
 2447 03ff 08       		.byte	0x8
 2448 0400 00       		.byte	0
 2449 0401 04       		.uleb128 0x4
 2450 0402 69010000 		.4byte	.LASF64
 2451 0406 03       		.byte	0x3
 2452 0407 1701     		.2byte	0x117
 2453 0409 D9030000 		.4byte	0x3d9
 2454 040d 11       		.uleb128 0x11
 2455 040e 4002     		.2byte	0x240
 2456 0410 03       		.byte	0x3
 2457 0411 1A01     		.2byte	0x11a
 2458 0413 25040000 		.4byte	0x425
 2459 0417 0F       		.uleb128 0xf
 2460 0418 98030000 		.4byte	.LASF65
 2461 041c 03       		.byte	0x3
 2462 041d 1C01     		.2byte	0x11c
 2463 041f 25040000 		.4byte	0x425
 2464 0423 00       		.byte	0
 2465 0424 00       		.byte	0
 2466 0425 0C       		.uleb128 0xc
 2467 0426 5A030000 		.4byte	0x35a
 2468 042a 35040000 		.4byte	0x435
 2469 042e 0D       		.uleb128 0xd
 2470 042f C1000000 		.4byte	0xc1
 2471 0433 08       		.byte	0x8
 2472 0434 00       		.byte	0
 2473 0435 04       		.uleb128 0x4
 2474 0436 1A000000 		.4byte	.LASF66
 2475 043a 03       		.byte	0x3
 2476 043b 1D01     		.2byte	0x11d
 2477 043d 0D040000 		.4byte	0x40d
 2478 0441 11       		.uleb128 0x11
 2479 0442 4002     		.2byte	0x240
 2480 0444 03       		.byte	0x3
 2481 0445 2101     		.2byte	0x121
 2482 0447 59040000 		.4byte	0x459
 2483 044b 0F       		.uleb128 0xf
ARM GAS  C:\Users\User\AppData\Local\Temp\ccieNkfn.s 			page 70


 2484 044c 98030000 		.4byte	.LASF65
 2485 0450 03       		.byte	0x3
 2486 0451 2301     		.2byte	0x123
 2487 0453 59040000 		.4byte	0x459
 2488 0457 00       		.byte	0
 2489 0458 00       		.byte	0
 2490 0459 0C       		.uleb128 0xc
 2491 045a CD030000 		.4byte	0x3cd
 2492 045e 69040000 		.4byte	0x469
 2493 0462 0D       		.uleb128 0xd
 2494 0463 C1000000 		.4byte	0xc1
 2495 0467 08       		.byte	0x8
 2496 0468 00       		.byte	0
 2497 0469 04       		.uleb128 0x4
 2498 046a 57040000 		.4byte	.LASF67
 2499 046e 03       		.byte	0x3
 2500 046f 2401     		.2byte	0x124
 2501 0471 41040000 		.4byte	0x441
 2502 0475 12       		.uleb128 0x12
 2503 0476 4C020000 		.4byte	.LASF68
 2504 047a 01       		.byte	0x1
 2505 047b B501     		.2byte	0x1b5
 2506 047d 00000000 		.4byte	.LFB2
 2507 0481 98000000 		.4byte	.LFE2-.LFB2
 2508 0485 01       		.uleb128 0x1
 2509 0486 9C       		.byte	0x9c
 2510 0487 9B040000 		.4byte	0x49b
 2511 048b 13       		.uleb128 0x13
 2512 048c 657000   		.ascii	"ep\000"
 2513 048f 01       		.byte	0x1
 2514 0490 B701     		.2byte	0x1b7
 2515 0492 83000000 		.4byte	0x83
 2516 0496 00000000 		.4byte	.LLST0
 2517 049a 00       		.byte	0
 2518 049b 12       		.uleb128 0x12
 2519 049c 21050000 		.4byte	.LASF69
 2520 04a0 01       		.byte	0x1
 2521 04a1 1402     		.2byte	0x214
 2522 04a3 00000000 		.4byte	.LFB3
 2523 04a7 44000000 		.4byte	.LFE3-.LFB3
 2524 04ab 01       		.uleb128 0x1
 2525 04ac 9C       		.byte	0x9c
 2526 04ad C0040000 		.4byte	0x4c0
 2527 04b1 13       		.uleb128 0x13
 2528 04b2 6900     		.ascii	"i\000"
 2529 04b4 01       		.byte	0x1
 2530 04b5 1602     		.2byte	0x216
 2531 04b7 6B000000 		.4byte	0x6b
 2532 04bb 1F000000 		.4byte	.LLST1
 2533 04bf 00       		.byte	0
 2534 04c0 14       		.uleb128 0x14
 2535 04c1 4F050000 		.4byte	.LASF75
 2536 04c5 01       		.byte	0x1
 2537 04c6 AE03     		.2byte	0x3ae
 2538 04c8 FB040000 		.4byte	0x4fb
 2539 04cc 00000000 		.4byte	.LFB6
 2540 04d0 28000000 		.4byte	.LFE6-.LFB6
ARM GAS  C:\Users\User\AppData\Local\Temp\ccieNkfn.s 			page 71


 2541 04d4 01       		.uleb128 0x1
 2542 04d5 9C       		.byte	0x9c
 2543 04d6 FB040000 		.4byte	0x4fb
 2544 04da 15       		.uleb128 0x15
 2545 04db 20010000 		.4byte	.LASF80
 2546 04df 01       		.byte	0x1
 2547 04e0 AE03     		.2byte	0x3ae
 2548 04e2 6B000000 		.4byte	0x6b
 2549 04e6 49000000 		.4byte	.LLST2
 2550 04ea 16       		.uleb128 0x16
 2551 04eb 2E040000 		.4byte	.LASF70
 2552 04ef 01       		.byte	0x1
 2553 04f0 B203     		.2byte	0x3b2
 2554 04f2 FB040000 		.4byte	0x4fb
 2555 04f6 83000000 		.4byte	.LLST3
 2556 04fa 00       		.byte	0
 2557 04fb 09       		.uleb128 0x9
 2558 04fc 04       		.byte	0x4
 2559 04fd 01050000 		.4byte	0x501
 2560 0501 17       		.uleb128 0x17
 2561 0502 3A020000 		.4byte	0x23a
 2562 0506 12       		.uleb128 0x12
 2563 0507 88040000 		.4byte	.LASF71
 2564 050b 01       		.byte	0x1
 2565 050c 2503     		.2byte	0x325
 2566 050e 00000000 		.4byte	.LFB5
 2567 0512 20010000 		.4byte	.LFE5-.LFB5
 2568 0516 01       		.uleb128 0x1
 2569 0517 9C       		.byte	0x9c
 2570 0518 93050000 		.4byte	0x593
 2571 051c 13       		.uleb128 0x13
 2572 051d 657000   		.ascii	"ep\000"
 2573 0520 01       		.byte	0x1
 2574 0521 2703     		.2byte	0x327
 2575 0523 83000000 		.4byte	0x83
 2576 0527 BB000000 		.4byte	.LLST4
 2577 052b 16       		.uleb128 0x16
 2578 052c FD030000 		.4byte	.LASF72
 2579 0530 01       		.byte	0x1
 2580 0531 2803     		.2byte	0x328
 2581 0533 83000000 		.4byte	0x83
 2582 0537 CE000000 		.4byte	.LLST5
 2583 053b 16       		.uleb128 0x16
 2584 053c E9020000 		.4byte	.LASF73
 2585 0540 01       		.byte	0x1
 2586 0541 2903     		.2byte	0x329
 2587 0543 83000000 		.4byte	0x83
 2588 0547 E1000000 		.4byte	.LLST6
 2589 054b 13       		.uleb128 0x13
 2590 054c 6900     		.ascii	"i\000"
 2591 054e 01       		.byte	0x1
 2592 054f 2A03     		.2byte	0x32a
 2593 0551 83000000 		.4byte	0x83
 2594 0555 15010000 		.4byte	.LLST7
 2595 0559 16       		.uleb128 0x16
 2596 055a BF040000 		.4byte	.LASF74
 2597 055e 01       		.byte	0x1
ARM GAS  C:\Users\User\AppData\Local\Temp\ccieNkfn.s 			page 72


 2598 055f 2B03     		.2byte	0x32b
 2599 0561 6B000000 		.4byte	0x6b
 2600 0565 34010000 		.4byte	.LLST8
 2601 0569 16       		.uleb128 0x16
 2602 056a 2E040000 		.4byte	.LASF70
 2603 056e 01       		.byte	0x1
 2604 056f 2D03     		.2byte	0x32d
 2605 0571 FB040000 		.4byte	0x4fb
 2606 0575 47010000 		.4byte	.LLST9
 2607 0579 13       		.uleb128 0x13
 2608 057a 70455000 		.ascii	"pEP\000"
 2609 057e 01       		.byte	0x1
 2610 057f 2E03     		.2byte	0x32e
 2611 0581 93050000 		.4byte	0x593
 2612 0585 5C010000 		.4byte	.LLST10
 2613 0589 18       		.uleb128 0x18
 2614 058a 1E000000 		.4byte	.LVL14
 2615 058e C0040000 		.4byte	0x4c0
 2616 0592 00       		.byte	0
 2617 0593 09       		.uleb128 0x9
 2618 0594 04       		.byte	0x4
 2619 0595 99050000 		.4byte	0x599
 2620 0599 17       		.uleb128 0x17
 2621 059a 99010000 		.4byte	0x199
 2622 059e 19       		.uleb128 0x19
 2623 059f 1A060000 		.4byte	.LASF119
 2624 05a3 01       		.byte	0x1
 2625 05a4 F303     		.2byte	0x3f3
 2626 05a6 FB040000 		.4byte	0x4fb
 2627 05aa 00000000 		.4byte	.LFB7
 2628 05ae 18000000 		.4byte	.LFE7-.LFB7
 2629 05b2 01       		.uleb128 0x1
 2630 05b3 9C       		.byte	0x9c
 2631 05b4 14       		.uleb128 0x14
 2632 05b5 26030000 		.4byte	.LASF76
 2633 05b9 01       		.byte	0x1
 2634 05ba 0604     		.2byte	0x406
 2635 05bc 08060000 		.4byte	0x608
 2636 05c0 00000000 		.4byte	.LFB8
 2637 05c4 28000000 		.4byte	.LFE8-.LFB8
 2638 05c8 01       		.uleb128 0x1
 2639 05c9 9C       		.byte	0x9c
 2640 05ca 08060000 		.4byte	0x608
 2641 05ce 16       		.uleb128 0x16
 2642 05cf 2E040000 		.4byte	.LASF70
 2643 05d3 01       		.byte	0x1
 2644 05d4 0904     		.2byte	0x409
 2645 05d6 FB040000 		.4byte	0x4fb
 2646 05da 6F010000 		.4byte	.LLST11
 2647 05de 16       		.uleb128 0x16
 2648 05df 88030000 		.4byte	.LASF77
 2649 05e3 01       		.byte	0x1
 2650 05e4 0A04     		.2byte	0x40a
 2651 05e6 08060000 		.4byte	0x608
 2652 05ea 8D010000 		.4byte	.LLST12
 2653 05ee 16       		.uleb128 0x16
 2654 05ef FA050000 		.4byte	.LASF78
ARM GAS  C:\Users\User\AppData\Local\Temp\ccieNkfn.s 			page 73


 2655 05f3 01       		.byte	0x1
 2656 05f4 0B04     		.2byte	0x40b
 2657 05f6 6B000000 		.4byte	0x6b
 2658 05fa AB010000 		.4byte	.LLST13
 2659 05fe 18       		.uleb128 0x18
 2660 05ff 0E000000 		.4byte	.LVL30
 2661 0603 C0040000 		.4byte	0x4c0
 2662 0607 00       		.byte	0
 2663 0608 09       		.uleb128 0x9
 2664 0609 04       		.byte	0x4
 2665 060a 0E060000 		.4byte	0x60e
 2666 060e 17       		.uleb128 0x17
 2667 060f 6B000000 		.4byte	0x6b
 2668 0613 12       		.uleb128 0x12
 2669 0614 2B020000 		.4byte	.LASF79
 2670 0618 01       		.byte	0x1
 2671 0619 3A02     		.2byte	0x23a
 2672 061b 00000000 		.4byte	.LFB4
 2673 061f D8010000 		.4byte	.LFE4-.LFB4
 2674 0623 01       		.uleb128 0x1
 2675 0624 9C       		.byte	0x9c
 2676 0625 D2060000 		.4byte	0x6d2
 2677 0629 15       		.uleb128 0x15
 2678 062a D9010000 		.4byte	.LASF81
 2679 062e 01       		.byte	0x1
 2680 062f 3A02     		.2byte	0x23a
 2681 0631 6B000000 		.4byte	0x6b
 2682 0635 DA010000 		.4byte	.LLST14
 2683 0639 13       		.uleb128 0x13
 2684 063a 657000   		.ascii	"ep\000"
 2685 063d 01       		.byte	0x1
 2686 063e 3C02     		.2byte	0x23c
 2687 0640 6B000000 		.4byte	0x6b
 2688 0644 FB010000 		.4byte	.LLST15
 2689 0648 16       		.uleb128 0x16
 2690 0649 FD030000 		.4byte	.LASF72
 2691 064d 01       		.byte	0x1
 2692 064e 3D02     		.2byte	0x23d
 2693 0650 6B000000 		.4byte	0x6b
 2694 0654 5D020000 		.4byte	.LLST16
 2695 0658 13       		.uleb128 0x13
 2696 0659 6900     		.ascii	"i\000"
 2697 065b 01       		.byte	0x1
 2698 065c 3E02     		.2byte	0x23e
 2699 065e 6B000000 		.4byte	0x6b
 2700 0662 87020000 		.4byte	.LLST17
 2701 0666 16       		.uleb128 0x16
 2702 0667 E9020000 		.4byte	.LASF73
 2703 066b 01       		.byte	0x1
 2704 066c 3F02     		.2byte	0x23f
 2705 066e 6B000000 		.4byte	0x6b
 2706 0672 F4020000 		.4byte	.LLST18
 2707 0676 16       		.uleb128 0x16
 2708 0677 6D030000 		.4byte	.LASF82
 2709 067b 01       		.byte	0x1
 2710 067c 4002     		.2byte	0x240
 2711 067e 08060000 		.4byte	0x608
ARM GAS  C:\Users\User\AppData\Local\Temp\ccieNkfn.s 			page 74


 2712 0682 64030000 		.4byte	.LLST19
 2713 0686 16       		.uleb128 0x16
 2714 0687 3A040000 		.4byte	.LASF83
 2715 068b 01       		.byte	0x1
 2716 068c 4302     		.2byte	0x243
 2717 068e 77000000 		.4byte	0x77
 2718 0692 78030000 		.4byte	.LLST20
 2719 0696 16       		.uleb128 0x16
 2720 0697 2E040000 		.4byte	.LASF70
 2721 069b 01       		.byte	0x1
 2722 069c 4602     		.2byte	0x246
 2723 069e FB040000 		.4byte	0x4fb
 2724 06a2 AE030000 		.4byte	.LLST21
 2725 06a6 13       		.uleb128 0x13
 2726 06a7 70455000 		.ascii	"pEP\000"
 2727 06ab 01       		.byte	0x1
 2728 06ac 4702     		.2byte	0x247
 2729 06ae 93050000 		.4byte	0x593
 2730 06b2 DB030000 		.4byte	.LLST22
 2731 06b6 18       		.uleb128 0x18
 2732 06b7 6A000000 		.4byte	.LVL50
 2733 06bb C0040000 		.4byte	0x4c0
 2734 06bf 18       		.uleb128 0x18
 2735 06c0 8E010000 		.4byte	.LVL77
 2736 06c4 B4050000 		.4byte	0x5b4
 2737 06c8 18       		.uleb128 0x18
 2738 06c9 B6010000 		.4byte	.LVL84
 2739 06cd 75040000 		.4byte	0x475
 2740 06d1 00       		.byte	0
 2741 06d2 12       		.uleb128 0x12
 2742 06d3 2F000000 		.4byte	.LASF84
 2743 06d7 01       		.byte	0x1
 2744 06d8 3004     		.2byte	0x430
 2745 06da 00000000 		.4byte	.LFB9
 2746 06de 54000000 		.4byte	.LFE9-.LFB9
 2747 06e2 01       		.uleb128 0x1
 2748 06e3 9C       		.byte	0x9c
 2749 06e4 F9060000 		.4byte	0x6f9
 2750 06e8 15       		.uleb128 0x15
 2751 06e9 A8010000 		.4byte	.LASF85
 2752 06ed 01       		.byte	0x1
 2753 06ee 3004     		.2byte	0x430
 2754 06f0 6B000000 		.4byte	0x6b
 2755 06f4 F9030000 		.4byte	.LLST23
 2756 06f8 00       		.byte	0
 2757 06f9 14       		.uleb128 0x14
 2758 06fa B9020000 		.4byte	.LASF86
 2759 06fe 01       		.byte	0x1
 2760 06ff 5904     		.2byte	0x459
 2761 0701 6B000000 		.4byte	0x6b
 2762 0705 00000000 		.4byte	.LFB10
 2763 0709 6C000000 		.4byte	.LFE10-.LFB10
 2764 070d 01       		.uleb128 0x1
 2765 070e 9C       		.byte	0x9c
 2766 070f 3C070000 		.4byte	0x73c
 2767 0713 16       		.uleb128 0x16
 2768 0714 EB050000 		.4byte	.LASF87
ARM GAS  C:\Users\User\AppData\Local\Temp\ccieNkfn.s 			page 75


 2769 0718 01       		.byte	0x1
 2770 0719 5B04     		.2byte	0x45b
 2771 071b 6B000000 		.4byte	0x6b
 2772 071f 22040000 		.4byte	.LLST24
 2773 0723 13       		.uleb128 0x13
 2774 0724 657000   		.ascii	"ep\000"
 2775 0727 01       		.byte	0x1
 2776 0728 5C04     		.2byte	0x45c
 2777 072a 83000000 		.4byte	0x83
 2778 072e 58040000 		.4byte	.LLST25
 2779 0732 18       		.uleb128 0x18
 2780 0733 58000000 		.4byte	.LVL95
 2781 0737 850A0000 		.4byte	0xa85
 2782 073b 00       		.byte	0
 2783 073c 14       		.uleb128 0x14
 2784 073d FD010000 		.4byte	.LASF88
 2785 0741 01       		.byte	0x1
 2786 0742 8A04     		.2byte	0x48a
 2787 0744 6B000000 		.4byte	0x6b
 2788 0748 00000000 		.4byte	.LFB11
 2789 074c B0000000 		.4byte	.LFE11-.LFB11
 2790 0750 01       		.uleb128 0x1
 2791 0751 9C       		.byte	0x9c
 2792 0752 7F070000 		.4byte	0x77f
 2793 0756 16       		.uleb128 0x16
 2794 0757 EB050000 		.4byte	.LASF87
 2795 075b 01       		.byte	0x1
 2796 075c 8C04     		.2byte	0x48c
 2797 075e 6B000000 		.4byte	0x6b
 2798 0762 81040000 		.4byte	.LLST26
 2799 0766 13       		.uleb128 0x13
 2800 0767 657000   		.ascii	"ep\000"
 2801 076a 01       		.byte	0x1
 2802 076b 8D04     		.2byte	0x48d
 2803 076d 83000000 		.4byte	0x83
 2804 0771 B7040000 		.4byte	.LLST27
 2805 0775 18       		.uleb128 0x18
 2806 0776 9C000000 		.4byte	.LVL107
 2807 077a 850A0000 		.4byte	0xa85
 2808 077e 00       		.byte	0
 2809 077f 14       		.uleb128 0x14
 2810 0780 A8030000 		.4byte	.LASF89
 2811 0784 01       		.byte	0x1
 2812 0785 CF04     		.2byte	0x4cf
 2813 0787 6B000000 		.4byte	0x6b
 2814 078b 00000000 		.4byte	.LFB12
 2815 078f 50000000 		.4byte	.LFE12-.LFB12
 2816 0793 01       		.uleb128 0x1
 2817 0794 9C       		.byte	0x9c
 2818 0795 E3070000 		.4byte	0x7e3
 2819 0799 16       		.uleb128 0x16
 2820 079a EB050000 		.4byte	.LASF87
 2821 079e 01       		.byte	0x1
 2822 079f D104     		.2byte	0x4d1
 2823 07a1 6B000000 		.4byte	0x6b
 2824 07a5 F6040000 		.4byte	.LLST28
 2825 07a9 16       		.uleb128 0x16
ARM GAS  C:\Users\User\AppData\Local\Temp\ccieNkfn.s 			page 76


 2826 07aa BF040000 		.4byte	.LASF74
 2827 07ae 01       		.byte	0x1
 2828 07af D304     		.2byte	0x4d3
 2829 07b1 6B000000 		.4byte	0x6b
 2830 07b5 2D050000 		.4byte	.LLST29
 2831 07b9 16       		.uleb128 0x16
 2832 07ba 85060000 		.4byte	.LASF90
 2833 07be 01       		.byte	0x1
 2834 07bf D404     		.2byte	0x4d4
 2835 07c1 6B000000 		.4byte	0x6b
 2836 07c5 40050000 		.4byte	.LLST30
 2837 07c9 16       		.uleb128 0x16
 2838 07ca 2E040000 		.4byte	.LASF70
 2839 07ce 01       		.byte	0x1
 2840 07cf D504     		.2byte	0x4d5
 2841 07d1 FB040000 		.4byte	0x4fb
 2842 07d5 6D050000 		.4byte	.LLST31
 2843 07d9 18       		.uleb128 0x18
 2844 07da 14000000 		.4byte	.LVL112
 2845 07de C0040000 		.4byte	0x4c0
 2846 07e2 00       		.byte	0
 2847 07e3 1A       		.uleb128 0x1a
 2848 07e4 F8060000 		.4byte	.LASF91
 2849 07e8 01       		.byte	0x1
 2850 07e9 54       		.byte	0x54
 2851 07ea 6B000000 		.4byte	0x6b
 2852 07ee 00000000 		.4byte	.LFB1
 2853 07f2 E4020000 		.4byte	.LFE1-.LFB1
 2854 07f6 01       		.uleb128 0x1
 2855 07f7 9C       		.byte	0x9c
 2856 07f8 6A090000 		.4byte	0x96a
 2857 07fc 1B       		.uleb128 0x1b
 2858 07fd EB050000 		.4byte	.LASF87
 2859 0801 01       		.byte	0x1
 2860 0802 56       		.byte	0x56
 2861 0803 6B000000 		.4byte	0x6b
 2862 0807 8B050000 		.4byte	.LLST32
 2863 080b 1B       		.uleb128 0x1b
 2864 080c 32060000 		.4byte	.LASF92
 2865 0810 01       		.byte	0x1
 2866 0811 57       		.byte	0x57
 2867 0812 83000000 		.4byte	0x83
 2868 0816 31070000 		.4byte	.LLST33
 2869 081a 1B       		.uleb128 0x1b
 2870 081b F6040000 		.4byte	.LASF93
 2871 081f 01       		.byte	0x1
 2872 0820 58       		.byte	0x58
 2873 0821 83000000 		.4byte	0x83
 2874 0825 44070000 		.4byte	.LLST34
 2875 0829 1B       		.uleb128 0x1b
 2876 082a F0020000 		.4byte	.LASF94
 2877 082e 01       		.byte	0x1
 2878 082f 59       		.byte	0x59
 2879 0830 83000000 		.4byte	0x83
 2880 0834 62070000 		.4byte	.LLST35
 2881 0838 1B       		.uleb128 0x1b
 2882 0839 0E050000 		.4byte	.LASF95
ARM GAS  C:\Users\User\AppData\Local\Temp\ccieNkfn.s 			page 77


 2883 083d 01       		.byte	0x1
 2884 083e 5C       		.byte	0x5c
 2885 083f FD010000 		.4byte	0x1fd
 2886 0843 E3070000 		.4byte	.LLST36
 2887 0847 1B       		.uleb128 0x1b
 2888 0848 5C060000 		.4byte	.LASF96
 2889 084c 01       		.byte	0x1
 2890 084d 5E       		.byte	0x5e
 2891 084e 6B000000 		.4byte	0x6b
 2892 0852 3C080000 		.4byte	.LLST37
 2893 0856 1B       		.uleb128 0x1b
 2894 0857 0D040000 		.4byte	.LASF97
 2895 085b 01       		.byte	0x1
 2896 085c 5F       		.byte	0x5f
 2897 085d 6B000000 		.4byte	0x6b
 2898 0861 65080000 		.4byte	.LLST38
 2899 0865 1C       		.uleb128 0x1c
 2900 0866 CB010000 		.4byte	.LASF98
 2901 086a 01       		.byte	0x1
 2902 086b 63       		.byte	0x63
 2903 086c 7A090000 		.4byte	0x97a
 2904 0870 05       		.uleb128 0x5
 2905 0871 03       		.byte	0x3
 2906 0872 00000000 		.4byte	USBFS_tBuffer.5176
 2907 0876 1B       		.uleb128 0x1b
 2908 0877 2E040000 		.4byte	.LASF70
 2909 087b 01       		.byte	0x1
 2910 087c 64       		.byte	0x64
 2911 087d FB040000 		.4byte	0x4fb
 2912 0881 78080000 		.4byte	.LLST39
 2913 0885 18       		.uleb128 0x18
 2914 0886 38000000 		.4byte	.LVL123
 2915 088a 9E050000 		.4byte	0x59e
 2916 088e 18       		.uleb128 0x18
 2917 088f 46000000 		.4byte	.LVL124
 2918 0893 900A0000 		.4byte	0xa90
 2919 0897 18       		.uleb128 0x18
 2920 0898 5A000000 		.4byte	.LVL126
 2921 089c C0040000 		.4byte	0x4c0
 2922 08a0 18       		.uleb128 0x18
 2923 08a1 78000000 		.4byte	.LVL127
 2924 08a5 900A0000 		.4byte	0xa90
 2925 08a9 18       		.uleb128 0x18
 2926 08aa B4000000 		.4byte	.LVL137
 2927 08ae 900A0000 		.4byte	0xa90
 2928 08b2 18       		.uleb128 0x18
 2929 08b3 BA000000 		.4byte	.LVL139
 2930 08b7 9B0A0000 		.4byte	0xa9b
 2931 08bb 18       		.uleb128 0x18
 2932 08bc F0000000 		.4byte	.LVL142
 2933 08c0 900A0000 		.4byte	0xa90
 2934 08c4 18       		.uleb128 0x18
 2935 08c5 0C010000 		.4byte	.LVL144
 2936 08c9 900A0000 		.4byte	0xa90
 2937 08cd 18       		.uleb128 0x18
 2938 08ce 1C010000 		.4byte	.LVL147
 2939 08d2 900A0000 		.4byte	0xa90
ARM GAS  C:\Users\User\AppData\Local\Temp\ccieNkfn.s 			page 78


 2940 08d6 18       		.uleb128 0x18
 2941 08d7 32010000 		.4byte	.LVL150
 2942 08db 900A0000 		.4byte	0xa90
 2943 08df 18       		.uleb128 0x18
 2944 08e0 54010000 		.4byte	.LVL153
 2945 08e4 850A0000 		.4byte	0xa85
 2946 08e8 1D       		.uleb128 0x1d
 2947 08e9 66010000 		.4byte	.LVL157
 2948 08ed C0040000 		.4byte	0x4c0
 2949 08f1 FC080000 		.4byte	0x8fc
 2950 08f5 1E       		.uleb128 0x1e
 2951 08f6 01       		.uleb128 0x1
 2952 08f7 50       		.byte	0x50
 2953 08f8 02       		.uleb128 0x2
 2954 08f9 74       		.byte	0x74
 2955 08fa 7F       		.sleb128 -1
 2956 08fb 00       		.byte	0
 2957 08fc 1D       		.uleb128 0x1d
 2958 08fd 90010000 		.4byte	.LVL160
 2959 0901 13060000 		.4byte	0x613
 2960 0905 0F090000 		.4byte	0x90f
 2961 0909 1E       		.uleb128 0x1e
 2962 090a 01       		.uleb128 0x1
 2963 090b 50       		.byte	0x50
 2964 090c 01       		.uleb128 0x1
 2965 090d 31       		.byte	0x31
 2966 090e 00       		.byte	0
 2967 090f 18       		.uleb128 0x18
 2968 0910 94010000 		.4byte	.LVL161
 2969 0914 850A0000 		.4byte	0xa85
 2970 0918 18       		.uleb128 0x18
 2971 0919 9A010000 		.4byte	.LVL163
 2972 091d 7F070000 		.4byte	0x77f
 2973 0921 18       		.uleb128 0x18
 2974 0922 C4010000 		.4byte	.LVL165
 2975 0926 06050000 		.4byte	0x506
 2976 092a 18       		.uleb128 0x18
 2977 092b C8010000 		.4byte	.LVL166
 2978 092f 850A0000 		.4byte	0xa85
 2979 0933 18       		.uleb128 0x18
 2980 0934 E6010000 		.4byte	.LVL169
 2981 0938 3C070000 		.4byte	0x73c
 2982 093c 18       		.uleb128 0x18
 2983 093d FE010000 		.4byte	.LVL171
 2984 0941 850A0000 		.4byte	0xa85
 2985 0945 18       		.uleb128 0x18
 2986 0946 1A020000 		.4byte	.LVL173
 2987 094a 850A0000 		.4byte	0xa85
 2988 094e 18       		.uleb128 0x18
 2989 094f 38020000 		.4byte	.LVL176
 2990 0953 F9060000 		.4byte	0x6f9
 2991 0957 18       		.uleb128 0x18
 2992 0958 52020000 		.4byte	.LVL178
 2993 095c 850A0000 		.4byte	0xa85
 2994 0960 18       		.uleb128 0x18
 2995 0961 6E020000 		.4byte	.LVL180
 2996 0965 850A0000 		.4byte	0xa85
ARM GAS  C:\Users\User\AppData\Local\Temp\ccieNkfn.s 			page 79


 2997 0969 00       		.byte	0
 2998 096a 0C       		.uleb128 0xc
 2999 096b A4000000 		.4byte	0xa4
 3000 096f 7A090000 		.4byte	0x97a
 3001 0973 0D       		.uleb128 0xd
 3002 0974 C1000000 		.4byte	0xc1
 3003 0978 01       		.byte	0x1
 3004 0979 00       		.byte	0
 3005 097a 05       		.uleb128 0x5
 3006 097b 6A090000 		.4byte	0x96a
 3007 097f 1F       		.uleb128 0x1f
 3008 0980 B8050000 		.4byte	.LASF99
 3009 0984 03       		.byte	0x3
 3010 0985 D802     		.2byte	0x2d8
 3011 0987 A4000000 		.4byte	0xa4
 3012 098b 1F       		.uleb128 0x1f
 3013 098c 46030000 		.4byte	.LASF100
 3014 0990 03       		.byte	0x3
 3015 0991 DA02     		.2byte	0x2da
 3016 0993 A4000000 		.4byte	0xa4
 3017 0997 1F       		.uleb128 0x1f
 3018 0998 C7030000 		.4byte	.LASF101
 3019 099c 03       		.byte	0x3
 3020 099d DB02     		.2byte	0x2db
 3021 099f A4000000 		.4byte	0xa4
 3022 09a3 1F       		.uleb128 0x1f
 3023 09a4 42060000 		.4byte	.LASF102
 3024 09a8 03       		.byte	0x3
 3025 09a9 DC02     		.2byte	0x2dc
 3026 09ab A4000000 		.4byte	0xa4
 3027 09af 0C       		.uleb128 0xc
 3028 09b0 01050000 		.4byte	0x501
 3029 09b4 BF090000 		.4byte	0x9bf
 3030 09b8 0D       		.uleb128 0xd
 3031 09b9 C1000000 		.4byte	0xc1
 3032 09bd 00       		.byte	0
 3033 09be 00       		.byte	0
 3034 09bf 20       		.uleb128 0x20
 3035 09c0 4B040000 		.4byte	.LASF103
 3036 09c4 04       		.byte	0x4
 3037 09c5 68       		.byte	0x68
 3038 09c6 CA090000 		.4byte	0x9ca
 3039 09ca 17       		.uleb128 0x17
 3040 09cb AF090000 		.4byte	0x9af
 3041 09cf 0C       		.uleb128 0xc
 3042 09d0 0E060000 		.4byte	0x60e
 3043 09d4 DF090000 		.4byte	0x9df
 3044 09d8 0D       		.uleb128 0xd
 3045 09d9 C1000000 		.4byte	0xc1
 3046 09dd 1C       		.byte	0x1c
 3047 09de 00       		.byte	0
 3048 09df 20       		.uleb128 0x20
 3049 09e0 D2040000 		.4byte	.LASF104
 3050 09e4 04       		.byte	0x4
 3051 09e5 69       		.byte	0x69
 3052 09e6 EA090000 		.4byte	0x9ea
 3053 09ea 17       		.uleb128 0x17
ARM GAS  C:\Users\User\AppData\Local\Temp\ccieNkfn.s 			page 80


 3054 09eb CF090000 		.4byte	0x9cf
 3055 09ef 20       		.uleb128 0x20
 3056 09f0 15020000 		.4byte	.LASF105
 3057 09f4 04       		.byte	0x4
 3058 09f5 7C       		.byte	0x7c
 3059 09f6 A4000000 		.4byte	0xa4
 3060 09fa 0C       		.uleb128 0xc
 3061 09fb A4000000 		.4byte	0xa4
 3062 09ff 0A0A0000 		.4byte	0xa0a
 3063 0a03 0D       		.uleb128 0xd
 3064 0a04 C1000000 		.4byte	0xc1
 3065 0a08 00       		.byte	0
 3066 0a09 00       		.byte	0
 3067 0a0a 20       		.uleb128 0x20
 3068 0a0b 6C050000 		.4byte	.LASF106
 3069 0a0f 04       		.byte	0x4
 3070 0a10 7D       		.byte	0x7d
 3071 0a11 150A0000 		.4byte	0xa15
 3072 0a15 05       		.uleb128 0x5
 3073 0a16 FA090000 		.4byte	0x9fa
 3074 0a1a 20       		.uleb128 0x20
 3075 0a1b DD060000 		.4byte	.LASF107
 3076 0a1f 04       		.byte	0x4
 3077 0a20 7E       		.byte	0x7e
 3078 0a21 250A0000 		.4byte	0xa25
 3079 0a25 05       		.uleb128 0x5
 3080 0a26 FA090000 		.4byte	0x9fa
 3081 0a2a 20       		.uleb128 0x20
 3082 0a2b E9010000 		.4byte	.LASF108
 3083 0a2f 04       		.byte	0x4
 3084 0a30 7F       		.byte	0x7f
 3085 0a31 A4000000 		.4byte	0xa4
 3086 0a35 20       		.uleb128 0x20
 3087 0a36 AB060000 		.4byte	.LASF109
 3088 0a3a 04       		.byte	0x4
 3089 0a3b 80       		.byte	0x80
 3090 0a3c 400A0000 		.4byte	0xa40
 3091 0a40 05       		.uleb128 0x5
 3092 0a41 FA090000 		.4byte	0x9fa
 3093 0a45 20       		.uleb128 0x20
 3094 0a46 E8030000 		.4byte	.LASF110
 3095 0a4a 04       		.byte	0x4
 3096 0a4b 81       		.byte	0x81
 3097 0a4c 08060000 		.4byte	0x608
 3098 0a50 0C       		.uleb128 0xc
 3099 0a51 600A0000 		.4byte	0xa60
 3100 0a55 600A0000 		.4byte	0xa60
 3101 0a59 0D       		.uleb128 0xd
 3102 0a5a C1000000 		.4byte	0xc1
 3103 0a5e 08       		.byte	0x8
 3104 0a5f 00       		.byte	0
 3105 0a60 05       		.uleb128 0x5
 3106 0a61 3D010000 		.4byte	0x13d
 3107 0a65 20       		.uleb128 0x20
 3108 0a66 05050000 		.4byte	.LASF111
 3109 0a6a 04       		.byte	0x4
 3110 0a6b 83       		.byte	0x83
ARM GAS  C:\Users\User\AppData\Local\Temp\ccieNkfn.s 			page 81


 3111 0a6c 700A0000 		.4byte	0xa70
 3112 0a70 05       		.uleb128 0x5
 3113 0a71 500A0000 		.4byte	0xa50
 3114 0a75 20       		.uleb128 0x20
 3115 0a76 41000000 		.4byte	.LASF112
 3116 0a7a 04       		.byte	0x4
 3117 0a7b 84       		.byte	0x84
 3118 0a7c 800A0000 		.4byte	0xa80
 3119 0a80 05       		.uleb128 0x5
 3120 0a81 09020000 		.4byte	0x209
 3121 0a85 21       		.uleb128 0x21
 3122 0a86 98050000 		.4byte	.LASF113
 3123 0a8a 98050000 		.4byte	.LASF113
 3124 0a8e 04       		.byte	0x4
 3125 0a8f BD       		.byte	0xbd
 3126 0a90 21       		.uleb128 0x21
 3127 0a91 7C000000 		.4byte	.LASF114
 3128 0a95 7C000000 		.4byte	.LASF114
 3129 0a99 04       		.byte	0x4
 3130 0a9a B3       		.byte	0xb3
 3131 0a9b 22       		.uleb128 0x22
 3132 0a9c 68060000 		.4byte	.LASF115
 3133 0aa0 68060000 		.4byte	.LASF115
 3134 0aa4 04       		.byte	0x4
 3135 0aa5 5901     		.2byte	0x159
 3136 0aa7 00       		.byte	0
 3137              		.section	.debug_abbrev,"",%progbits
 3138              	.Ldebug_abbrev0:
 3139 0000 01       		.uleb128 0x1
 3140 0001 11       		.uleb128 0x11
 3141 0002 01       		.byte	0x1
 3142 0003 25       		.uleb128 0x25
 3143 0004 0E       		.uleb128 0xe
 3144 0005 13       		.uleb128 0x13
 3145 0006 0B       		.uleb128 0xb
 3146 0007 03       		.uleb128 0x3
 3147 0008 0E       		.uleb128 0xe
 3148 0009 1B       		.uleb128 0x1b
 3149 000a 0E       		.uleb128 0xe
 3150 000b 55       		.uleb128 0x55
 3151 000c 17       		.uleb128 0x17
 3152 000d 11       		.uleb128 0x11
 3153 000e 01       		.uleb128 0x1
 3154 000f 10       		.uleb128 0x10
 3155 0010 17       		.uleb128 0x17
 3156 0011 00       		.byte	0
 3157 0012 00       		.byte	0
 3158 0013 02       		.uleb128 0x2
 3159 0014 24       		.uleb128 0x24
 3160 0015 00       		.byte	0
 3161 0016 0B       		.uleb128 0xb
 3162 0017 0B       		.uleb128 0xb
 3163 0018 3E       		.uleb128 0x3e
 3164 0019 0B       		.uleb128 0xb
 3165 001a 03       		.uleb128 0x3
 3166 001b 0E       		.uleb128 0xe
 3167 001c 00       		.byte	0
ARM GAS  C:\Users\User\AppData\Local\Temp\ccieNkfn.s 			page 82


 3168 001d 00       		.byte	0
 3169 001e 03       		.uleb128 0x3
 3170 001f 24       		.uleb128 0x24
 3171 0020 00       		.byte	0
 3172 0021 0B       		.uleb128 0xb
 3173 0022 0B       		.uleb128 0xb
 3174 0023 3E       		.uleb128 0x3e
 3175 0024 0B       		.uleb128 0xb
 3176 0025 03       		.uleb128 0x3
 3177 0026 08       		.uleb128 0x8
 3178 0027 00       		.byte	0
 3179 0028 00       		.byte	0
 3180 0029 04       		.uleb128 0x4
 3181 002a 16       		.uleb128 0x16
 3182 002b 00       		.byte	0
 3183 002c 03       		.uleb128 0x3
 3184 002d 0E       		.uleb128 0xe
 3185 002e 3A       		.uleb128 0x3a
 3186 002f 0B       		.uleb128 0xb
 3187 0030 3B       		.uleb128 0x3b
 3188 0031 05       		.uleb128 0x5
 3189 0032 49       		.uleb128 0x49
 3190 0033 13       		.uleb128 0x13
 3191 0034 00       		.byte	0
 3192 0035 00       		.byte	0
 3193 0036 05       		.uleb128 0x5
 3194 0037 35       		.uleb128 0x35
 3195 0038 00       		.byte	0
 3196 0039 49       		.uleb128 0x49
 3197 003a 13       		.uleb128 0x13
 3198 003b 00       		.byte	0
 3199 003c 00       		.byte	0
 3200 003d 06       		.uleb128 0x6
 3201 003e 13       		.uleb128 0x13
 3202 003f 01       		.byte	0x1
 3203 0040 0B       		.uleb128 0xb
 3204 0041 0B       		.uleb128 0xb
 3205 0042 3A       		.uleb128 0x3a
 3206 0043 0B       		.uleb128 0xb
 3207 0044 3B       		.uleb128 0x3b
 3208 0045 0B       		.uleb128 0xb
 3209 0046 01       		.uleb128 0x1
 3210 0047 13       		.uleb128 0x13
 3211 0048 00       		.byte	0
 3212 0049 00       		.byte	0
 3213 004a 07       		.uleb128 0x7
 3214 004b 0D       		.uleb128 0xd
 3215 004c 00       		.byte	0
 3216 004d 03       		.uleb128 0x3
 3217 004e 0E       		.uleb128 0xe
 3218 004f 3A       		.uleb128 0x3a
 3219 0050 0B       		.uleb128 0xb
 3220 0051 3B       		.uleb128 0x3b
 3221 0052 0B       		.uleb128 0xb
 3222 0053 49       		.uleb128 0x49
 3223 0054 13       		.uleb128 0x13
 3224 0055 38       		.uleb128 0x38
ARM GAS  C:\Users\User\AppData\Local\Temp\ccieNkfn.s 			page 83


 3225 0056 0B       		.uleb128 0xb
 3226 0057 00       		.byte	0
 3227 0058 00       		.byte	0
 3228 0059 08       		.uleb128 0x8
 3229 005a 16       		.uleb128 0x16
 3230 005b 00       		.byte	0
 3231 005c 03       		.uleb128 0x3
 3232 005d 0E       		.uleb128 0xe
 3233 005e 3A       		.uleb128 0x3a
 3234 005f 0B       		.uleb128 0xb
 3235 0060 3B       		.uleb128 0x3b
 3236 0061 0B       		.uleb128 0xb
 3237 0062 49       		.uleb128 0x49
 3238 0063 13       		.uleb128 0x13
 3239 0064 00       		.byte	0
 3240 0065 00       		.byte	0
 3241 0066 09       		.uleb128 0x9
 3242 0067 0F       		.uleb128 0xf
 3243 0068 00       		.byte	0
 3244 0069 0B       		.uleb128 0xb
 3245 006a 0B       		.uleb128 0xb
 3246 006b 49       		.uleb128 0x49
 3247 006c 13       		.uleb128 0x13
 3248 006d 00       		.byte	0
 3249 006e 00       		.byte	0
 3250 006f 0A       		.uleb128 0xa
 3251 0070 0D       		.uleb128 0xd
 3252 0071 00       		.byte	0
 3253 0072 03       		.uleb128 0x3
 3254 0073 08       		.uleb128 0x8
 3255 0074 3A       		.uleb128 0x3a
 3256 0075 0B       		.uleb128 0xb
 3257 0076 3B       		.uleb128 0x3b
 3258 0077 0B       		.uleb128 0xb
 3259 0078 49       		.uleb128 0x49
 3260 0079 13       		.uleb128 0x13
 3261 007a 38       		.uleb128 0x38
 3262 007b 0B       		.uleb128 0xb
 3263 007c 00       		.byte	0
 3264 007d 00       		.byte	0
 3265 007e 0B       		.uleb128 0xb
 3266 007f 26       		.uleb128 0x26
 3267 0080 00       		.byte	0
 3268 0081 00       		.byte	0
 3269 0082 00       		.byte	0
 3270 0083 0C       		.uleb128 0xc
 3271 0084 01       		.uleb128 0x1
 3272 0085 01       		.byte	0x1
 3273 0086 49       		.uleb128 0x49
 3274 0087 13       		.uleb128 0x13
 3275 0088 01       		.uleb128 0x1
 3276 0089 13       		.uleb128 0x13
 3277 008a 00       		.byte	0
 3278 008b 00       		.byte	0
 3279 008c 0D       		.uleb128 0xd
 3280 008d 21       		.uleb128 0x21
 3281 008e 00       		.byte	0
ARM GAS  C:\Users\User\AppData\Local\Temp\ccieNkfn.s 			page 84


 3282 008f 49       		.uleb128 0x49
 3283 0090 13       		.uleb128 0x13
 3284 0091 2F       		.uleb128 0x2f
 3285 0092 0B       		.uleb128 0xb
 3286 0093 00       		.byte	0
 3287 0094 00       		.byte	0
 3288 0095 0E       		.uleb128 0xe
 3289 0096 13       		.uleb128 0x13
 3290 0097 01       		.byte	0x1
 3291 0098 0B       		.uleb128 0xb
 3292 0099 0B       		.uleb128 0xb
 3293 009a 3A       		.uleb128 0x3a
 3294 009b 0B       		.uleb128 0xb
 3295 009c 3B       		.uleb128 0x3b
 3296 009d 05       		.uleb128 0x5
 3297 009e 01       		.uleb128 0x1
 3298 009f 13       		.uleb128 0x13
 3299 00a0 00       		.byte	0
 3300 00a1 00       		.byte	0
 3301 00a2 0F       		.uleb128 0xf
 3302 00a3 0D       		.uleb128 0xd
 3303 00a4 00       		.byte	0
 3304 00a5 03       		.uleb128 0x3
 3305 00a6 0E       		.uleb128 0xe
 3306 00a7 3A       		.uleb128 0x3a
 3307 00a8 0B       		.uleb128 0xb
 3308 00a9 3B       		.uleb128 0x3b
 3309 00aa 05       		.uleb128 0x5
 3310 00ab 49       		.uleb128 0x49
 3311 00ac 13       		.uleb128 0x13
 3312 00ad 38       		.uleb128 0x38
 3313 00ae 0B       		.uleb128 0xb
 3314 00af 00       		.byte	0
 3315 00b0 00       		.byte	0
 3316 00b1 10       		.uleb128 0x10
 3317 00b2 0D       		.uleb128 0xd
 3318 00b3 00       		.byte	0
 3319 00b4 03       		.uleb128 0x3
 3320 00b5 08       		.uleb128 0x8
 3321 00b6 3A       		.uleb128 0x3a
 3322 00b7 0B       		.uleb128 0xb
 3323 00b8 3B       		.uleb128 0x3b
 3324 00b9 05       		.uleb128 0x5
 3325 00ba 49       		.uleb128 0x49
 3326 00bb 13       		.uleb128 0x13
 3327 00bc 38       		.uleb128 0x38
 3328 00bd 0B       		.uleb128 0xb
 3329 00be 00       		.byte	0
 3330 00bf 00       		.byte	0
 3331 00c0 11       		.uleb128 0x11
 3332 00c1 13       		.uleb128 0x13
 3333 00c2 01       		.byte	0x1
 3334 00c3 0B       		.uleb128 0xb
 3335 00c4 05       		.uleb128 0x5
 3336 00c5 3A       		.uleb128 0x3a
 3337 00c6 0B       		.uleb128 0xb
 3338 00c7 3B       		.uleb128 0x3b
ARM GAS  C:\Users\User\AppData\Local\Temp\ccieNkfn.s 			page 85


 3339 00c8 05       		.uleb128 0x5
 3340 00c9 01       		.uleb128 0x1
 3341 00ca 13       		.uleb128 0x13
 3342 00cb 00       		.byte	0
 3343 00cc 00       		.byte	0
 3344 00cd 12       		.uleb128 0x12
 3345 00ce 2E       		.uleb128 0x2e
 3346 00cf 01       		.byte	0x1
 3347 00d0 3F       		.uleb128 0x3f
 3348 00d1 19       		.uleb128 0x19
 3349 00d2 03       		.uleb128 0x3
 3350 00d3 0E       		.uleb128 0xe
 3351 00d4 3A       		.uleb128 0x3a
 3352 00d5 0B       		.uleb128 0xb
 3353 00d6 3B       		.uleb128 0x3b
 3354 00d7 05       		.uleb128 0x5
 3355 00d8 27       		.uleb128 0x27
 3356 00d9 19       		.uleb128 0x19
 3357 00da 11       		.uleb128 0x11
 3358 00db 01       		.uleb128 0x1
 3359 00dc 12       		.uleb128 0x12
 3360 00dd 06       		.uleb128 0x6
 3361 00de 40       		.uleb128 0x40
 3362 00df 18       		.uleb128 0x18
 3363 00e0 9742     		.uleb128 0x2117
 3364 00e2 19       		.uleb128 0x19
 3365 00e3 01       		.uleb128 0x1
 3366 00e4 13       		.uleb128 0x13
 3367 00e5 00       		.byte	0
 3368 00e6 00       		.byte	0
 3369 00e7 13       		.uleb128 0x13
 3370 00e8 34       		.uleb128 0x34
 3371 00e9 00       		.byte	0
 3372 00ea 03       		.uleb128 0x3
 3373 00eb 08       		.uleb128 0x8
 3374 00ec 3A       		.uleb128 0x3a
 3375 00ed 0B       		.uleb128 0xb
 3376 00ee 3B       		.uleb128 0x3b
 3377 00ef 05       		.uleb128 0x5
 3378 00f0 49       		.uleb128 0x49
 3379 00f1 13       		.uleb128 0x13
 3380 00f2 02       		.uleb128 0x2
 3381 00f3 17       		.uleb128 0x17
 3382 00f4 00       		.byte	0
 3383 00f5 00       		.byte	0
 3384 00f6 14       		.uleb128 0x14
 3385 00f7 2E       		.uleb128 0x2e
 3386 00f8 01       		.byte	0x1
 3387 00f9 3F       		.uleb128 0x3f
 3388 00fa 19       		.uleb128 0x19
 3389 00fb 03       		.uleb128 0x3
 3390 00fc 0E       		.uleb128 0xe
 3391 00fd 3A       		.uleb128 0x3a
 3392 00fe 0B       		.uleb128 0xb
 3393 00ff 3B       		.uleb128 0x3b
 3394 0100 05       		.uleb128 0x5
 3395 0101 27       		.uleb128 0x27
ARM GAS  C:\Users\User\AppData\Local\Temp\ccieNkfn.s 			page 86


 3396 0102 19       		.uleb128 0x19
 3397 0103 49       		.uleb128 0x49
 3398 0104 13       		.uleb128 0x13
 3399 0105 11       		.uleb128 0x11
 3400 0106 01       		.uleb128 0x1
 3401 0107 12       		.uleb128 0x12
 3402 0108 06       		.uleb128 0x6
 3403 0109 40       		.uleb128 0x40
 3404 010a 18       		.uleb128 0x18
 3405 010b 9742     		.uleb128 0x2117
 3406 010d 19       		.uleb128 0x19
 3407 010e 01       		.uleb128 0x1
 3408 010f 13       		.uleb128 0x13
 3409 0110 00       		.byte	0
 3410 0111 00       		.byte	0
 3411 0112 15       		.uleb128 0x15
 3412 0113 05       		.uleb128 0x5
 3413 0114 00       		.byte	0
 3414 0115 03       		.uleb128 0x3
 3415 0116 0E       		.uleb128 0xe
 3416 0117 3A       		.uleb128 0x3a
 3417 0118 0B       		.uleb128 0xb
 3418 0119 3B       		.uleb128 0x3b
 3419 011a 05       		.uleb128 0x5
 3420 011b 49       		.uleb128 0x49
 3421 011c 13       		.uleb128 0x13
 3422 011d 02       		.uleb128 0x2
 3423 011e 17       		.uleb128 0x17
 3424 011f 00       		.byte	0
 3425 0120 00       		.byte	0
 3426 0121 16       		.uleb128 0x16
 3427 0122 34       		.uleb128 0x34
 3428 0123 00       		.byte	0
 3429 0124 03       		.uleb128 0x3
 3430 0125 0E       		.uleb128 0xe
 3431 0126 3A       		.uleb128 0x3a
 3432 0127 0B       		.uleb128 0xb
 3433 0128 3B       		.uleb128 0x3b
 3434 0129 05       		.uleb128 0x5
 3435 012a 49       		.uleb128 0x49
 3436 012b 13       		.uleb128 0x13
 3437 012c 02       		.uleb128 0x2
 3438 012d 17       		.uleb128 0x17
 3439 012e 00       		.byte	0
 3440 012f 00       		.byte	0
 3441 0130 17       		.uleb128 0x17
 3442 0131 26       		.uleb128 0x26
 3443 0132 00       		.byte	0
 3444 0133 49       		.uleb128 0x49
 3445 0134 13       		.uleb128 0x13
 3446 0135 00       		.byte	0
 3447 0136 00       		.byte	0
 3448 0137 18       		.uleb128 0x18
 3449 0138 898201   		.uleb128 0x4109
 3450 013b 00       		.byte	0
 3451 013c 11       		.uleb128 0x11
 3452 013d 01       		.uleb128 0x1
ARM GAS  C:\Users\User\AppData\Local\Temp\ccieNkfn.s 			page 87


 3453 013e 31       		.uleb128 0x31
 3454 013f 13       		.uleb128 0x13
 3455 0140 00       		.byte	0
 3456 0141 00       		.byte	0
 3457 0142 19       		.uleb128 0x19
 3458 0143 2E       		.uleb128 0x2e
 3459 0144 00       		.byte	0
 3460 0145 3F       		.uleb128 0x3f
 3461 0146 19       		.uleb128 0x19
 3462 0147 03       		.uleb128 0x3
 3463 0148 0E       		.uleb128 0xe
 3464 0149 3A       		.uleb128 0x3a
 3465 014a 0B       		.uleb128 0xb
 3466 014b 3B       		.uleb128 0x3b
 3467 014c 05       		.uleb128 0x5
 3468 014d 27       		.uleb128 0x27
 3469 014e 19       		.uleb128 0x19
 3470 014f 49       		.uleb128 0x49
 3471 0150 13       		.uleb128 0x13
 3472 0151 11       		.uleb128 0x11
 3473 0152 01       		.uleb128 0x1
 3474 0153 12       		.uleb128 0x12
 3475 0154 06       		.uleb128 0x6
 3476 0155 40       		.uleb128 0x40
 3477 0156 18       		.uleb128 0x18
 3478 0157 9742     		.uleb128 0x2117
 3479 0159 19       		.uleb128 0x19
 3480 015a 00       		.byte	0
 3481 015b 00       		.byte	0
 3482 015c 1A       		.uleb128 0x1a
 3483 015d 2E       		.uleb128 0x2e
 3484 015e 01       		.byte	0x1
 3485 015f 3F       		.uleb128 0x3f
 3486 0160 19       		.uleb128 0x19
 3487 0161 03       		.uleb128 0x3
 3488 0162 0E       		.uleb128 0xe
 3489 0163 3A       		.uleb128 0x3a
 3490 0164 0B       		.uleb128 0xb
 3491 0165 3B       		.uleb128 0x3b
 3492 0166 0B       		.uleb128 0xb
 3493 0167 27       		.uleb128 0x27
 3494 0168 19       		.uleb128 0x19
 3495 0169 49       		.uleb128 0x49
 3496 016a 13       		.uleb128 0x13
 3497 016b 11       		.uleb128 0x11
 3498 016c 01       		.uleb128 0x1
 3499 016d 12       		.uleb128 0x12
 3500 016e 06       		.uleb128 0x6
 3501 016f 40       		.uleb128 0x40
 3502 0170 18       		.uleb128 0x18
 3503 0171 9742     		.uleb128 0x2117
 3504 0173 19       		.uleb128 0x19
 3505 0174 01       		.uleb128 0x1
 3506 0175 13       		.uleb128 0x13
 3507 0176 00       		.byte	0
 3508 0177 00       		.byte	0
 3509 0178 1B       		.uleb128 0x1b
ARM GAS  C:\Users\User\AppData\Local\Temp\ccieNkfn.s 			page 88


 3510 0179 34       		.uleb128 0x34
 3511 017a 00       		.byte	0
 3512 017b 03       		.uleb128 0x3
 3513 017c 0E       		.uleb128 0xe
 3514 017d 3A       		.uleb128 0x3a
 3515 017e 0B       		.uleb128 0xb
 3516 017f 3B       		.uleb128 0x3b
 3517 0180 0B       		.uleb128 0xb
 3518 0181 49       		.uleb128 0x49
 3519 0182 13       		.uleb128 0x13
 3520 0183 02       		.uleb128 0x2
 3521 0184 17       		.uleb128 0x17
 3522 0185 00       		.byte	0
 3523 0186 00       		.byte	0
 3524 0187 1C       		.uleb128 0x1c
 3525 0188 34       		.uleb128 0x34
 3526 0189 00       		.byte	0
 3527 018a 03       		.uleb128 0x3
 3528 018b 0E       		.uleb128 0xe
 3529 018c 3A       		.uleb128 0x3a
 3530 018d 0B       		.uleb128 0xb
 3531 018e 3B       		.uleb128 0x3b
 3532 018f 0B       		.uleb128 0xb
 3533 0190 49       		.uleb128 0x49
 3534 0191 13       		.uleb128 0x13
 3535 0192 02       		.uleb128 0x2
 3536 0193 18       		.uleb128 0x18
 3537 0194 00       		.byte	0
 3538 0195 00       		.byte	0
 3539 0196 1D       		.uleb128 0x1d
 3540 0197 898201   		.uleb128 0x4109
 3541 019a 01       		.byte	0x1
 3542 019b 11       		.uleb128 0x11
 3543 019c 01       		.uleb128 0x1
 3544 019d 31       		.uleb128 0x31
 3545 019e 13       		.uleb128 0x13
 3546 019f 01       		.uleb128 0x1
 3547 01a0 13       		.uleb128 0x13
 3548 01a1 00       		.byte	0
 3549 01a2 00       		.byte	0
 3550 01a3 1E       		.uleb128 0x1e
 3551 01a4 8A8201   		.uleb128 0x410a
 3552 01a7 00       		.byte	0
 3553 01a8 02       		.uleb128 0x2
 3554 01a9 18       		.uleb128 0x18
 3555 01aa 9142     		.uleb128 0x2111
 3556 01ac 18       		.uleb128 0x18
 3557 01ad 00       		.byte	0
 3558 01ae 00       		.byte	0
 3559 01af 1F       		.uleb128 0x1f
 3560 01b0 34       		.uleb128 0x34
 3561 01b1 00       		.byte	0
 3562 01b2 03       		.uleb128 0x3
 3563 01b3 0E       		.uleb128 0xe
 3564 01b4 3A       		.uleb128 0x3a
 3565 01b5 0B       		.uleb128 0xb
 3566 01b6 3B       		.uleb128 0x3b
ARM GAS  C:\Users\User\AppData\Local\Temp\ccieNkfn.s 			page 89


 3567 01b7 05       		.uleb128 0x5
 3568 01b8 49       		.uleb128 0x49
 3569 01b9 13       		.uleb128 0x13
 3570 01ba 3F       		.uleb128 0x3f
 3571 01bb 19       		.uleb128 0x19
 3572 01bc 3C       		.uleb128 0x3c
 3573 01bd 19       		.uleb128 0x19
 3574 01be 00       		.byte	0
 3575 01bf 00       		.byte	0
 3576 01c0 20       		.uleb128 0x20
 3577 01c1 34       		.uleb128 0x34
 3578 01c2 00       		.byte	0
 3579 01c3 03       		.uleb128 0x3
 3580 01c4 0E       		.uleb128 0xe
 3581 01c5 3A       		.uleb128 0x3a
 3582 01c6 0B       		.uleb128 0xb
 3583 01c7 3B       		.uleb128 0x3b
 3584 01c8 0B       		.uleb128 0xb
 3585 01c9 49       		.uleb128 0x49
 3586 01ca 13       		.uleb128 0x13
 3587 01cb 3F       		.uleb128 0x3f
 3588 01cc 19       		.uleb128 0x19
 3589 01cd 3C       		.uleb128 0x3c
 3590 01ce 19       		.uleb128 0x19
 3591 01cf 00       		.byte	0
 3592 01d0 00       		.byte	0
 3593 01d1 21       		.uleb128 0x21
 3594 01d2 2E       		.uleb128 0x2e
 3595 01d3 00       		.byte	0
 3596 01d4 3F       		.uleb128 0x3f
 3597 01d5 19       		.uleb128 0x19
 3598 01d6 3C       		.uleb128 0x3c
 3599 01d7 19       		.uleb128 0x19
 3600 01d8 6E       		.uleb128 0x6e
 3601 01d9 0E       		.uleb128 0xe
 3602 01da 03       		.uleb128 0x3
 3603 01db 0E       		.uleb128 0xe
 3604 01dc 3A       		.uleb128 0x3a
 3605 01dd 0B       		.uleb128 0xb
 3606 01de 3B       		.uleb128 0x3b
 3607 01df 0B       		.uleb128 0xb
 3608 01e0 00       		.byte	0
 3609 01e1 00       		.byte	0
 3610 01e2 22       		.uleb128 0x22
 3611 01e3 2E       		.uleb128 0x2e
 3612 01e4 00       		.byte	0
 3613 01e5 3F       		.uleb128 0x3f
 3614 01e6 19       		.uleb128 0x19
 3615 01e7 3C       		.uleb128 0x3c
 3616 01e8 19       		.uleb128 0x19
 3617 01e9 6E       		.uleb128 0x6e
 3618 01ea 0E       		.uleb128 0xe
 3619 01eb 03       		.uleb128 0x3
 3620 01ec 0E       		.uleb128 0xe
 3621 01ed 3A       		.uleb128 0x3a
 3622 01ee 0B       		.uleb128 0xb
 3623 01ef 3B       		.uleb128 0x3b
ARM GAS  C:\Users\User\AppData\Local\Temp\ccieNkfn.s 			page 90


 3624 01f0 05       		.uleb128 0x5
 3625 01f1 00       		.byte	0
 3626 01f2 00       		.byte	0
 3627 01f3 00       		.byte	0
 3628              		.section	.debug_loc,"",%progbits
 3629              	.Ldebug_loc0:
 3630              	.LLST0:
 3631 0000 02000000 		.4byte	.LVL0
 3632 0004 06000000 		.4byte	.LVL1
 3633 0008 0200     		.2byte	0x2
 3634 000a 31       		.byte	0x31
 3635 000b 9F       		.byte	0x9f
 3636 000c 06000000 		.4byte	.LVL1
 3637 0010 80000000 		.4byte	.LVL3
 3638 0014 0100     		.2byte	0x1
 3639 0016 53       		.byte	0x53
 3640 0017 00000000 		.4byte	0
 3641 001b 00000000 		.4byte	0
 3642              	.LLST1:
 3643 001f 00000000 		.4byte	.LVL4
 3644 0023 04000000 		.4byte	.LVL5
 3645 0027 0200     		.2byte	0x2
 3646 0029 31       		.byte	0x31
 3647 002a 9F       		.byte	0x9f
 3648 002b 04000000 		.4byte	.LVL5
 3649 002f 36000000 		.4byte	.LVL6
 3650 0033 0100     		.2byte	0x1
 3651 0035 53       		.byte	0x53
 3652 0036 38000000 		.4byte	.LVL7
 3653 003a 44000000 		.4byte	.LFE3
 3654 003e 0100     		.2byte	0x1
 3655 0040 53       		.byte	0x53
 3656 0041 00000000 		.4byte	0
 3657 0045 00000000 		.4byte	0
 3658              	.LLST2:
 3659 0049 00000000 		.4byte	.LVL8
 3660 004d 14000000 		.4byte	.LVL10
 3661 0051 0100     		.2byte	0x1
 3662 0053 50       		.byte	0x50
 3663 0054 14000000 		.4byte	.LVL10
 3664 0058 1C000000 		.4byte	.LVL12
 3665 005c 0400     		.2byte	0x4
 3666 005e F3       		.byte	0xf3
 3667 005f 01       		.uleb128 0x1
 3668 0060 50       		.byte	0x50
 3669 0061 9F       		.byte	0x9f
 3670 0062 1C000000 		.4byte	.LVL12
 3671 0066 1E000000 		.4byte	.LVL13
 3672 006a 0100     		.2byte	0x1
 3673 006c 50       		.byte	0x50
 3674 006d 1E000000 		.4byte	.LVL13
 3675 0071 28000000 		.4byte	.LFE6
 3676 0075 0400     		.2byte	0x4
 3677 0077 F3       		.byte	0xf3
 3678 0078 01       		.uleb128 0x1
 3679 0079 50       		.byte	0x50
 3680 007a 9F       		.byte	0x9f
ARM GAS  C:\Users\User\AppData\Local\Temp\ccieNkfn.s 			page 91


 3681 007b 00000000 		.4byte	0
 3682 007f 00000000 		.4byte	0
 3683              	.LLST3:
 3684 0083 0C000000 		.4byte	.LVL9
 3685 0087 1A000000 		.4byte	.LVL11
 3686 008b 0300     		.2byte	0x3
 3687 008d 73       		.byte	0x73
 3688 008e 10       		.sleb128 16
 3689 008f 9F       		.byte	0x9f
 3690 0090 1A000000 		.4byte	.LVL11
 3691 0094 1C000000 		.4byte	.LVL12
 3692 0098 0100     		.2byte	0x1
 3693 009a 50       		.byte	0x50
 3694 009b 1C000000 		.4byte	.LVL12
 3695 009f 1E000000 		.4byte	.LVL13
 3696 00a3 0300     		.2byte	0x3
 3697 00a5 73       		.byte	0x73
 3698 00a6 10       		.sleb128 16
 3699 00a7 9F       		.byte	0x9f
 3700 00a8 1E000000 		.4byte	.LVL13
 3701 00ac 28000000 		.4byte	.LFE6
 3702 00b0 0100     		.2byte	0x1
 3703 00b2 50       		.byte	0x50
 3704 00b3 00000000 		.4byte	0
 3705 00b7 00000000 		.4byte	0
 3706              	.LLST4:
 3707 00bb 20000000 		.4byte	.LVL15
 3708 00bf FE000000 		.4byte	.LVL29
 3709 00c3 0100     		.2byte	0x1
 3710 00c5 54       		.byte	0x54
 3711 00c6 00000000 		.4byte	0
 3712 00ca 00000000 		.4byte	0
 3713              	.LLST5:
 3714 00ce 44000000 		.4byte	.LVL20
 3715 00d2 CA000000 		.4byte	.LVL25
 3716 00d6 0100     		.2byte	0x1
 3717 00d8 51       		.byte	0x51
 3718 00d9 00000000 		.4byte	0
 3719 00dd 00000000 		.4byte	0
 3720              	.LLST6:
 3721 00e1 4C000000 		.4byte	.LVL21
 3722 00e5 52000000 		.4byte	.LVL22
 3723 00e9 0100     		.2byte	0x1
 3724 00eb 56       		.byte	0x56
 3725 00ec 52000000 		.4byte	.LVL22
 3726 00f0 A2000000 		.4byte	.LVL23
 3727 00f4 0100     		.2byte	0x1
 3728 00f6 5C       		.byte	0x5c
 3729 00f7 A2000000 		.4byte	.LVL23
 3730 00fb AE000000 		.4byte	.LVL24
 3731 00ff 0100     		.2byte	0x1
 3732 0101 55       		.byte	0x55
 3733 0102 AE000000 		.4byte	.LVL24
 3734 0106 F6000000 		.4byte	.LVL26
 3735 010a 0100     		.2byte	0x1
 3736 010c 5C       		.byte	0x5c
 3737 010d 00000000 		.4byte	0
ARM GAS  C:\Users\User\AppData\Local\Temp\ccieNkfn.s 			page 92


 3738 0111 00000000 		.4byte	0
 3739              	.LLST7:
 3740 0115 28000000 		.4byte	.LVL18
 3741 0119 2C000000 		.4byte	.LVL19
 3742 011d 0200     		.2byte	0x2
 3743 011f 30       		.byte	0x30
 3744 0120 9F       		.byte	0x9f
 3745 0121 2C000000 		.4byte	.LVL19
 3746 0125 FE000000 		.4byte	.LVL29
 3747 0129 0100     		.2byte	0x1
 3748 012b 52       		.byte	0x52
 3749 012c 00000000 		.4byte	0
 3750 0130 00000000 		.4byte	0
 3751              	.LLST8:
 3752 0134 28000000 		.4byte	.LVL18
 3753 0138 FE000000 		.4byte	.LVL29
 3754 013c 0100     		.2byte	0x1
 3755 013e 50       		.byte	0x50
 3756 013f 00000000 		.4byte	0
 3757 0143 00000000 		.4byte	0
 3758              	.LLST9:
 3759 0147 1E000000 		.4byte	.LVL14
 3760 014b 26000000 		.4byte	.LVL17
 3761 014f 0300     		.2byte	0x3
 3762 0151 70       		.byte	0x70
 3763 0152 08       		.sleb128 8
 3764 0153 9F       		.byte	0x9f
 3765 0154 00000000 		.4byte	0
 3766 0158 00000000 		.4byte	0
 3767              	.LLST10:
 3768 015c 22000000 		.4byte	.LVL16
 3769 0160 FE000000 		.4byte	.LVL29
 3770 0164 0100     		.2byte	0x1
 3771 0166 53       		.byte	0x53
 3772 0167 00000000 		.4byte	0
 3773 016b 00000000 		.4byte	0
 3774              	.LLST11:
 3775 016f 0E000000 		.4byte	.LVL30
 3776 0173 1E000000 		.4byte	.LVL35
 3777 0177 0100     		.2byte	0x1
 3778 0179 50       		.byte	0x50
 3779 017a 20000000 		.4byte	.LVL36
 3780 017e 22000000 		.4byte	.LVL37
 3781 0182 0100     		.2byte	0x1
 3782 0184 50       		.byte	0x50
 3783 0185 00000000 		.4byte	0
 3784 0189 00000000 		.4byte	0
 3785              	.LLST12:
 3786 018d 1E000000 		.4byte	.LVL35
 3787 0191 20000000 		.4byte	.LVL36
 3788 0195 0100     		.2byte	0x1
 3789 0197 50       		.byte	0x50
 3790 0198 22000000 		.4byte	.LVL37
 3791 019c 28000000 		.4byte	.LFE8
 3792 01a0 0100     		.2byte	0x1
 3793 01a2 50       		.byte	0x50
 3794 01a3 00000000 		.4byte	0
ARM GAS  C:\Users\User\AppData\Local\Temp\ccieNkfn.s 			page 93


 3795 01a7 00000000 		.4byte	0
 3796              	.LLST13:
 3797 01ab 16000000 		.4byte	.LVL31
 3798 01af 18000000 		.4byte	.LVL32
 3799 01b3 0100     		.2byte	0x1
 3800 01b5 53       		.byte	0x53
 3801 01b6 18000000 		.4byte	.LVL32
 3802 01ba 1A000000 		.4byte	.LVL33
 3803 01be 0300     		.2byte	0x3
 3804 01c0 73       		.byte	0x73
 3805 01c1 7E       		.sleb128 -2
 3806 01c2 9F       		.byte	0x9f
 3807 01c3 1A000000 		.4byte	.LVL33
 3808 01c7 1C000000 		.4byte	.LVL34
 3809 01cb 0500     		.2byte	0x5
 3810 01cd 70       		.byte	0x70
 3811 01ce 04       		.sleb128 4
 3812 01cf 06       		.byte	0x6
 3813 01d0 23       		.byte	0x23
 3814 01d1 04       		.uleb128 0x4
 3815 01d2 00000000 		.4byte	0
 3816 01d6 00000000 		.4byte	0
 3817              	.LLST14:
 3818 01da 00000000 		.4byte	.LVL38
 3819 01de 62000000 		.4byte	.LVL49
 3820 01e2 0100     		.2byte	0x1
 3821 01e4 50       		.byte	0x50
 3822 01e5 62000000 		.4byte	.LVL49
 3823 01e9 D8010000 		.4byte	.LFE4
 3824 01ed 0400     		.2byte	0x4
 3825 01ef F3       		.byte	0xf3
 3826 01f0 01       		.uleb128 0x1
 3827 01f1 50       		.byte	0x50
 3828 01f2 9F       		.byte	0x9f
 3829 01f3 00000000 		.4byte	0
 3830 01f7 00000000 		.4byte	0
 3831              	.LLST15:
 3832 01fb 0A000000 		.4byte	.LVL39
 3833 01ff 0E000000 		.4byte	.LVL40
 3834 0203 0200     		.2byte	0x2
 3835 0205 30       		.byte	0x30
 3836 0206 9F       		.byte	0x9f
 3837 0207 0E000000 		.4byte	.LVL40
 3838 020b 32000000 		.4byte	.LVL41
 3839 020f 0100     		.2byte	0x1
 3840 0211 53       		.byte	0x53
 3841 0212 34000000 		.4byte	.LVL42
 3842 0216 3E000000 		.4byte	.LVL43
 3843 021a 0100     		.2byte	0x1
 3844 021c 53       		.byte	0x53
 3845 021d 4E000000 		.4byte	.LVL46
 3846 0221 50000000 		.4byte	.LVL47
 3847 0225 0100     		.2byte	0x1
 3848 0227 53       		.byte	0x53
 3849 0228 90000000 		.4byte	.LVL53
 3850 022c 92010000 		.4byte	.LVL78
 3851 0230 0100     		.2byte	0x1
ARM GAS  C:\Users\User\AppData\Local\Temp\ccieNkfn.s 			page 94


 3852 0232 56       		.byte	0x56
 3853 0233 92010000 		.4byte	.LVL78
 3854 0237 98010000 		.4byte	.LVL79
 3855 023b 0200     		.2byte	0x2
 3856 023d 31       		.byte	0x31
 3857 023e 9F       		.byte	0x9f
 3858 023f 98010000 		.4byte	.LVL79
 3859 0243 AC010000 		.4byte	.LVL82
 3860 0247 0100     		.2byte	0x1
 3861 0249 53       		.byte	0x53
 3862 024a AE010000 		.4byte	.LVL83
 3863 024e B5010000 		.4byte	.LVL84-1
 3864 0252 0100     		.2byte	0x1
 3865 0254 53       		.byte	0x53
 3866 0255 00000000 		.4byte	0
 3867 0259 00000000 		.4byte	0
 3868              	.LLST16:
 3869 025d 98000000 		.4byte	.LVL55
 3870 0261 9C000000 		.4byte	.LVL56
 3871 0265 0200     		.2byte	0x2
 3872 0267 30       		.byte	0x30
 3873 0268 9F       		.byte	0x9f
 3874 0269 9C000000 		.4byte	.LVL56
 3875 026d 56010000 		.4byte	.LVL68
 3876 0271 0100     		.2byte	0x1
 3877 0273 53       		.byte	0x53
 3878 0274 58010000 		.4byte	.LVL69
 3879 0278 60010000 		.4byte	.LVL71
 3880 027c 0100     		.2byte	0x1
 3881 027e 53       		.byte	0x53
 3882 027f 00000000 		.4byte	0
 3883 0283 00000000 		.4byte	0
 3884              	.LLST17:
 3885 0287 3E000000 		.4byte	.LVL43
 3886 028b 4A000000 		.4byte	.LVL44
 3887 028f 0100     		.2byte	0x1
 3888 0291 53       		.byte	0x53
 3889 0292 4C000000 		.4byte	.LVL45
 3890 0296 4E000000 		.4byte	.LVL46
 3891 029a 0100     		.2byte	0x1
 3892 029c 53       		.byte	0x53
 3893 029d 50000000 		.4byte	.LVL47
 3894 02a1 54000000 		.4byte	.LVL48
 3895 02a5 0100     		.2byte	0x1
 3896 02a7 53       		.byte	0x53
 3897 02a8 90000000 		.4byte	.LVL53
 3898 02ac 94000000 		.4byte	.LVL54
 3899 02b0 0200     		.2byte	0x2
 3900 02b2 31       		.byte	0x31
 3901 02b3 9F       		.byte	0x9f
 3902 02b4 94000000 		.4byte	.LVL54
 3903 02b8 5E010000 		.4byte	.LVL70
 3904 02bc 0100     		.2byte	0x1
 3905 02be 54       		.byte	0x54
 3906 02bf 60010000 		.4byte	.LVL71
 3907 02c3 68010000 		.4byte	.LVL72
 3908 02c7 0100     		.2byte	0x1
ARM GAS  C:\Users\User\AppData\Local\Temp\ccieNkfn.s 			page 95


 3909 02c9 54       		.byte	0x54
 3910 02ca 68010000 		.4byte	.LVL72
 3911 02ce 6C010000 		.4byte	.LVL73
 3912 02d2 0200     		.2byte	0x2
 3913 02d4 30       		.byte	0x30
 3914 02d5 9F       		.byte	0x9f
 3915 02d6 6C010000 		.4byte	.LVL73
 3916 02da 84010000 		.4byte	.LVL75
 3917 02de 0100     		.2byte	0x1
 3918 02e0 52       		.byte	0x52
 3919 02e1 86010000 		.4byte	.LVL76
 3920 02e5 8D010000 		.4byte	.LVL77-1
 3921 02e9 0100     		.2byte	0x1
 3922 02eb 52       		.byte	0x52
 3923 02ec 00000000 		.4byte	0
 3924 02f0 00000000 		.4byte	0
 3925              	.LLST18:
 3926 02f4 00010000 		.4byte	.LVL57
 3927 02f8 0E010000 		.4byte	.LVL58
 3928 02fc 0100     		.2byte	0x1
 3929 02fe 52       		.byte	0x52
 3930 02ff 0E010000 		.4byte	.LVL58
 3931 0303 12010000 		.4byte	.LVL59
 3932 0307 0300     		.2byte	0x3
 3933 0309 72       		.byte	0x72
 3934 030a 7A       		.sleb128 -6
 3935 030b 9F       		.byte	0x9f
 3936 030c 12010000 		.4byte	.LVL59
 3937 0310 14010000 		.4byte	.LVL60
 3938 0314 0100     		.2byte	0x1
 3939 0316 52       		.byte	0x52
 3940 0317 14010000 		.4byte	.LVL60
 3941 031b 26010000 		.4byte	.LVL61
 3942 031f 0700     		.2byte	0x7
 3943 0321 71       		.byte	0x71
 3944 0322 03       		.sleb128 3
 3945 0323 94       		.byte	0x94
 3946 0324 01       		.byte	0x1
 3947 0325 33       		.byte	0x33
 3948 0326 1A       		.byte	0x1a
 3949 0327 9F       		.byte	0x9f
 3950 0328 2E010000 		.4byte	.LVL62
 3951 032c 34010000 		.4byte	.LVL63
 3952 0330 0100     		.2byte	0x1
 3953 0332 52       		.byte	0x52
 3954 0333 34010000 		.4byte	.LVL63
 3955 0337 38010000 		.4byte	.LVL64
 3956 033b 0300     		.2byte	0x3
 3957 033d 72       		.byte	0x72
 3958 033e 7C       		.sleb128 -4
 3959 033f 9F       		.byte	0x9f
 3960 0340 38010000 		.4byte	.LVL64
 3961 0344 3A010000 		.4byte	.LVL65
 3962 0348 0100     		.2byte	0x1
 3963 034a 52       		.byte	0x52
 3964 034b 3A010000 		.4byte	.LVL65
 3965 034f 4C010000 		.4byte	.LVL66
ARM GAS  C:\Users\User\AppData\Local\Temp\ccieNkfn.s 			page 96


 3966 0353 0700     		.2byte	0x7
 3967 0355 71       		.byte	0x71
 3968 0356 03       		.sleb128 3
 3969 0357 94       		.byte	0x94
 3970 0358 01       		.byte	0x1
 3971 0359 33       		.byte	0x33
 3972 035a 1A       		.byte	0x1a
 3973 035b 9F       		.byte	0x9f
 3974 035c 00000000 		.4byte	0
 3975 0360 00000000 		.4byte	0
 3976              	.LLST19:
 3977 0364 6C000000 		.4byte	.LVL51
 3978 0368 94000000 		.4byte	.LVL54
 3979 036c 0200     		.2byte	0x2
 3980 036e 70       		.byte	0x70
 3981 036f 04       		.sleb128 4
 3982 0370 00000000 		.4byte	0
 3983 0374 00000000 		.4byte	0
 3984              	.LLST20:
 3985 0378 0A000000 		.4byte	.LVL39
 3986 037c 98010000 		.4byte	.LVL79
 3987 0380 0200     		.2byte	0x2
 3988 0382 30       		.byte	0x30
 3989 0383 9F       		.byte	0x9f
 3990 0384 98010000 		.4byte	.LVL79
 3991 0388 A8010000 		.4byte	.LVL80
 3992 038c 0100     		.2byte	0x1
 3993 038e 51       		.byte	0x51
 3994 038f A8010000 		.4byte	.LVL80
 3995 0393 AA010000 		.4byte	.LVL81
 3996 0397 0200     		.2byte	0x2
 3997 0399 74       		.byte	0x74
 3998 039a 06       		.sleb128 6
 3999 039b AA010000 		.4byte	.LVL81
 4000 039f B5010000 		.4byte	.LVL84-1
 4001 03a3 0100     		.2byte	0x1
 4002 03a5 51       		.byte	0x51
 4003 03a6 00000000 		.4byte	0
 4004 03aa 00000000 		.4byte	0
 4005              	.LLST21:
 4006 03ae 6C000000 		.4byte	.LVL51
 4007 03b2 8C000000 		.4byte	.LVL52
 4008 03b6 0100     		.2byte	0x1
 4009 03b8 50       		.byte	0x50
 4010 03b9 8C000000 		.4byte	.LVL52
 4011 03bd 94000000 		.4byte	.LVL54
 4012 03c1 0300     		.2byte	0x3
 4013 03c3 70       		.byte	0x70
 4014 03c4 08       		.sleb128 8
 4015 03c5 9F       		.byte	0x9f
 4016 03c6 94000000 		.4byte	.LVL54
 4017 03ca B6010000 		.4byte	.LVL84
 4018 03ce 0300     		.2byte	0x3
 4019 03d0 7A       		.byte	0x7a
 4020 03d1 08       		.sleb128 8
 4021 03d2 9F       		.byte	0x9f
 4022 03d3 00000000 		.4byte	0
ARM GAS  C:\Users\User\AppData\Local\Temp\ccieNkfn.s 			page 97


 4023 03d7 00000000 		.4byte	0
 4024              	.LLST22:
 4025 03db 98000000 		.4byte	.LVL55
 4026 03df 60010000 		.4byte	.LVL71
 4027 03e3 0100     		.2byte	0x1
 4028 03e5 51       		.byte	0x51
 4029 03e6 68010000 		.4byte	.LVL72
 4030 03ea 8D010000 		.4byte	.LVL77-1
 4031 03ee 0100     		.2byte	0x1
 4032 03f0 50       		.byte	0x50
 4033 03f1 00000000 		.4byte	0
 4034 03f5 00000000 		.4byte	0
 4035              	.LLST23:
 4036 03f9 00000000 		.4byte	.LVL85
 4037 03fd 04000000 		.4byte	.LVL86
 4038 0401 0100     		.2byte	0x1
 4039 0403 50       		.byte	0x50
 4040 0404 04000000 		.4byte	.LVL86
 4041 0408 32000000 		.4byte	.LVL87
 4042 040c 0100     		.2byte	0x1
 4043 040e 50       		.byte	0x50
 4044 040f 3E000000 		.4byte	.LVL88
 4045 0413 40000000 		.4byte	.LVL89
 4046 0417 0100     		.2byte	0x1
 4047 0419 50       		.byte	0x50
 4048 041a 00000000 		.4byte	0
 4049 041e 00000000 		.4byte	0
 4050              	.LLST24:
 4051 0422 02000000 		.4byte	.LVL90
 4052 0426 58000000 		.4byte	.LVL95
 4053 042a 0200     		.2byte	0x2
 4054 042c 30       		.byte	0x30
 4055 042d 9F       		.byte	0x9f
 4056 042e 58000000 		.4byte	.LVL95
 4057 0432 5A000000 		.4byte	.LVL96
 4058 0436 0100     		.2byte	0x1
 4059 0438 50       		.byte	0x50
 4060 0439 5A000000 		.4byte	.LVL96
 4061 043d 5C000000 		.4byte	.LVL97
 4062 0441 0200     		.2byte	0x2
 4063 0443 30       		.byte	0x30
 4064 0444 9F       		.byte	0x9f
 4065 0445 5C000000 		.4byte	.LVL97
 4066 0449 6C000000 		.4byte	.LFE10
 4067 044d 0100     		.2byte	0x1
 4068 044f 50       		.byte	0x50
 4069 0450 00000000 		.4byte	0
 4070 0454 00000000 		.4byte	0
 4071              	.LLST25:
 4072 0458 0A000000 		.4byte	.LVL91
 4073 045c 3C000000 		.4byte	.LVL92
 4074 0460 0100     		.2byte	0x1
 4075 0462 53       		.byte	0x53
 4076 0463 48000000 		.4byte	.LVL93
 4077 0467 4A000000 		.4byte	.LVL94
 4078 046b 0100     		.2byte	0x1
 4079 046d 53       		.byte	0x53
ARM GAS  C:\Users\User\AppData\Local\Temp\ccieNkfn.s 			page 98


 4080 046e 5A000000 		.4byte	.LVL96
 4081 0472 5C000000 		.4byte	.LVL97
 4082 0476 0100     		.2byte	0x1
 4083 0478 53       		.byte	0x53
 4084 0479 00000000 		.4byte	0
 4085 047d 00000000 		.4byte	0
 4086              	.LLST26:
 4087 0481 02000000 		.4byte	.LVL98
 4088 0485 9C000000 		.4byte	.LVL107
 4089 0489 0200     		.2byte	0x2
 4090 048b 30       		.byte	0x30
 4091 048c 9F       		.byte	0x9f
 4092 048d 9C000000 		.4byte	.LVL107
 4093 0491 9E000000 		.4byte	.LVL108
 4094 0495 0100     		.2byte	0x1
 4095 0497 50       		.byte	0x50
 4096 0498 9E000000 		.4byte	.LVL108
 4097 049c A0000000 		.4byte	.LVL109
 4098 04a0 0200     		.2byte	0x2
 4099 04a2 30       		.byte	0x30
 4100 04a3 9F       		.byte	0x9f
 4101 04a4 A0000000 		.4byte	.LVL109
 4102 04a8 B0000000 		.4byte	.LFE11
 4103 04ac 0100     		.2byte	0x1
 4104 04ae 50       		.byte	0x50
 4105 04af 00000000 		.4byte	0
 4106 04b3 00000000 		.4byte	0
 4107              	.LLST27:
 4108 04b7 0A000000 		.4byte	.LVL99
 4109 04bb 54000000 		.4byte	.LVL100
 4110 04bf 0100     		.2byte	0x1
 4111 04c1 53       		.byte	0x53
 4112 04c2 60000000 		.4byte	.LVL101
 4113 04c6 62000000 		.4byte	.LVL102
 4114 04ca 0100     		.2byte	0x1
 4115 04cc 53       		.byte	0x53
 4116 04cd 6E000000 		.4byte	.LVL103
 4117 04d1 80000000 		.4byte	.LVL104
 4118 04d5 0100     		.2byte	0x1
 4119 04d7 53       		.byte	0x53
 4120 04d8 8C000000 		.4byte	.LVL105
 4121 04dc 8E000000 		.4byte	.LVL106
 4122 04e0 0100     		.2byte	0x1
 4123 04e2 53       		.byte	0x53
 4124 04e3 9E000000 		.4byte	.LVL108
 4125 04e7 A0000000 		.4byte	.LVL109
 4126 04eb 0100     		.2byte	0x1
 4127 04ed 53       		.byte	0x53
 4128 04ee 00000000 		.4byte	0
 4129 04f2 00000000 		.4byte	0
 4130              	.LLST28:
 4131 04f6 02000000 		.4byte	.LVL110
 4132 04fa 36000000 		.4byte	.LVL116
 4133 04fe 0200     		.2byte	0x2
 4134 0500 30       		.byte	0x30
 4135 0501 9F       		.byte	0x9f
 4136 0502 36000000 		.4byte	.LVL116
ARM GAS  C:\Users\User\AppData\Local\Temp\ccieNkfn.s 			page 99


 4137 0506 3A000000 		.4byte	.LVL117
 4138 050a 0200     		.2byte	0x2
 4139 050c 31       		.byte	0x31
 4140 050d 9F       		.byte	0x9f
 4141 050e 3A000000 		.4byte	.LVL117
 4142 0512 3C000000 		.4byte	.LVL118
 4143 0516 0200     		.2byte	0x2
 4144 0518 30       		.byte	0x30
 4145 0519 9F       		.byte	0x9f
 4146 051a 3C000000 		.4byte	.LVL118
 4147 051e 50000000 		.4byte	.LFE12
 4148 0522 0100     		.2byte	0x1
 4149 0524 50       		.byte	0x50
 4150 0525 00000000 		.4byte	0
 4151 0529 00000000 		.4byte	0
 4152              	.LLST29:
 4153 052d 08000000 		.4byte	.LVL111
 4154 0531 3C000000 		.4byte	.LVL119
 4155 0535 0100     		.2byte	0x1
 4156 0537 55       		.byte	0x55
 4157 0538 00000000 		.4byte	0
 4158 053c 00000000 		.4byte	0
 4159              	.LLST30:
 4160 0540 18000000 		.4byte	.LVL113
 4161 0544 22000000 		.4byte	.LVL114
 4162 0548 0100     		.2byte	0x1
 4163 054a 53       		.byte	0x53
 4164 054b 22000000 		.4byte	.LVL114
 4165 054f 2C000000 		.4byte	.LVL115
 4166 0553 0500     		.2byte	0x5
 4167 0555 70       		.byte	0x70
 4168 0556 04       		.sleb128 4
 4169 0557 06       		.byte	0x6
 4170 0558 23       		.byte	0x23
 4171 0559 04       		.uleb128 0x4
 4172 055a 3A000000 		.4byte	.LVL117
 4173 055e 3C000000 		.4byte	.LVL118
 4174 0562 0100     		.2byte	0x1
 4175 0564 53       		.byte	0x53
 4176 0565 00000000 		.4byte	0
 4177 0569 00000000 		.4byte	0
 4178              	.LLST31:
 4179 056d 14000000 		.4byte	.LVL112
 4180 0571 2C000000 		.4byte	.LVL115
 4181 0575 0100     		.2byte	0x1
 4182 0577 50       		.byte	0x50
 4183 0578 3A000000 		.4byte	.LVL117
 4184 057c 3C000000 		.4byte	.LVL118
 4185 0580 0100     		.2byte	0x1
 4186 0582 50       		.byte	0x50
 4187 0583 00000000 		.4byte	0
 4188 0587 00000000 		.4byte	0
 4189              	.LLST32:
 4190 058b 02000000 		.4byte	.LVL120
 4191 058f 46000000 		.4byte	.LVL124
 4192 0593 0200     		.2byte	0x2
 4193 0595 30       		.byte	0x30
ARM GAS  C:\Users\User\AppData\Local\Temp\ccieNkfn.s 			page 100


 4194 0596 9F       		.byte	0x9f
 4195 0597 46000000 		.4byte	.LVL124
 4196 059b 48000000 		.4byte	.LVL125
 4197 059f 0100     		.2byte	0x1
 4198 05a1 50       		.byte	0x50
 4199 05a2 48000000 		.4byte	.LVL125
 4200 05a6 78000000 		.4byte	.LVL127
 4201 05aa 0200     		.2byte	0x2
 4202 05ac 30       		.byte	0x30
 4203 05ad 9F       		.byte	0x9f
 4204 05ae 78000000 		.4byte	.LVL127
 4205 05b2 7A000000 		.4byte	.LVL128
 4206 05b6 0100     		.2byte	0x1
 4207 05b8 50       		.byte	0x50
 4208 05b9 7A000000 		.4byte	.LVL128
 4209 05bd B4000000 		.4byte	.LVL137
 4210 05c1 0200     		.2byte	0x2
 4211 05c3 30       		.byte	0x30
 4212 05c4 9F       		.byte	0x9f
 4213 05c5 B4000000 		.4byte	.LVL137
 4214 05c9 B6000000 		.4byte	.LVL138
 4215 05cd 0100     		.2byte	0x1
 4216 05cf 50       		.byte	0x50
 4217 05d0 B6000000 		.4byte	.LVL138
 4218 05d4 BA000000 		.4byte	.LVL139
 4219 05d8 0200     		.2byte	0x2
 4220 05da 30       		.byte	0x30
 4221 05db 9F       		.byte	0x9f
 4222 05dc BA000000 		.4byte	.LVL139
 4223 05e0 BC000000 		.4byte	.LVL140
 4224 05e4 0100     		.2byte	0x1
 4225 05e6 50       		.byte	0x50
 4226 05e7 BC000000 		.4byte	.LVL140
 4227 05eb F0000000 		.4byte	.LVL142
 4228 05ef 0200     		.2byte	0x2
 4229 05f1 30       		.byte	0x30
 4230 05f2 9F       		.byte	0x9f
 4231 05f3 F0000000 		.4byte	.LVL142
 4232 05f7 F2000000 		.4byte	.LVL143
 4233 05fb 0100     		.2byte	0x1
 4234 05fd 50       		.byte	0x50
 4235 05fe F2000000 		.4byte	.LVL143
 4236 0602 0C010000 		.4byte	.LVL144
 4237 0606 0200     		.2byte	0x2
 4238 0608 30       		.byte	0x30
 4239 0609 9F       		.byte	0x9f
 4240 060a 0C010000 		.4byte	.LVL144
 4241 060e 0E010000 		.4byte	.LVL145
 4242 0612 0100     		.2byte	0x1
 4243 0614 50       		.byte	0x50
 4244 0615 0E010000 		.4byte	.LVL145
 4245 0619 1C010000 		.4byte	.LVL147
 4246 061d 0200     		.2byte	0x2
 4247 061f 30       		.byte	0x30
 4248 0620 9F       		.byte	0x9f
 4249 0621 1C010000 		.4byte	.LVL147
 4250 0625 1E010000 		.4byte	.LVL148
ARM GAS  C:\Users\User\AppData\Local\Temp\ccieNkfn.s 			page 101


 4251 0629 0100     		.2byte	0x1
 4252 062b 50       		.byte	0x50
 4253 062c 1E010000 		.4byte	.LVL148
 4254 0630 32010000 		.4byte	.LVL150
 4255 0634 0200     		.2byte	0x2
 4256 0636 30       		.byte	0x30
 4257 0637 9F       		.byte	0x9f
 4258 0638 32010000 		.4byte	.LVL150
 4259 063c 34010000 		.4byte	.LVL151
 4260 0640 0100     		.2byte	0x1
 4261 0642 50       		.byte	0x50
 4262 0643 34010000 		.4byte	.LVL151
 4263 0647 54010000 		.4byte	.LVL153
 4264 064b 0200     		.2byte	0x2
 4265 064d 30       		.byte	0x30
 4266 064e 9F       		.byte	0x9f
 4267 064f 54010000 		.4byte	.LVL153
 4268 0653 56010000 		.4byte	.LVL154
 4269 0657 0100     		.2byte	0x1
 4270 0659 50       		.byte	0x50
 4271 065a 56010000 		.4byte	.LVL154
 4272 065e 94010000 		.4byte	.LVL161
 4273 0662 0200     		.2byte	0x2
 4274 0664 30       		.byte	0x30
 4275 0665 9F       		.byte	0x9f
 4276 0666 94010000 		.4byte	.LVL161
 4277 066a 96010000 		.4byte	.LVL162
 4278 066e 0100     		.2byte	0x1
 4279 0670 50       		.byte	0x50
 4280 0671 96010000 		.4byte	.LVL162
 4281 0675 C8010000 		.4byte	.LVL166
 4282 0679 0200     		.2byte	0x2
 4283 067b 30       		.byte	0x30
 4284 067c 9F       		.byte	0x9f
 4285 067d C8010000 		.4byte	.LVL166
 4286 0681 CA010000 		.4byte	.LVL167
 4287 0685 0100     		.2byte	0x1
 4288 0687 50       		.byte	0x50
 4289 0688 CA010000 		.4byte	.LVL167
 4290 068c E6010000 		.4byte	.LVL169
 4291 0690 0200     		.2byte	0x2
 4292 0692 30       		.byte	0x30
 4293 0693 9F       		.byte	0x9f
 4294 0694 E6010000 		.4byte	.LVL169
 4295 0698 E8010000 		.4byte	.LVL170
 4296 069c 0100     		.2byte	0x1
 4297 069e 50       		.byte	0x50
 4298 069f E8010000 		.4byte	.LVL170
 4299 06a3 FE010000 		.4byte	.LVL171
 4300 06a7 0200     		.2byte	0x2
 4301 06a9 30       		.byte	0x30
 4302 06aa 9F       		.byte	0x9f
 4303 06ab FE010000 		.4byte	.LVL171
 4304 06af 00020000 		.4byte	.LVL172
 4305 06b3 0100     		.2byte	0x1
 4306 06b5 50       		.byte	0x50
 4307 06b6 00020000 		.4byte	.LVL172
ARM GAS  C:\Users\User\AppData\Local\Temp\ccieNkfn.s 			page 102


 4308 06ba 1A020000 		.4byte	.LVL173
 4309 06be 0200     		.2byte	0x2
 4310 06c0 30       		.byte	0x30
 4311 06c1 9F       		.byte	0x9f
 4312 06c2 1A020000 		.4byte	.LVL173
 4313 06c6 1C020000 		.4byte	.LVL174
 4314 06ca 0100     		.2byte	0x1
 4315 06cc 50       		.byte	0x50
 4316 06cd 1C020000 		.4byte	.LVL174
 4317 06d1 38020000 		.4byte	.LVL176
 4318 06d5 0200     		.2byte	0x2
 4319 06d7 30       		.byte	0x30
 4320 06d8 9F       		.byte	0x9f
 4321 06d9 38020000 		.4byte	.LVL176
 4322 06dd 3A020000 		.4byte	.LVL177
 4323 06e1 0100     		.2byte	0x1
 4324 06e3 50       		.byte	0x50
 4325 06e4 3A020000 		.4byte	.LVL177
 4326 06e8 52020000 		.4byte	.LVL178
 4327 06ec 0200     		.2byte	0x2
 4328 06ee 30       		.byte	0x30
 4329 06ef 9F       		.byte	0x9f
 4330 06f0 52020000 		.4byte	.LVL178
 4331 06f4 54020000 		.4byte	.LVL179
 4332 06f8 0100     		.2byte	0x1
 4333 06fa 50       		.byte	0x50
 4334 06fb 54020000 		.4byte	.LVL179
 4335 06ff 6E020000 		.4byte	.LVL180
 4336 0703 0200     		.2byte	0x2
 4337 0705 30       		.byte	0x30
 4338 0706 9F       		.byte	0x9f
 4339 0707 6E020000 		.4byte	.LVL180
 4340 070b 70020000 		.4byte	.LVL181
 4341 070f 0100     		.2byte	0x1
 4342 0711 50       		.byte	0x50
 4343 0712 70020000 		.4byte	.LVL181
 4344 0716 AA020000 		.4byte	.LVL190
 4345 071a 0200     		.2byte	0x2
 4346 071c 30       		.byte	0x30
 4347 071d 9F       		.byte	0x9f
 4348 071e AA020000 		.4byte	.LVL190
 4349 0722 E4020000 		.4byte	.LFE1
 4350 0726 0100     		.2byte	0x1
 4351 0728 50       		.byte	0x50
 4352 0729 00000000 		.4byte	0
 4353 072d 00000000 		.4byte	0
 4354              	.LLST33:
 4355 0731 A2010000 		.4byte	.LVL164
 4356 0735 C3010000 		.4byte	.LVL165-1
 4357 0739 0100     		.2byte	0x1
 4358 073b 51       		.byte	0x51
 4359 073c 00000000 		.4byte	0
 4360 0740 00000000 		.4byte	0
 4361              	.LLST34:
 4362 0744 5A010000 		.4byte	.LVL156
 4363 0748 80010000 		.4byte	.LVL158
 4364 074c 0100     		.2byte	0x1
ARM GAS  C:\Users\User\AppData\Local\Temp\ccieNkfn.s 			page 103


 4365 074e 54       		.byte	0x54
 4366 074f 84020000 		.4byte	.LVL187
 4367 0753 88020000 		.4byte	.LVL189
 4368 0757 0100     		.2byte	0x1
 4369 0759 54       		.byte	0x54
 4370 075a 00000000 		.4byte	0
 4371 075e 00000000 		.4byte	0
 4372              	.LLST35:
 4373 0762 06000000 		.4byte	.LVL121
 4374 0766 2E000000 		.4byte	.LVL122
 4375 076a 0100     		.2byte	0x1
 4376 076c 53       		.byte	0x53
 4377 076d BC000000 		.4byte	.LVL140
 4378 0771 C0000000 		.4byte	.LVL141
 4379 0775 0100     		.2byte	0x1
 4380 0777 53       		.byte	0x53
 4381 0778 0E010000 		.4byte	.LVL145
 4382 077c 10010000 		.4byte	.LVL146
 4383 0780 0100     		.2byte	0x1
 4384 0782 53       		.byte	0x53
 4385 0783 1E010000 		.4byte	.LVL148
 4386 0787 22010000 		.4byte	.LVL149
 4387 078b 0100     		.2byte	0x1
 4388 078d 53       		.byte	0x53
 4389 078e 34010000 		.4byte	.LVL151
 4390 0792 48010000 		.4byte	.LVL152
 4391 0796 0100     		.2byte	0x1
 4392 0798 53       		.byte	0x53
 4393 0799 56010000 		.4byte	.LVL154
 4394 079d 58010000 		.4byte	.LVL155
 4395 07a1 0100     		.2byte	0x1
 4396 07a3 53       		.byte	0x53
 4397 07a4 96010000 		.4byte	.LVL162
 4398 07a8 99010000 		.4byte	.LVL163-1
 4399 07ac 0100     		.2byte	0x1
 4400 07ae 53       		.byte	0x53
 4401 07af CA010000 		.4byte	.LVL167
 4402 07b3 CE010000 		.4byte	.LVL168
 4403 07b7 0100     		.2byte	0x1
 4404 07b9 53       		.byte	0x53
 4405 07ba 1C020000 		.4byte	.LVL174
 4406 07be 20020000 		.4byte	.LVL175
 4407 07c2 0100     		.2byte	0x1
 4408 07c4 53       		.byte	0x53
 4409 07c5 70020000 		.4byte	.LVL181
 4410 07c9 74020000 		.4byte	.LVL182
 4411 07cd 0100     		.2byte	0x1
 4412 07cf 53       		.byte	0x53
 4413 07d0 80020000 		.4byte	.LVL186
 4414 07d4 84020000 		.4byte	.LVL187
 4415 07d8 0100     		.2byte	0x1
 4416 07da 53       		.byte	0x53
 4417 07db 00000000 		.4byte	0
 4418 07df 00000000 		.4byte	0
 4419              	.LLST36:
 4420 07e3 06000000 		.4byte	.LVL121
 4421 07e7 84000000 		.4byte	.LVL129
ARM GAS  C:\Users\User\AppData\Local\Temp\ccieNkfn.s 			page 104


 4422 07eb 0200     		.2byte	0x2
 4423 07ed 30       		.byte	0x30
 4424 07ee 9F       		.byte	0x9f
 4425 07ef 84000000 		.4byte	.LVL129
 4426 07f3 8E000000 		.4byte	.LVL134
 4427 07f7 0100     		.2byte	0x1
 4428 07f9 52       		.byte	0x52
 4429 07fa 8E000000 		.4byte	.LVL134
 4430 07fe 92000000 		.4byte	.LVL135
 4431 0802 0200     		.2byte	0x2
 4432 0804 30       		.byte	0x30
 4433 0805 9F       		.byte	0x9f
 4434 0806 92000000 		.4byte	.LVL135
 4435 080a B3000000 		.4byte	.LVL137-1
 4436 080e 0100     		.2byte	0x1
 4437 0810 52       		.byte	0x52
 4438 0811 B6000000 		.4byte	.LVL138
 4439 0815 78020000 		.4byte	.LVL184
 4440 0819 0200     		.2byte	0x2
 4441 081b 30       		.byte	0x30
 4442 081c 9F       		.byte	0x9f
 4443 081d 78020000 		.4byte	.LVL184
 4444 0821 7C020000 		.4byte	.LVL185
 4445 0825 0100     		.2byte	0x1
 4446 0827 52       		.byte	0x52
 4447 0828 7C020000 		.4byte	.LVL185
 4448 082c AA020000 		.4byte	.LVL190
 4449 0830 0200     		.2byte	0x2
 4450 0832 30       		.byte	0x30
 4451 0833 9F       		.byte	0x9f
 4452 0834 00000000 		.4byte	0
 4453 0838 00000000 		.4byte	0
 4454              	.LLST37:
 4455 083c 84000000 		.4byte	.LVL129
 4456 0840 8A000000 		.4byte	.LVL132
 4457 0844 0100     		.2byte	0x1
 4458 0846 53       		.byte	0x53
 4459 0847 8C000000 		.4byte	.LVL133
 4460 084b 8E000000 		.4byte	.LVL134
 4461 084f 0100     		.2byte	0x1
 4462 0851 53       		.byte	0x53
 4463 0852 92000000 		.4byte	.LVL135
 4464 0856 A2000000 		.4byte	.LVL136
 4465 085a 0100     		.2byte	0x1
 4466 085c 53       		.byte	0x53
 4467 085d 00000000 		.4byte	0
 4468 0861 00000000 		.4byte	0
 4469              	.LLST38:
 4470 0865 86000000 		.4byte	.LVL130
 4471 0869 8E000000 		.4byte	.LVL134
 4472 086d 0100     		.2byte	0x1
 4473 086f 51       		.byte	0x51
 4474 0870 00000000 		.4byte	0
 4475 0874 00000000 		.4byte	0
 4476              	.LLST39:
 4477 0878 38000000 		.4byte	.LVL123
 4478 087c 45000000 		.4byte	.LVL124-1
ARM GAS  C:\Users\User\AppData\Local\Temp\ccieNkfn.s 			page 105


 4479 0880 0100     		.2byte	0x1
 4480 0882 50       		.byte	0x50
 4481 0883 5A000000 		.4byte	.LVL126
 4482 0887 77000000 		.4byte	.LVL127-1
 4483 088b 0100     		.2byte	0x1
 4484 088d 50       		.byte	0x50
 4485 088e 66010000 		.4byte	.LVL157
 4486 0892 8C010000 		.4byte	.LVL159
 4487 0896 0100     		.2byte	0x1
 4488 0898 50       		.byte	0x50
 4489 0899 74020000 		.4byte	.LVL182
 4490 089d 76020000 		.4byte	.LVL183
 4491 08a1 0100     		.2byte	0x1
 4492 08a3 50       		.byte	0x50
 4493 08a4 84020000 		.4byte	.LVL187
 4494 08a8 86020000 		.4byte	.LVL188
 4495 08ac 0100     		.2byte	0x1
 4496 08ae 50       		.byte	0x50
 4497 08af 00000000 		.4byte	0
 4498 08b3 00000000 		.4byte	0
 4499              		.section	.debug_aranges,"",%progbits
 4500 0000 74000000 		.4byte	0x74
 4501 0004 0200     		.2byte	0x2
 4502 0006 00000000 		.4byte	.Ldebug_info0
 4503 000a 04       		.byte	0x4
 4504 000b 00       		.byte	0
 4505 000c 0000     		.2byte	0
 4506 000e 0000     		.2byte	0
 4507 0010 00000000 		.4byte	.LFB2
 4508 0014 98000000 		.4byte	.LFE2-.LFB2
 4509 0018 00000000 		.4byte	.LFB3
 4510 001c 44000000 		.4byte	.LFE3-.LFB3
 4511 0020 00000000 		.4byte	.LFB6
 4512 0024 28000000 		.4byte	.LFE6-.LFB6
 4513 0028 00000000 		.4byte	.LFB5
 4514 002c 20010000 		.4byte	.LFE5-.LFB5
 4515 0030 00000000 		.4byte	.LFB7
 4516 0034 18000000 		.4byte	.LFE7-.LFB7
 4517 0038 00000000 		.4byte	.LFB8
 4518 003c 28000000 		.4byte	.LFE8-.LFB8
 4519 0040 00000000 		.4byte	.LFB4
 4520 0044 D8010000 		.4byte	.LFE4-.LFB4
 4521 0048 00000000 		.4byte	.LFB9
 4522 004c 54000000 		.4byte	.LFE9-.LFB9
 4523 0050 00000000 		.4byte	.LFB10
 4524 0054 6C000000 		.4byte	.LFE10-.LFB10
 4525 0058 00000000 		.4byte	.LFB11
 4526 005c B0000000 		.4byte	.LFE11-.LFB11
 4527 0060 00000000 		.4byte	.LFB12
 4528 0064 50000000 		.4byte	.LFE12-.LFB12
 4529 0068 00000000 		.4byte	.LFB1
 4530 006c E4020000 		.4byte	.LFE1-.LFB1
 4531 0070 00000000 		.4byte	0
 4532 0074 00000000 		.4byte	0
 4533              		.section	.debug_ranges,"",%progbits
 4534              	.Ldebug_ranges0:
 4535 0000 00000000 		.4byte	.LFB2
ARM GAS  C:\Users\User\AppData\Local\Temp\ccieNkfn.s 			page 106


 4536 0004 98000000 		.4byte	.LFE2
 4537 0008 00000000 		.4byte	.LFB3
 4538 000c 44000000 		.4byte	.LFE3
 4539 0010 00000000 		.4byte	.LFB6
 4540 0014 28000000 		.4byte	.LFE6
 4541 0018 00000000 		.4byte	.LFB5
 4542 001c 20010000 		.4byte	.LFE5
 4543 0020 00000000 		.4byte	.LFB7
 4544 0024 18000000 		.4byte	.LFE7
 4545 0028 00000000 		.4byte	.LFB8
 4546 002c 28000000 		.4byte	.LFE8
 4547 0030 00000000 		.4byte	.LFB4
 4548 0034 D8010000 		.4byte	.LFE4
 4549 0038 00000000 		.4byte	.LFB9
 4550 003c 54000000 		.4byte	.LFE9
 4551 0040 00000000 		.4byte	.LFB10
 4552 0044 6C000000 		.4byte	.LFE10
 4553 0048 00000000 		.4byte	.LFB11
 4554 004c B0000000 		.4byte	.LFE11
 4555 0050 00000000 		.4byte	.LFB12
 4556 0054 50000000 		.4byte	.LFE12
 4557 0058 00000000 		.4byte	.LFB1
 4558 005c E4020000 		.4byte	.LFE1
 4559 0060 00000000 		.4byte	0
 4560 0064 00000000 		.4byte	0
 4561              		.section	.debug_line,"",%progbits
 4562              	.Ldebug_line0:
 4563 0000 5D030000 		.section	.debug_str,"MS",%progbits,1
 4563      02006000 
 4563      00000201 
 4563      FB0E0D00 
 4563      01010101 
 4564              	.LASF37:
 4565 0000 70537461 		.ascii	"pStatusBlock\000"
 4565      74757342 
 4565      6C6F636B 
 4565      00
 4566              	.LASF35:
 4567 000d 636F756E 		.ascii	"count\000"
 4567      7400
 4568              	.LASF10:
 4569 0013 75696E74 		.ascii	"uint16\000"
 4569      313600
 4570              	.LASF66:
 4571 001a 55534246 		.ascii	"USBFS_arb_eps_struct\000"
 4571      535F6172 
 4571      625F6570 
 4571      735F7374 
 4571      72756374 
 4572              	.LASF84:
 4573 002f 55534246 		.ascii	"USBFS_TerminateEP\000"
 4573      535F5465 
 4573      726D696E 
 4573      61746545 
 4573      5000
 4574              	.LASF112:
 4575 0041 55534246 		.ascii	"USBFS_currentTD\000"
ARM GAS  C:\Users\User\AppData\Local\Temp\ccieNkfn.s 			page 107


 4575      535F6375 
 4575      7272656E 
 4575      74544400 
 4576              	.LASF118:
 4577 0051 443A5C50 		.ascii	"D:\\Projects\\PSoC\\Workspace02\\USB_HID.cydsn\000"
 4577      726F6A65 
 4577      6374735C 
 4577      50536F43 
 4577      5C576F72 
 4578              	.LASF114:
 4579 007c 55534246 		.ascii	"USBFS_InitControlRead\000"
 4579      535F496E 
 4579      6974436F 
 4579      6E74726F 
 4579      6C526561 
 4580              	.LASF116:
 4581 0092 474E5520 		.ascii	"GNU C11 5.4.1 20160609 (release) [ARM/embedded-5-br"
 4581      43313120 
 4581      352E342E 
 4581      31203230 
 4581      31363036 
 4582 00c5 616E6368 		.ascii	"anch revision 237715] -mcpu=cortex-m0 -mthumb -g -O"
 4582      20726576 
 4582      6973696F 
 4582      6E203233 
 4582      37373135 
 4583 00f8 67202D66 		.ascii	"g -ffunction-sections -ffat-lto-objects\000"
 4583      66756E63 
 4583      74696F6E 
 4583      2D736563 
 4583      74696F6E 
 4584              	.LASF80:
 4585 0120 636F6E66 		.ascii	"confIndex\000"
 4585      496E6465 
 4585      7800
 4586              	.LASF7:
 4587 012a 6C6F6E67 		.ascii	"long long unsigned int\000"
 4587      206C6F6E 
 4587      6720756E 
 4587      7369676E 
 4587      65642069 
 4588              	.LASF22:
 4589 0141 61646472 		.ascii	"addr\000"
 4589      00
 4590              	.LASF42:
 4591 0146 55534246 		.ascii	"USBFS_ep0_data_struct\000"
 4591      535F6570 
 4591      305F6461 
 4591      74615F73 
 4591      74727563 
 4592              	.LASF57:
 4593 015c 72775761 		.ascii	"rwWa16\000"
 4593      313600
 4594              	.LASF47:
 4595 0163 65704366 		.ascii	"epCfg\000"
 4595      6700
 4596              	.LASF64:
ARM GAS  C:\Users\User\AppData\Local\Temp\ccieNkfn.s 			page 108


 4597 0169 55534246 		.ascii	"USBFS_sie_eps_struct\000"
 4597      535F7369 
 4597      655F6570 
 4597      735F7374 
 4597      72756374 
 4598              	.LASF117:
 4599 017e 47656E65 		.ascii	"Generated_Source\\PSoC4\\USBFS_std.c\000"
 4599      72617465 
 4599      645F536F 
 4599      75726365 
 4599      5C50536F 
 4600              	.LASF61:
 4601 01a1 72774472 		.ascii	"rwDr16\000"
 4601      313600
 4602              	.LASF85:
 4603 01a8 65704E75 		.ascii	"epNumber\000"
 4603      6D626572 
 4603      00
 4604              	.LASF6:
 4605 01b1 6C6F6E67 		.ascii	"long long int\000"
 4605      206C6F6E 
 4605      6720696E 
 4605      7400
 4606              	.LASF0:
 4607 01bf 7369676E 		.ascii	"signed char\000"
 4607      65642063 
 4607      68617200 
 4608              	.LASF98:
 4609 01cb 55534246 		.ascii	"USBFS_tBuffer\000"
 4609      535F7442 
 4609      75666665 
 4609      7200
 4610              	.LASF81:
 4611 01d9 636C6561 		.ascii	"clearAltSetting\000"
 4611      72416C74 
 4611      53657474 
 4611      696E6700 
 4612              	.LASF108:
 4613 01e9 55534246 		.ascii	"USBFS_deviceAddress\000"
 4613      535F6465 
 4613      76696365 
 4613      41646472 
 4613      65737300 
 4614              	.LASF88:
 4615 01fd 55534246 		.ascii	"USBFS_ClearEndpointHalt\000"
 4615      535F436C 
 4615      65617245 
 4615      6E64706F 
 4615      696E7448 
 4616              	.LASF105:
 4617 0215 55534246 		.ascii	"USBFS_interfaceNumber\000"
 4617      535F696E 
 4617      74657266 
 4617      6163654E 
 4617      756D6265 
 4618              	.LASF79:
 4619 022b 55534246 		.ascii	"USBFS_Config\000"
ARM GAS  C:\Users\User\AppData\Local\Temp\ccieNkfn.s 			page 109


 4619      535F436F 
 4619      6E666967 
 4619      00
 4620              	.LASF56:
 4621 0238 55534246 		.ascii	"USBFS_arb_ep_struct\000"
 4621      535F6172 
 4621      625F6570 
 4621      5F737472 
 4621      75637400 
 4622              	.LASF68:
 4623 024c 55534246 		.ascii	"USBFS_ConfigReg\000"
 4623      535F436F 
 4623      6E666967 
 4623      52656700 
 4624              	.LASF4:
 4625 025c 6C6F6E67 		.ascii	"long int\000"
 4625      20696E74 
 4625      00
 4626              	.LASF9:
 4627 0265 75696E74 		.ascii	"uint8\000"
 4627      3800
 4628              	.LASF21:
 4629 026b 6570546F 		.ascii	"epToggle\000"
 4629      67676C65 
 4629      00
 4630              	.LASF62:
 4631 0274 55534246 		.ascii	"USBFS_arb_ep_reg16_struct\000"
 4631      535F6172 
 4631      625F6570 
 4631      5F726567 
 4631      31365F73 
 4632              	.LASF51:
 4633 028e 72775761 		.ascii	"rwWa\000"
 4633      00
 4634              	.LASF13:
 4635 0293 646F7562 		.ascii	"double\000"
 4635      6C6500
 4636              	.LASF49:
 4637 029a 65705372 		.ascii	"epSr\000"
 4637      00
 4638              	.LASF31:
 4639 029f 545F5553 		.ascii	"T_USBFS_EP_SETTINGS_BLOCK\000"
 4639      4246535F 
 4639      45505F53 
 4639      45545449 
 4639      4E47535F 
 4640              	.LASF86:
 4641 02b9 55534246 		.ascii	"USBFS_SetEndpointHalt\000"
 4641      535F5365 
 4641      74456E64 
 4641      706F696E 
 4641      7448616C 
 4642              	.LASF11:
 4643 02cf 75696E74 		.ascii	"uint32\000"
 4643      333200
 4644              	.LASF36:
 4645 02d6 70446174 		.ascii	"pData\000"
ARM GAS  C:\Users\User\AppData\Local\Temp\ccieNkfn.s 			page 110


 4645      6100
 4646              	.LASF63:
 4647 02dc 73696545 		.ascii	"sieEp\000"
 4647      7000
 4648              	.LASF23:
 4649 02e2 65704D6F 		.ascii	"epMode\000"
 4649      646500
 4650              	.LASF73:
 4651 02e9 65705479 		.ascii	"epType\000"
 4651      706500
 4652              	.LASF94:
 4653 02f0 626D5265 		.ascii	"bmRequestType\000"
 4653      71756573 
 4653      74547970 
 4653      6500
 4654              	.LASF50:
 4655 02fe 72657365 		.ascii	"reserved\000"
 4655      72766564 
 4655      00
 4656              	.LASF8:
 4657 0307 756E7369 		.ascii	"unsigned int\000"
 4657      676E6564 
 4657      20696E74 
 4657      00
 4658              	.LASF5:
 4659 0314 6C6F6E67 		.ascii	"long unsigned int\000"
 4659      20756E73 
 4659      69676E65 
 4659      6420696E 
 4659      7400
 4660              	.LASF76:
 4661 0326 55534246 		.ascii	"USBFS_GetInterfaceClassTablePtr\000"
 4661      535F4765 
 4661      74496E74 
 4661      65726661 
 4661      6365436C 
 4662              	.LASF100:
 4663 0346 55534246 		.ascii	"USBFS_configuration\000"
 4663      535F636F 
 4663      6E666967 
 4663      75726174 
 4663      696F6E00 
 4664              	.LASF3:
 4665 035a 73686F72 		.ascii	"short unsigned int\000"
 4665      7420756E 
 4665      7369676E 
 4665      65642069 
 4665      6E7400
 4666              	.LASF82:
 4667 036d 70446573 		.ascii	"pDescr\000"
 4667      637200
 4668              	.LASF46:
 4669 0374 55534246 		.ascii	"USBFS_sie_ep_struct\000"
 4669      535F7369 
 4669      655F6570 
 4669      5F737472 
 4669      75637400 
ARM GAS  C:\Users\User\AppData\Local\Temp\ccieNkfn.s 			page 111


 4670              	.LASF77:
 4671 0388 70496E74 		.ascii	"pInterfaceClass\000"
 4671      65726661 
 4671      6365436C 
 4671      61737300 
 4672              	.LASF65:
 4673 0398 61726245 		.ascii	"arbEp\000"
 4673      7000
 4674              	.LASF26:
 4675 039e 696E7465 		.ascii	"interface\000"
 4675      72666163 
 4675      6500
 4676              	.LASF89:
 4677 03a8 55534246 		.ascii	"USBFS_ValidateAlternateSetting\000"
 4677      535F5661 
 4677      6C696461 
 4677      7465416C 
 4677      7465726E 
 4678              	.LASF101:
 4679 03c7 55534246 		.ascii	"USBFS_configurationChanged\000"
 4679      535F636F 
 4679      6E666967 
 4679      75726174 
 4679      696F6E43 
 4680              	.LASF15:
 4681 03e2 72656733 		.ascii	"reg32\000"
 4681      3200
 4682              	.LASF110:
 4683 03e8 55534246 		.ascii	"USBFS_interfaceClass\000"
 4683      535F696E 
 4683      74657266 
 4683      61636543 
 4683      6C617373 
 4684              	.LASF72:
 4685 03fd 63757245 		.ascii	"curEp\000"
 4685      7000
 4686              	.LASF20:
 4687 0403 68774570 		.ascii	"hwEpState\000"
 4687      53746174 
 4687      6500
 4688              	.LASF97:
 4689 040d 64657363 		.ascii	"descrLength\000"
 4689      724C656E 
 4689      67746800 
 4690              	.LASF17:
 4691 0419 73697A65 		.ascii	"sizetype\000"
 4691      74797065 
 4691      00
 4692              	.LASF16:
 4693 0422 6C6F6E67 		.ascii	"long double\000"
 4693      20646F75 
 4693      626C6500 
 4694              	.LASF70:
 4695 042e 70546D70 		.ascii	"pTmp\000"
 4695      00
 4696              	.LASF39:
 4697 0433 705F6C69 		.ascii	"p_list\000"
ARM GAS  C:\Users\User\AppData\Local\Temp\ccieNkfn.s 			page 112


 4697      737400
 4698              	.LASF83:
 4699 043a 62756666 		.ascii	"buffCount\000"
 4699      436F756E 
 4699      7400
 4700              	.LASF18:
 4701 0444 61747472 		.ascii	"attrib\000"
 4701      696200
 4702              	.LASF103:
 4703 044b 55534246 		.ascii	"USBFS_TABLE\000"
 4703      535F5441 
 4703      424C4500 
 4704              	.LASF67:
 4705 0457 55534246 		.ascii	"USBFS_arb_eps_reg16_struct\000"
 4705      535F6172 
 4705      625F6570 
 4705      735F7265 
 4705      6731365F 
 4706              	.LASF54:
 4707 0472 72775261 		.ascii	"rwRaMsb\000"
 4707      4D736200 
 4708              	.LASF43:
 4709 047a 6570436E 		.ascii	"epCnt0\000"
 4709      743000
 4710              	.LASF44:
 4711 0481 6570436E 		.ascii	"epCnt1\000"
 4711      743100
 4712              	.LASF71:
 4713 0488 55534246 		.ascii	"USBFS_ConfigAltChanged\000"
 4713      535F436F 
 4713      6E666967 
 4713      416C7443 
 4713      68616E67 
 4714              	.LASF34:
 4715 049f 545F5553 		.ascii	"T_USBFS_XFER_STATUS_BLOCK\000"
 4715      4246535F 
 4715      58464552 
 4715      5F535441 
 4715      5455535F 
 4716              	.LASF45:
 4717 04b9 65704372 		.ascii	"epCr0\000"
 4717      3000
 4718              	.LASF74:
 4719 04bf 696E7465 		.ascii	"interfaceNum\000"
 4719      72666163 
 4719      654E756D 
 4719      00
 4720              	.LASF12:
 4721 04cc 666C6F61 		.ascii	"float\000"
 4721      7400
 4722              	.LASF104:
 4723 04d2 55534246 		.ascii	"USBFS_STRING_DESCRIPTORS\000"
 4723      535F5354 
 4723      52494E47 
 4723      5F444553 
 4723      43524950 
 4724              	.LASF19:
ARM GAS  C:\Users\User\AppData\Local\Temp\ccieNkfn.s 			page 113


 4725 04eb 61706945 		.ascii	"apiEpState\000"
 4725      70537461 
 4725      746500
 4726              	.LASF93:
 4727 04f6 636F6E66 		.ascii	"configurationN\000"
 4727      69677572 
 4727      6174696F 
 4727      6E4E00
 4728              	.LASF111:
 4729 0505 55534246 		.ascii	"USBFS_EP\000"
 4729      535F4550 
 4729      00
 4730              	.LASF95:
 4731 050e 70537472 		.ascii	"pStr\000"
 4731      00
 4732              	.LASF1:
 4733 0513 756E7369 		.ascii	"unsigned char\000"
 4733      676E6564 
 4733      20636861 
 4733      7200
 4734              	.LASF69:
 4735 0521 55534246 		.ascii	"USBFS_EpStateInit\000"
 4735      535F4570 
 4735      53746174 
 4735      65496E69 
 4735      7400
 4736              	.LASF59:
 4737 0533 72775261 		.ascii	"rwRa16\000"
 4737      313600
 4738              	.LASF2:
 4739 053a 73686F72 		.ascii	"short int\000"
 4739      7420696E 
 4739      7400
 4740              	.LASF38:
 4741 0544 545F5553 		.ascii	"T_USBFS_TD\000"
 4741      4246535F 
 4741      544400
 4742              	.LASF75:
 4743 054f 55534246 		.ascii	"USBFS_GetConfigTablePtr\000"
 4743      535F4765 
 4743      74436F6E 
 4743      66696754 
 4743      61626C65 
 4744              	.LASF53:
 4745 0567 72775261 		.ascii	"rwRa\000"
 4745      00
 4746              	.LASF106:
 4747 056c 55534246 		.ascii	"USBFS_interfaceSetting\000"
 4747      535F696E 
 4747      74657266 
 4747      61636553 
 4747      65747469 
 4748              	.LASF27:
 4749 0583 545F5553 		.ascii	"T_USBFS_EP_CTL_BLOCK\000"
 4749      4246535F 
 4749      45505F43 
 4749      544C5F42 
ARM GAS  C:\Users\User\AppData\Local\Temp\ccieNkfn.s 			page 114


 4749      4C4F434B 
 4750              	.LASF113:
 4751 0598 55534246 		.ascii	"USBFS_InitNoDataControlTransfer\000"
 4751      535F496E 
 4751      69744E6F 
 4751      44617461 
 4751      436F6E74 
 4752              	.LASF99:
 4753 05b8 55534246 		.ascii	"USBFS_device\000"
 4753      535F6465 
 4753      76696365 
 4753      00
 4754              	.LASF29:
 4755 05c5 61747472 		.ascii	"attributes\000"
 4755      69627574 
 4755      657300
 4756              	.LASF28:
 4757 05d0 616C7453 		.ascii	"altSetting\000"
 4757      65747469 
 4757      6E6700
 4758              	.LASF14:
 4759 05db 63686172 		.ascii	"char\000"
 4759      00
 4760              	.LASF25:
 4761 05e0 62756666 		.ascii	"bufferSize\000"
 4761      65725369 
 4761      7A6500
 4762              	.LASF87:
 4763 05eb 72657175 		.ascii	"requestHandled\000"
 4763      65737448 
 4763      616E646C 
 4763      656400
 4764              	.LASF78:
 4765 05fa 63757272 		.ascii	"currentInterfacesNum\000"
 4765      656E7449 
 4765      6E746572 
 4765      66616365 
 4765      734E756D 
 4766              	.LASF24:
 4767 060f 62756666 		.ascii	"buffOffset\000"
 4767      4F666673 
 4767      657400
 4768              	.LASF119:
 4769 061a 55534246 		.ascii	"USBFS_GetDeviceTablePtr\000"
 4769      535F4765 
 4769      74446576 
 4769      69636554 
 4769      61626C65 
 4770              	.LASF92:
 4771 0632 696E7465 		.ascii	"interfaceNumber\000"
 4771      72666163 
 4771      654E756D 
 4771      62657200 
 4772              	.LASF102:
 4773 0642 55534246 		.ascii	"USBFS_deviceStatus\000"
 4773      535F6465 
 4773      76696365 
ARM GAS  C:\Users\User\AppData\Local\Temp\ccieNkfn.s 			page 115


 4773      53746174 
 4773      757300
 4774              	.LASF33:
 4775 0655 6C656E67 		.ascii	"length\000"
 4775      746800
 4776              	.LASF96:
 4777 065c 6E537472 		.ascii	"nStr\000"
 4777      00
 4778              	.LASF32:
 4779 0661 73746174 		.ascii	"status\000"
 4779      757300
 4780              	.LASF115:
 4781 0668 55534246 		.ascii	"USBFS_DispatchClassRqst\000"
 4781      535F4469 
 4781      73706174 
 4781      6368436C 
 4781      61737352 
 4782              	.LASF55:
 4783 0680 72774472 		.ascii	"rwDr\000"
 4783      00
 4784              	.LASF90:
 4785 0685 63757249 		.ascii	"curInterfacesNum\000"
 4785      6E746572 
 4785      66616365 
 4785      734E756D 
 4785      00
 4786              	.LASF41:
 4787 0696 65704461 		.ascii	"epData\000"
 4787      746100
 4788              	.LASF30:
 4789 069d 624D6973 		.ascii	"bMisc\000"
 4789      6300
 4790              	.LASF52:
 4791 06a3 72775761 		.ascii	"rwWaMsb\000"
 4791      4D736200 
 4792              	.LASF109:
 4793 06ab 55534246 		.ascii	"USBFS_interfaceStatus\000"
 4793      535F696E 
 4793      74657266 
 4793      61636553 
 4793      74617475 
 4794              	.LASF48:
 4795 06c1 6570496E 		.ascii	"epIntEn\000"
 4795      74456E00 
 4796              	.LASF58:
 4797 06c9 72657365 		.ascii	"reserved0\000"
 4797      72766564 
 4797      3000
 4798              	.LASF60:
 4799 06d3 72657365 		.ascii	"reserved1\000"
 4799      72766564 
 4799      3100
 4800              	.LASF107:
 4801 06dd 55534246 		.ascii	"USBFS_interfaceSettingLast\000"
 4801      535F696E 
 4801      74657266 
 4801      61636553 
ARM GAS  C:\Users\User\AppData\Local\Temp\ccieNkfn.s 			page 116


 4801      65747469 
 4802              	.LASF91:
 4803 06f8 55534246 		.ascii	"USBFS_HandleStandardRqst\000"
 4803      535F4861 
 4803      6E646C65 
 4803      5374616E 
 4803      64617264 
 4804              	.LASF40:
 4805 0711 545F5553 		.ascii	"T_USBFS_LUT\000"
 4805      4246535F 
 4805      4C555400 
 4806              		.ident	"GCC: (GNU Tools for ARM Embedded Processors) 5.4.1 20160609 (release) [ARM/embedded-5-bran
