ARM GAS  C:\Users\LUCASC~1\AppData\Local\Temp\ccMspCyA.s 			page 1


   1              		.syntax unified
   2              		.cpu cortex-m0
   3              		.fpu softvfp
   4              		.eabi_attribute 20, 1
   5              		.eabi_attribute 21, 1
   6              		.eabi_attribute 23, 3
   7              		.eabi_attribute 24, 1
   8              		.eabi_attribute 25, 1
   9              		.eabi_attribute 26, 1
  10              		.eabi_attribute 30, 1
  11              		.eabi_attribute 34, 0
  12              		.eabi_attribute 18, 4
  13              		.thumb
  14              		.syntax unified
  15              		.file	"cyfitter_cfg.c"
  16              		.text
  17              	.Ltext0:
  18              		.cfi_sections	.debug_frame
  19              		.section	.text.cfg_write_bytes32,"ax",%progbits
  20              		.align	2
  21              		.code	16
  22              		.thumb_func
  23              		.type	cfg_write_bytes32, %function
  24              	cfg_write_bytes32:
  25              	.LFB4:
  26              		.file 1 "Generated_Source\\PSoC4\\cyfitter_cfg.c"
   1:Generated_Source\PSoC4/cyfitter_cfg.c **** 
   2:Generated_Source\PSoC4/cyfitter_cfg.c **** /*******************************************************************************
   3:Generated_Source\PSoC4/cyfitter_cfg.c **** * File Name: cyfitter_cfg.c
   4:Generated_Source\PSoC4/cyfitter_cfg.c **** * 
   5:Generated_Source\PSoC4/cyfitter_cfg.c **** * PSoC Creator  4.2
   6:Generated_Source\PSoC4/cyfitter_cfg.c **** *
   7:Generated_Source\PSoC4/cyfitter_cfg.c **** * Description:
   8:Generated_Source\PSoC4/cyfitter_cfg.c **** * This file contains device initialization code.
   9:Generated_Source\PSoC4/cyfitter_cfg.c **** * Except for the user defined sections in CyClockStartupError(), this file should not be modified.
  10:Generated_Source\PSoC4/cyfitter_cfg.c **** * This file is automatically generated by PSoC Creator.
  11:Generated_Source\PSoC4/cyfitter_cfg.c **** *
  12:Generated_Source\PSoC4/cyfitter_cfg.c **** ********************************************************************************
  13:Generated_Source\PSoC4/cyfitter_cfg.c **** * Copyright (c) 2007-2018 Cypress Semiconductor.  All rights reserved.
  14:Generated_Source\PSoC4/cyfitter_cfg.c **** * You may use this file only in accordance with the license, terms, conditions, 
  15:Generated_Source\PSoC4/cyfitter_cfg.c **** * disclaimers, and limitations in the end user license agreement accompanying 
  16:Generated_Source\PSoC4/cyfitter_cfg.c **** * the software package with which this file was provided.
  17:Generated_Source\PSoC4/cyfitter_cfg.c **** ********************************************************************************/
  18:Generated_Source\PSoC4/cyfitter_cfg.c **** 
  19:Generated_Source\PSoC4/cyfitter_cfg.c **** #include <string.h>
  20:Generated_Source\PSoC4/cyfitter_cfg.c **** #include "cytypes.h"
  21:Generated_Source\PSoC4/cyfitter_cfg.c **** #include "cydevice_trm.h"
  22:Generated_Source\PSoC4/cyfitter_cfg.c **** #include "cyfitter.h"
  23:Generated_Source\PSoC4/cyfitter_cfg.c **** #include "CyLib.h"
  24:Generated_Source\PSoC4/cyfitter_cfg.c **** #include "CyLFClk.h"
  25:Generated_Source\PSoC4/cyfitter_cfg.c **** #include "cyfitter_cfg.h"
  26:Generated_Source\PSoC4/cyfitter_cfg.c **** #include "cyapicallbacks.h"
  27:Generated_Source\PSoC4/cyfitter_cfg.c **** 
  28:Generated_Source\PSoC4/cyfitter_cfg.c **** 
  29:Generated_Source\PSoC4/cyfitter_cfg.c **** #if defined(__GNUC__) || defined(__ARMCC_VERSION)
  30:Generated_Source\PSoC4/cyfitter_cfg.c ****     #define CYPACKED 
  31:Generated_Source\PSoC4/cyfitter_cfg.c ****     #define CYPACKED_ATTR __attribute__ ((packed))
ARM GAS  C:\Users\LUCASC~1\AppData\Local\Temp\ccMspCyA.s 			page 2


  32:Generated_Source\PSoC4/cyfitter_cfg.c ****     #define CYALIGNED __attribute__ ((aligned))
  33:Generated_Source\PSoC4/cyfitter_cfg.c ****     #define CY_CFG_UNUSED __attribute__ ((unused))
  34:Generated_Source\PSoC4/cyfitter_cfg.c ****     #ifndef CY_CFG_SECTION
  35:Generated_Source\PSoC4/cyfitter_cfg.c ****         #define CY_CFG_SECTION __attribute__ ((section(".psocinit")))
  36:Generated_Source\PSoC4/cyfitter_cfg.c ****     #endif
  37:Generated_Source\PSoC4/cyfitter_cfg.c ****     
  38:Generated_Source\PSoC4/cyfitter_cfg.c ****     #if defined(__ARMCC_VERSION)
  39:Generated_Source\PSoC4/cyfitter_cfg.c ****         #define CY_CFG_MEMORY_BARRIER() __memory_changed()
  40:Generated_Source\PSoC4/cyfitter_cfg.c ****     #else
  41:Generated_Source\PSoC4/cyfitter_cfg.c ****         #define CY_CFG_MEMORY_BARRIER() __sync_synchronize()
  42:Generated_Source\PSoC4/cyfitter_cfg.c ****     #endif
  43:Generated_Source\PSoC4/cyfitter_cfg.c ****     
  44:Generated_Source\PSoC4/cyfitter_cfg.c **** #elif defined(__ICCARM__)
  45:Generated_Source\PSoC4/cyfitter_cfg.c ****     #include <intrinsics.h>
  46:Generated_Source\PSoC4/cyfitter_cfg.c **** 
  47:Generated_Source\PSoC4/cyfitter_cfg.c ****     #define CYPACKED __packed
  48:Generated_Source\PSoC4/cyfitter_cfg.c ****     #define CYPACKED_ATTR 
  49:Generated_Source\PSoC4/cyfitter_cfg.c ****     #define CYALIGNED _Pragma("data_alignment=4")
  50:Generated_Source\PSoC4/cyfitter_cfg.c ****     #define CY_CFG_UNUSED _Pragma("diag_suppress=Pe177")
  51:Generated_Source\PSoC4/cyfitter_cfg.c ****     #define CY_CFG_SECTION _Pragma("location=\".psocinit\"")
  52:Generated_Source\PSoC4/cyfitter_cfg.c ****     
  53:Generated_Source\PSoC4/cyfitter_cfg.c ****     #define CY_CFG_MEMORY_BARRIER() __DMB()
  54:Generated_Source\PSoC4/cyfitter_cfg.c ****     
  55:Generated_Source\PSoC4/cyfitter_cfg.c **** #else
  56:Generated_Source\PSoC4/cyfitter_cfg.c ****     #error Unsupported toolchain
  57:Generated_Source\PSoC4/cyfitter_cfg.c **** #endif
  58:Generated_Source\PSoC4/cyfitter_cfg.c **** 
  59:Generated_Source\PSoC4/cyfitter_cfg.c **** #ifndef CYCODE
  60:Generated_Source\PSoC4/cyfitter_cfg.c ****     #define CYCODE
  61:Generated_Source\PSoC4/cyfitter_cfg.c **** #endif
  62:Generated_Source\PSoC4/cyfitter_cfg.c **** #ifndef CYDATA
  63:Generated_Source\PSoC4/cyfitter_cfg.c ****     #define CYDATA
  64:Generated_Source\PSoC4/cyfitter_cfg.c **** #endif
  65:Generated_Source\PSoC4/cyfitter_cfg.c **** #ifndef CYFAR
  66:Generated_Source\PSoC4/cyfitter_cfg.c ****     #define CYFAR
  67:Generated_Source\PSoC4/cyfitter_cfg.c **** #endif
  68:Generated_Source\PSoC4/cyfitter_cfg.c **** #ifndef CYXDATA
  69:Generated_Source\PSoC4/cyfitter_cfg.c ****     #define CYXDATA
  70:Generated_Source\PSoC4/cyfitter_cfg.c **** #endif
  71:Generated_Source\PSoC4/cyfitter_cfg.c **** 
  72:Generated_Source\PSoC4/cyfitter_cfg.c **** 
  73:Generated_Source\PSoC4/cyfitter_cfg.c **** CY_CFG_UNUSED
  74:Generated_Source\PSoC4/cyfitter_cfg.c **** static void CYMEMZERO(void *s, size_t n);
  75:Generated_Source\PSoC4/cyfitter_cfg.c **** CY_CFG_UNUSED
  76:Generated_Source\PSoC4/cyfitter_cfg.c **** static void CYMEMZERO(void *s, size_t n)
  77:Generated_Source\PSoC4/cyfitter_cfg.c **** {
  78:Generated_Source\PSoC4/cyfitter_cfg.c **** 	(void)memset(s, 0, n);
  79:Generated_Source\PSoC4/cyfitter_cfg.c **** }
  80:Generated_Source\PSoC4/cyfitter_cfg.c **** CY_CFG_UNUSED
  81:Generated_Source\PSoC4/cyfitter_cfg.c **** static void CYCONFIGCPY(void *dest, const void *src, size_t n);
  82:Generated_Source\PSoC4/cyfitter_cfg.c **** CY_CFG_UNUSED
  83:Generated_Source\PSoC4/cyfitter_cfg.c **** static void CYCONFIGCPY(void *dest, const void *src, size_t n)
  84:Generated_Source\PSoC4/cyfitter_cfg.c **** {
  85:Generated_Source\PSoC4/cyfitter_cfg.c **** 	(void)memcpy(dest, src, n);
  86:Generated_Source\PSoC4/cyfitter_cfg.c **** }
  87:Generated_Source\PSoC4/cyfitter_cfg.c **** CY_CFG_UNUSED
  88:Generated_Source\PSoC4/cyfitter_cfg.c **** static void CYCONFIGCPYCODE(void *dest, const void *src, size_t n);
ARM GAS  C:\Users\LUCASC~1\AppData\Local\Temp\ccMspCyA.s 			page 3


  89:Generated_Source\PSoC4/cyfitter_cfg.c **** CY_CFG_UNUSED
  90:Generated_Source\PSoC4/cyfitter_cfg.c **** static void CYCONFIGCPYCODE(void *dest, const void *src, size_t n)
  91:Generated_Source\PSoC4/cyfitter_cfg.c **** {
  92:Generated_Source\PSoC4/cyfitter_cfg.c **** 	(void)memcpy(dest, src, n);
  93:Generated_Source\PSoC4/cyfitter_cfg.c **** }
  94:Generated_Source\PSoC4/cyfitter_cfg.c **** 
  95:Generated_Source\PSoC4/cyfitter_cfg.c **** 
  96:Generated_Source\PSoC4/cyfitter_cfg.c **** 
  97:Generated_Source\PSoC4/cyfitter_cfg.c **** 
  98:Generated_Source\PSoC4/cyfitter_cfg.c **** /* Clock startup error codes                                                   */
  99:Generated_Source\PSoC4/cyfitter_cfg.c **** #define CYCLOCKSTART_NO_ERROR    0u
 100:Generated_Source\PSoC4/cyfitter_cfg.c **** #define CYCLOCKSTART_XTAL_ERROR  1u
 101:Generated_Source\PSoC4/cyfitter_cfg.c **** #define CYCLOCKSTART_32KHZ_ERROR 2u
 102:Generated_Source\PSoC4/cyfitter_cfg.c **** #define CYCLOCKSTART_PLL_ERROR   3u
 103:Generated_Source\PSoC4/cyfitter_cfg.c **** #define CYCLOCKSTART_FLL_ERROR   4u
 104:Generated_Source\PSoC4/cyfitter_cfg.c **** #define CYCLOCKSTART_WCO_ERROR   5u
 105:Generated_Source\PSoC4/cyfitter_cfg.c **** 
 106:Generated_Source\PSoC4/cyfitter_cfg.c **** 
 107:Generated_Source\PSoC4/cyfitter_cfg.c **** #ifdef CY_NEED_CYCLOCKSTARTUPERROR
 108:Generated_Source\PSoC4/cyfitter_cfg.c **** /*******************************************************************************
 109:Generated_Source\PSoC4/cyfitter_cfg.c **** * Function Name: CyClockStartupError
 110:Generated_Source\PSoC4/cyfitter_cfg.c **** ********************************************************************************
 111:Generated_Source\PSoC4/cyfitter_cfg.c **** * Summary:
 112:Generated_Source\PSoC4/cyfitter_cfg.c **** *  If an error is encountered during clock configuration (crystal startup error,
 113:Generated_Source\PSoC4/cyfitter_cfg.c **** *  PLL lock error, etc.), the system will end up here.  Unless reimplemented by
 114:Generated_Source\PSoC4/cyfitter_cfg.c **** *  the customer, this function will stop in an infinite loop.
 115:Generated_Source\PSoC4/cyfitter_cfg.c **** *
 116:Generated_Source\PSoC4/cyfitter_cfg.c **** * Parameters:
 117:Generated_Source\PSoC4/cyfitter_cfg.c **** *   void
 118:Generated_Source\PSoC4/cyfitter_cfg.c **** *
 119:Generated_Source\PSoC4/cyfitter_cfg.c **** * Return:
 120:Generated_Source\PSoC4/cyfitter_cfg.c **** *   void
 121:Generated_Source\PSoC4/cyfitter_cfg.c **** *
 122:Generated_Source\PSoC4/cyfitter_cfg.c **** *******************************************************************************/
 123:Generated_Source\PSoC4/cyfitter_cfg.c **** CY_CFG_UNUSED
 124:Generated_Source\PSoC4/cyfitter_cfg.c **** static void CyClockStartupError(uint8 errorCode);
 125:Generated_Source\PSoC4/cyfitter_cfg.c **** CY_CFG_UNUSED
 126:Generated_Source\PSoC4/cyfitter_cfg.c **** static void CyClockStartupError(uint8 errorCode)
 127:Generated_Source\PSoC4/cyfitter_cfg.c **** {
 128:Generated_Source\PSoC4/cyfitter_cfg.c ****     /* To remove the compiler warning if errorCode not used.                */
 129:Generated_Source\PSoC4/cyfitter_cfg.c ****     errorCode = errorCode;
 130:Generated_Source\PSoC4/cyfitter_cfg.c **** 
 131:Generated_Source\PSoC4/cyfitter_cfg.c ****     /* If we have a clock startup error (bad MHz crystal, PLL lock, etc.),  */
 132:Generated_Source\PSoC4/cyfitter_cfg.c ****     /* we will end up here to allow the customer to implement something to  */
 133:Generated_Source\PSoC4/cyfitter_cfg.c ****     /* deal with the clock condition.                                       */
 134:Generated_Source\PSoC4/cyfitter_cfg.c **** 
 135:Generated_Source\PSoC4/cyfitter_cfg.c **** #ifdef CY_CFG_CLOCK_STARTUP_ERROR_CALLBACK
 136:Generated_Source\PSoC4/cyfitter_cfg.c ****     CY_CFG_Clock_Startup_ErrorCallback();
 137:Generated_Source\PSoC4/cyfitter_cfg.c **** #else
 138:Generated_Source\PSoC4/cyfitter_cfg.c ****     /*  If not using CY_CFG_CLOCK_STARTUP_ERROR_CALLBACK, place your clock startup code here. */
 139:Generated_Source\PSoC4/cyfitter_cfg.c ****     /* `#START CyClockStartupError` */
 140:Generated_Source\PSoC4/cyfitter_cfg.c **** 
 141:Generated_Source\PSoC4/cyfitter_cfg.c **** 
 142:Generated_Source\PSoC4/cyfitter_cfg.c **** 
 143:Generated_Source\PSoC4/cyfitter_cfg.c ****     /* `#END` */
 144:Generated_Source\PSoC4/cyfitter_cfg.c **** 
 145:Generated_Source\PSoC4/cyfitter_cfg.c ****     while(1) {}
ARM GAS  C:\Users\LUCASC~1\AppData\Local\Temp\ccMspCyA.s 			page 4


 146:Generated_Source\PSoC4/cyfitter_cfg.c **** #endif /* CY_CFG_CLOCK_STARTUP_ERROR_CALLBACK */
 147:Generated_Source\PSoC4/cyfitter_cfg.c **** }
 148:Generated_Source\PSoC4/cyfitter_cfg.c **** #endif
 149:Generated_Source\PSoC4/cyfitter_cfg.c **** 
 150:Generated_Source\PSoC4/cyfitter_cfg.c **** #define CY_CFG_BASE_ADDR_COUNT 5u
 151:Generated_Source\PSoC4/cyfitter_cfg.c **** CYPACKED typedef struct
 152:Generated_Source\PSoC4/cyfitter_cfg.c **** {
 153:Generated_Source\PSoC4/cyfitter_cfg.c **** 	uint8 offset;
 154:Generated_Source\PSoC4/cyfitter_cfg.c **** 	uint8 value;
 155:Generated_Source\PSoC4/cyfitter_cfg.c **** } CYPACKED_ATTR cy_cfg_addrvalue_t;
 156:Generated_Source\PSoC4/cyfitter_cfg.c **** 
 157:Generated_Source\PSoC4/cyfitter_cfg.c **** 
 158:Generated_Source\PSoC4/cyfitter_cfg.c **** 
 159:Generated_Source\PSoC4/cyfitter_cfg.c **** /*******************************************************************************
 160:Generated_Source\PSoC4/cyfitter_cfg.c **** * Function Name: cfg_write_bytes32
 161:Generated_Source\PSoC4/cyfitter_cfg.c **** ********************************************************************************
 162:Generated_Source\PSoC4/cyfitter_cfg.c **** * Summary:
 163:Generated_Source\PSoC4/cyfitter_cfg.c **** *  This function is used for setting up the chip configuration areas that
 164:Generated_Source\PSoC4/cyfitter_cfg.c **** *  contain relatively sparse data.
 165:Generated_Source\PSoC4/cyfitter_cfg.c **** *
 166:Generated_Source\PSoC4/cyfitter_cfg.c **** * Parameters:
 167:Generated_Source\PSoC4/cyfitter_cfg.c **** *   void
 168:Generated_Source\PSoC4/cyfitter_cfg.c **** *
 169:Generated_Source\PSoC4/cyfitter_cfg.c **** * Return:
 170:Generated_Source\PSoC4/cyfitter_cfg.c **** *   void
 171:Generated_Source\PSoC4/cyfitter_cfg.c **** *
 172:Generated_Source\PSoC4/cyfitter_cfg.c **** *******************************************************************************/
 173:Generated_Source\PSoC4/cyfitter_cfg.c **** static void cfg_write_bytes32(const uint32 addr_table[], const cy_cfg_addrvalue_t data_table[]);
 174:Generated_Source\PSoC4/cyfitter_cfg.c **** static void cfg_write_bytes32(const uint32 addr_table[], const cy_cfg_addrvalue_t data_table[])
 175:Generated_Source\PSoC4/cyfitter_cfg.c **** {
  27              		.loc 1 175 0
  28              		.cfi_startproc
  29              		@ args = 0, pretend = 0, frame = 0
  30              		@ frame_needed = 0, uses_anonymous_args = 0
  31              	.LVL0:
  32 0000 F0B5     		push	{r4, r5, r6, r7, lr}
  33              		.cfi_def_cfa_offset 20
  34              		.cfi_offset 4, -20
  35              		.cfi_offset 5, -16
  36              		.cfi_offset 6, -12
  37              		.cfi_offset 7, -8
  38              		.cfi_offset 14, -4
  39              	.LVL1:
 176:Generated_Source\PSoC4/cyfitter_cfg.c **** 	/* For 32-bit little-endian architectures */
 177:Generated_Source\PSoC4/cyfitter_cfg.c **** 	uint32 i, j = 0u;
  40              		.loc 1 177 0
  41 0002 0025     		movs	r5, #0
 178:Generated_Source\PSoC4/cyfitter_cfg.c **** 	for (i = 0u; i < CY_CFG_BASE_ADDR_COUNT; i++)
  42              		.loc 1 178 0
  43 0004 0027     		movs	r7, #0
  44 0006 11E0     		b	.L2
  45              	.LVL2:
  46              	.L5:
  47              	.LBB2:
 179:Generated_Source\PSoC4/cyfitter_cfg.c **** 	{
 180:Generated_Source\PSoC4/cyfitter_cfg.c **** 		uint32 baseAddr = addr_table[i];
  48              		.loc 1 180 0
ARM GAS  C:\Users\LUCASC~1\AppData\Local\Temp\ccMspCyA.s 			page 5


  49 0008 BB00     		lsls	r3, r7, #2
  50 000a C658     		ldr	r6, [r0, r3]
  51              	.LVL3:
 181:Generated_Source\PSoC4/cyfitter_cfg.c **** 		uint8 count = (uint8)baseAddr;
  52              		.loc 1 181 0
  53 000c F3B2     		uxtb	r3, r6
  54              	.LVL4:
 182:Generated_Source\PSoC4/cyfitter_cfg.c **** 		baseAddr &= 0xFFFFFF00u;
  55              		.loc 1 182 0
  56 000e FF22     		movs	r2, #255
  57 0010 9643     		bics	r6, r2
  58              	.LVL5:
 183:Generated_Source\PSoC4/cyfitter_cfg.c **** 		while (count != 0u)
  59              		.loc 1 183 0
  60 0012 08E0     		b	.L3
  61              	.L4:
 184:Generated_Source\PSoC4/cyfitter_cfg.c **** 		{
 185:Generated_Source\PSoC4/cyfitter_cfg.c **** 			CY_SET_REG8((void *)(baseAddr + data_table[j].offset), data_table[j].value);
  62              		.loc 1 185 0
  63 0014 6A00     		lsls	r2, r5, #1
  64 0016 8A18     		adds	r2, r1, r2
  65 0018 1478     		ldrb	r4, [r2]
  66 001a A419     		adds	r4, r4, r6
  67 001c 5278     		ldrb	r2, [r2, #1]
  68 001e 2270     		strb	r2, [r4]
 186:Generated_Source\PSoC4/cyfitter_cfg.c **** 			j++;
  69              		.loc 1 186 0
  70 0020 0135     		adds	r5, r5, #1
  71              	.LVL6:
 187:Generated_Source\PSoC4/cyfitter_cfg.c **** 			count--;
  72              		.loc 1 187 0
  73 0022 013B     		subs	r3, r3, #1
  74              	.LVL7:
  75 0024 DBB2     		uxtb	r3, r3
  76              	.LVL8:
  77              	.L3:
 183:Generated_Source\PSoC4/cyfitter_cfg.c **** 		{
  78              		.loc 1 183 0
  79 0026 002B     		cmp	r3, #0
  80 0028 F4D1     		bne	.L4
  81              	.LBE2:
 178:Generated_Source\PSoC4/cyfitter_cfg.c **** 	{
  82              		.loc 1 178 0 discriminator 2
  83 002a 0137     		adds	r7, r7, #1
  84              	.LVL9:
  85              	.L2:
 178:Generated_Source\PSoC4/cyfitter_cfg.c **** 	{
  86              		.loc 1 178 0 is_stmt 0 discriminator 1
  87 002c 042F     		cmp	r7, #4
  88 002e EBD9     		bls	.L5
 188:Generated_Source\PSoC4/cyfitter_cfg.c **** 		}
 189:Generated_Source\PSoC4/cyfitter_cfg.c **** 	}
 190:Generated_Source\PSoC4/cyfitter_cfg.c **** }
  89              		.loc 1 190 0 is_stmt 1
  90              		@ sp needed
  91              	.LVL10:
  92              	.LVL11:
ARM GAS  C:\Users\LUCASC~1\AppData\Local\Temp\ccMspCyA.s 			page 6


  93 0030 F0BD     		pop	{r4, r5, r6, r7, pc}
  94              		.cfi_endproc
  95              	.LFE4:
  96              		.size	cfg_write_bytes32, .-cfg_write_bytes32
  97 0032 C046     		.section	.text.AnalogSetDefault,"ax",%progbits
  98              		.align	2
  99              		.code	16
 100              		.thumb_func
 101              		.type	AnalogSetDefault, %function
 102              	AnalogSetDefault:
 103              	.LFB6:
 191:Generated_Source\PSoC4/cyfitter_cfg.c **** 
 192:Generated_Source\PSoC4/cyfitter_cfg.c **** 
 193:Generated_Source\PSoC4/cyfitter_cfg.c **** /*******************************************************************************
 194:Generated_Source\PSoC4/cyfitter_cfg.c **** * Function Name: ClockSetup
 195:Generated_Source\PSoC4/cyfitter_cfg.c **** ********************************************************************************
 196:Generated_Source\PSoC4/cyfitter_cfg.c **** *
 197:Generated_Source\PSoC4/cyfitter_cfg.c **** * Summary:
 198:Generated_Source\PSoC4/cyfitter_cfg.c **** *   Performs the initialization of all of the clocks in the device based on the
 199:Generated_Source\PSoC4/cyfitter_cfg.c **** *   settings in the Clock tab of the DWR.  This includes enabling the requested
 200:Generated_Source\PSoC4/cyfitter_cfg.c **** *   clocks and setting the necessary dividers to produce the desired frequency. 
 201:Generated_Source\PSoC4/cyfitter_cfg.c **** *
 202:Generated_Source\PSoC4/cyfitter_cfg.c **** * Parameters:
 203:Generated_Source\PSoC4/cyfitter_cfg.c **** *   void
 204:Generated_Source\PSoC4/cyfitter_cfg.c **** *
 205:Generated_Source\PSoC4/cyfitter_cfg.c **** * Return:
 206:Generated_Source\PSoC4/cyfitter_cfg.c **** *   void
 207:Generated_Source\PSoC4/cyfitter_cfg.c **** *
 208:Generated_Source\PSoC4/cyfitter_cfg.c **** *******************************************************************************/
 209:Generated_Source\PSoC4/cyfitter_cfg.c **** static void ClockSetup(void);
 210:Generated_Source\PSoC4/cyfitter_cfg.c **** CY_CFG_SECTION
 211:Generated_Source\PSoC4/cyfitter_cfg.c **** static void ClockSetup(void)
 212:Generated_Source\PSoC4/cyfitter_cfg.c **** {
 213:Generated_Source\PSoC4/cyfitter_cfg.c **** 
 214:Generated_Source\PSoC4/cyfitter_cfg.c **** 	/* Set Flash Cycles based on max possible frequency in case a glitch occurs during ClockSetup(). *
 215:Generated_Source\PSoC4/cyfitter_cfg.c **** 	CY_SET_REG32((void CYXDATA *)(CYREG_CPUSS_FLASH_CTL), (0x0012u));
 216:Generated_Source\PSoC4/cyfitter_cfg.c **** 	/* Setup and trim IMO based on desired frequency. */
 217:Generated_Source\PSoC4/cyfitter_cfg.c **** 	CySysClkWriteImoFreq(48u);
 218:Generated_Source\PSoC4/cyfitter_cfg.c **** 	/* CYDEV_CLK_ILO_CONFIG Starting address: CYDEV_CLK_ILO_CONFIG */
 219:Generated_Source\PSoC4/cyfitter_cfg.c **** 	CY_SET_REG32((void *)(CYREG_CLK_ILO_CONFIG), 0x80000006u);
 220:Generated_Source\PSoC4/cyfitter_cfg.c **** 
 221:Generated_Source\PSoC4/cyfitter_cfg.c **** 
 222:Generated_Source\PSoC4/cyfitter_cfg.c **** 	/* Setup phase aligned clocks */
 223:Generated_Source\PSoC4/cyfitter_cfg.c **** 	CY_SET_REG32((void *)CYREG_PERI_DIV_16_CTL2, 0x00003300u);
 224:Generated_Source\PSoC4/cyfitter_cfg.c **** 	CY_SET_REG32((void *)CYREG_PERI_DIV_CMD, 0x8000FF42u);
 225:Generated_Source\PSoC4/cyfitter_cfg.c **** 	CY_SET_REG32((void *)CYREG_PERI_DIV_16_CTL1, 0x00001D00u);
 226:Generated_Source\PSoC4/cyfitter_cfg.c **** 	CY_SET_REG32((void *)CYREG_PERI_DIV_CMD, 0x8000FF41u);
 227:Generated_Source\PSoC4/cyfitter_cfg.c **** 	CY_SET_REG32((void *)CYREG_PERI_DIV_16_CTL0, 0x00001D00u);
 228:Generated_Source\PSoC4/cyfitter_cfg.c **** 	CY_SET_REG32((void *)CYREG_PERI_DIV_CMD, 0x8000FF40u);
 229:Generated_Source\PSoC4/cyfitter_cfg.c **** 
 230:Generated_Source\PSoC4/cyfitter_cfg.c **** 	/* CYDEV_CLK_IMO_CONFIG Starting address: CYDEV_CLK_IMO_CONFIG */
 231:Generated_Source\PSoC4/cyfitter_cfg.c **** 	CY_SET_REG32((void *)(CYREG_CLK_IMO_CONFIG), 0x80000000u);
 232:Generated_Source\PSoC4/cyfitter_cfg.c **** 
 233:Generated_Source\PSoC4/cyfitter_cfg.c **** 	/* CYDEV_CLK_SELECT Starting address: CYDEV_CLK_SELECT */
 234:Generated_Source\PSoC4/cyfitter_cfg.c **** 	CY_SET_REG32((void *)(CYREG_CLK_SELECT), 0x00040000u);
 235:Generated_Source\PSoC4/cyfitter_cfg.c **** 
 236:Generated_Source\PSoC4/cyfitter_cfg.c **** 	/* CYDEV_PERI_PCLK_CTL19 Starting address: CYDEV_PERI_PCLK_CTL19 */
ARM GAS  C:\Users\LUCASC~1\AppData\Local\Temp\ccMspCyA.s 			page 7


 237:Generated_Source\PSoC4/cyfitter_cfg.c **** 	CY_SET_REG32((void *)(CYREG_PERI_PCLK_CTL19), 0x00000042u);
 238:Generated_Source\PSoC4/cyfitter_cfg.c **** 
 239:Generated_Source\PSoC4/cyfitter_cfg.c **** 	/* CYDEV_PERI_PCLK_CTL3 Starting address: CYDEV_PERI_PCLK_CTL3 */
 240:Generated_Source\PSoC4/cyfitter_cfg.c **** 	CY_SET_REG32((void *)(CYREG_PERI_PCLK_CTL3), 0x00000041u);
 241:Generated_Source\PSoC4/cyfitter_cfg.c **** 
 242:Generated_Source\PSoC4/cyfitter_cfg.c **** 	/* CYDEV_PERI_PCLK_CTL2 Starting address: CYDEV_PERI_PCLK_CTL2 */
 243:Generated_Source\PSoC4/cyfitter_cfg.c **** 	CY_SET_REG32((void *)(CYREG_PERI_PCLK_CTL2), 0x00000040u);
 244:Generated_Source\PSoC4/cyfitter_cfg.c **** 
 245:Generated_Source\PSoC4/cyfitter_cfg.c **** 	(void)CyIntSetVector(8u, &CySysWdtIsr);
 246:Generated_Source\PSoC4/cyfitter_cfg.c **** 	CyIntEnable(8u);
 247:Generated_Source\PSoC4/cyfitter_cfg.c **** 	CY_SET_REG32((void *)(CYREG_WDT_CONFIG), 0x00000000u);
 248:Generated_Source\PSoC4/cyfitter_cfg.c **** }
 249:Generated_Source\PSoC4/cyfitter_cfg.c **** 
 250:Generated_Source\PSoC4/cyfitter_cfg.c **** 
 251:Generated_Source\PSoC4/cyfitter_cfg.c **** /* Analog API Functions */
 252:Generated_Source\PSoC4/cyfitter_cfg.c **** 
 253:Generated_Source\PSoC4/cyfitter_cfg.c **** 
 254:Generated_Source\PSoC4/cyfitter_cfg.c **** /*******************************************************************************
 255:Generated_Source\PSoC4/cyfitter_cfg.c **** * Function Name: AnalogSetDefault
 256:Generated_Source\PSoC4/cyfitter_cfg.c **** ********************************************************************************
 257:Generated_Source\PSoC4/cyfitter_cfg.c **** *
 258:Generated_Source\PSoC4/cyfitter_cfg.c **** * Summary:
 259:Generated_Source\PSoC4/cyfitter_cfg.c **** *  Sets up the analog portions of the chip to default values based on chip
 260:Generated_Source\PSoC4/cyfitter_cfg.c **** *  configuration options from the project.
 261:Generated_Source\PSoC4/cyfitter_cfg.c **** *
 262:Generated_Source\PSoC4/cyfitter_cfg.c **** * Parameters:
 263:Generated_Source\PSoC4/cyfitter_cfg.c **** *  void
 264:Generated_Source\PSoC4/cyfitter_cfg.c **** *
 265:Generated_Source\PSoC4/cyfitter_cfg.c **** * Return:
 266:Generated_Source\PSoC4/cyfitter_cfg.c **** *  void
 267:Generated_Source\PSoC4/cyfitter_cfg.c **** *
 268:Generated_Source\PSoC4/cyfitter_cfg.c **** *******************************************************************************/
 269:Generated_Source\PSoC4/cyfitter_cfg.c **** static void AnalogSetDefault(void);
 270:Generated_Source\PSoC4/cyfitter_cfg.c **** static void AnalogSetDefault(void)
 271:Generated_Source\PSoC4/cyfitter_cfg.c **** {
 104              		.loc 1 271 0
 105              		.cfi_startproc
 106              		@ args = 0, pretend = 0, frame = 0
 107              		@ frame_needed = 0, uses_anonymous_args = 0
 108              		@ link register save eliminated.
 272:Generated_Source\PSoC4/cyfitter_cfg.c **** 	CY_SET_XTND_REG32((void CYFAR *)CYREG_CTBM0_DFT_CTRL, 0x00000003u);
 109              		.loc 1 272 0
 110 0000 0323     		movs	r3, #3
 111 0002 044A     		ldr	r2, .L7
 112 0004 1360     		str	r3, [r2]
 273:Generated_Source\PSoC4/cyfitter_cfg.c **** 	CY_SET_XTND_REG32((void CYFAR *)CYREG_CTBM1_DFT_CTRL, 0x00000003u);
 113              		.loc 1 273 0
 114 0006 044A     		ldr	r2, .L7+4
 115 0008 1360     		str	r3, [r2]
 274:Generated_Source\PSoC4/cyfitter_cfg.c **** 	CY_SET_XTND_REG32((void CYFAR *)CYREG_PASS_DSAB_DSAB_CTRL, 0x00000000u);
 116              		.loc 1 274 0
 117 000a 0022     		movs	r2, #0
 118 000c 034B     		ldr	r3, .L7+8
 119 000e 1A60     		str	r2, [r3]
 275:Generated_Source\PSoC4/cyfitter_cfg.c **** }
 120              		.loc 1 275 0
 121              		@ sp needed
ARM GAS  C:\Users\LUCASC~1\AppData\Local\Temp\ccMspCyA.s 			page 8


 122 0010 7047     		bx	lr
 123              	.L8:
 124 0012 C046     		.align	2
 125              	.L7:
 126 0014 30003040 		.word	1076887600
 127 0018 30003140 		.word	1076953136
 128 001c 000E3F40 		.word	1077874176
 129              		.cfi_endproc
 130              	.LFE6:
 131              		.size	AnalogSetDefault, .-AnalogSetDefault
 132              		.section	.text.CYMEMZERO,"ax",%progbits
 133              		.align	2
 134              		.code	16
 135              		.thumb_func
 136              		.type	CYMEMZERO, %function
 137              	CYMEMZERO:
 138              	.LFB1:
  77:Generated_Source\PSoC4/cyfitter_cfg.c **** 	(void)memset(s, 0, n);
 139              		.loc 1 77 0
 140              		.cfi_startproc
 141              		@ args = 0, pretend = 0, frame = 0
 142              		@ frame_needed = 0, uses_anonymous_args = 0
 143              	.LVL12:
 144 0000 10B5     		push	{r4, lr}
 145              		.cfi_def_cfa_offset 8
 146              		.cfi_offset 4, -8
 147              		.cfi_offset 14, -4
 148 0002 0A00     		movs	r2, r1
  78:Generated_Source\PSoC4/cyfitter_cfg.c **** }
 149              		.loc 1 78 0
 150 0004 0021     		movs	r1, #0
 151              	.LVL13:
 152 0006 FFF7FEFF 		bl	memset
 153              	.LVL14:
  79:Generated_Source\PSoC4/cyfitter_cfg.c **** CY_CFG_UNUSED
 154              		.loc 1 79 0
 155              		@ sp needed
 156 000a 10BD     		pop	{r4, pc}
 157              		.cfi_endproc
 158              	.LFE1:
 159              		.size	CYMEMZERO, .-CYMEMZERO
 160              		.section	.psocinit,"ax",%progbits
 161              		.align	2
 162              		.code	16
 163              		.thumb_func
 164              		.type	ClockSetup, %function
 165              	ClockSetup:
 166              	.LFB5:
 212:Generated_Source\PSoC4/cyfitter_cfg.c **** 
 167              		.loc 1 212 0
 168              		.cfi_startproc
 169              		@ args = 0, pretend = 0, frame = 0
 170              		@ frame_needed = 0, uses_anonymous_args = 0
 171 0000 10B5     		push	{r4, lr}
 172              		.cfi_def_cfa_offset 8
 173              		.cfi_offset 4, -8
 174              		.cfi_offset 14, -4
ARM GAS  C:\Users\LUCASC~1\AppData\Local\Temp\ccMspCyA.s 			page 9


 215:Generated_Source\PSoC4/cyfitter_cfg.c **** 	/* Setup and trim IMO based on desired frequency. */
 175              		.loc 1 215 0
 176 0002 1222     		movs	r2, #18
 177 0004 1A4B     		ldr	r3, .L11
 178 0006 1A60     		str	r2, [r3]
 217:Generated_Source\PSoC4/cyfitter_cfg.c **** 	/* CYDEV_CLK_ILO_CONFIG Starting address: CYDEV_CLK_ILO_CONFIG */
 179              		.loc 1 217 0
 180 0008 3020     		movs	r0, #48
 181 000a FFF7FEFF 		bl	CySysClkWriteImoFreq
 182              	.LVL15:
 219:Generated_Source\PSoC4/cyfitter_cfg.c **** 
 183              		.loc 1 219 0
 184 000e 194A     		ldr	r2, .L11+4
 185 0010 194B     		ldr	r3, .L11+8
 186 0012 1A60     		str	r2, [r3]
 223:Generated_Source\PSoC4/cyfitter_cfg.c **** 	CY_SET_REG32((void *)CYREG_PERI_DIV_CMD, 0x8000FF42u);
 187              		.loc 1 223 0
 188 0014 CC22     		movs	r2, #204
 189 0016 9201     		lsls	r2, r2, #6
 190 0018 184B     		ldr	r3, .L11+12
 191 001a 1A60     		str	r2, [r3]
 224:Generated_Source\PSoC4/cyfitter_cfg.c **** 	CY_SET_REG32((void *)CYREG_PERI_DIV_16_CTL1, 0x00001D00u);
 192              		.loc 1 224 0
 193 001c 184B     		ldr	r3, .L11+16
 194 001e 194A     		ldr	r2, .L11+20
 195 0020 1A60     		str	r2, [r3]
 225:Generated_Source\PSoC4/cyfitter_cfg.c **** 	CY_SET_REG32((void *)CYREG_PERI_DIV_CMD, 0x8000FF41u);
 196              		.loc 1 225 0
 197 0022 E822     		movs	r2, #232
 198 0024 5201     		lsls	r2, r2, #5
 199 0026 1849     		ldr	r1, .L11+24
 200 0028 0A60     		str	r2, [r1]
 226:Generated_Source\PSoC4/cyfitter_cfg.c **** 	CY_SET_REG32((void *)CYREG_PERI_DIV_16_CTL0, 0x00001D00u);
 201              		.loc 1 226 0
 202 002a 1849     		ldr	r1, .L11+28
 203 002c 1960     		str	r1, [r3]
 227:Generated_Source\PSoC4/cyfitter_cfg.c **** 	CY_SET_REG32((void *)CYREG_PERI_DIV_CMD, 0x8000FF40u);
 204              		.loc 1 227 0
 205 002e 1849     		ldr	r1, .L11+32
 206 0030 0A60     		str	r2, [r1]
 228:Generated_Source\PSoC4/cyfitter_cfg.c **** 
 207              		.loc 1 228 0
 208 0032 184A     		ldr	r2, .L11+36
 209 0034 1A60     		str	r2, [r3]
 231:Generated_Source\PSoC4/cyfitter_cfg.c **** 
 210              		.loc 1 231 0
 211 0036 8022     		movs	r2, #128
 212 0038 1206     		lsls	r2, r2, #24
 213 003a 174B     		ldr	r3, .L11+40
 214 003c 1A60     		str	r2, [r3]
 234:Generated_Source\PSoC4/cyfitter_cfg.c **** 
 215              		.loc 1 234 0
 216 003e 8022     		movs	r2, #128
 217 0040 D202     		lsls	r2, r2, #11
 218 0042 164B     		ldr	r3, .L11+44
 219 0044 1A60     		str	r2, [r3]
 237:Generated_Source\PSoC4/cyfitter_cfg.c **** 
ARM GAS  C:\Users\LUCASC~1\AppData\Local\Temp\ccMspCyA.s 			page 10


 220              		.loc 1 237 0
 221 0046 4222     		movs	r2, #66
 222 0048 154B     		ldr	r3, .L11+48
 223 004a 1A60     		str	r2, [r3]
 240:Generated_Source\PSoC4/cyfitter_cfg.c **** 
 224              		.loc 1 240 0
 225 004c 013A     		subs	r2, r2, #1
 226 004e 154B     		ldr	r3, .L11+52
 227 0050 1A60     		str	r2, [r3]
 243:Generated_Source\PSoC4/cyfitter_cfg.c **** 
 228              		.loc 1 243 0
 229 0052 013A     		subs	r2, r2, #1
 230 0054 144B     		ldr	r3, .L11+56
 231 0056 1A60     		str	r2, [r3]
 245:Generated_Source\PSoC4/cyfitter_cfg.c **** 	CyIntEnable(8u);
 232              		.loc 1 245 0
 233 0058 1449     		ldr	r1, .L11+60
 234 005a 0820     		movs	r0, #8
 235 005c FFF7FEFF 		bl	CyIntSetVector
 236              	.LVL16:
 246:Generated_Source\PSoC4/cyfitter_cfg.c **** 	CY_SET_REG32((void *)(CYREG_WDT_CONFIG), 0x00000000u);
 237              		.loc 1 246 0
 238 0060 0820     		movs	r0, #8
 239 0062 FFF7FEFF 		bl	CyIntEnable
 240              	.LVL17:
 247:Generated_Source\PSoC4/cyfitter_cfg.c **** }
 241              		.loc 1 247 0
 242 0066 0022     		movs	r2, #0
 243 0068 114B     		ldr	r3, .L11+64
 244 006a 1A60     		str	r2, [r3]
 248:Generated_Source\PSoC4/cyfitter_cfg.c **** 
 245              		.loc 1 248 0
 246              		@ sp needed
 247 006c 10BD     		pop	{r4, pc}
 248              	.L12:
 249 006e C046     		.align	2
 250              	.L11:
 251 0070 30001040 		.word	1074790448
 252 0074 06000080 		.word	-2147483642
 253 0078 04010B40 		.word	1074462980
 254 007c 08030140 		.word	1073808136
 255 0080 00000140 		.word	1073807360
 256 0084 42FF0080 		.word	-2147418302
 257 0088 04030140 		.word	1073808132
 258 008c 41FF0080 		.word	-2147418303
 259 0090 00030140 		.word	1073808128
 260 0094 40FF0080 		.word	-2147418304
 261 0098 08010B40 		.word	1074462984
 262 009c 00010B40 		.word	1074462976
 263 00a0 4C010140 		.word	1073807692
 264 00a4 0C010140 		.word	1073807628
 265 00a8 08010140 		.word	1073807624
 266 00ac 00000000 		.word	CySysWdtIsr
 267 00b0 0C020B40 		.word	1074463244
 268              		.cfi_endproc
 269              	.LFE5:
 270              		.size	ClockSetup, .-ClockSetup
ARM GAS  C:\Users\LUCASC~1\AppData\Local\Temp\ccMspCyA.s 			page 11


 271              		.align	2
 272              		.global	cyfitter_cfg
 273              		.code	16
 274              		.thumb_func
 275              		.type	cyfitter_cfg, %function
 276              	cyfitter_cfg:
 277              	.LFB7:
 276:Generated_Source\PSoC4/cyfitter_cfg.c **** 
 277:Generated_Source\PSoC4/cyfitter_cfg.c **** 
 278:Generated_Source\PSoC4/cyfitter_cfg.c **** 
 279:Generated_Source\PSoC4/cyfitter_cfg.c **** 
 280:Generated_Source\PSoC4/cyfitter_cfg.c **** /*******************************************************************************
 281:Generated_Source\PSoC4/cyfitter_cfg.c **** * Function Name: cyfitter_cfg
 282:Generated_Source\PSoC4/cyfitter_cfg.c **** ********************************************************************************
 283:Generated_Source\PSoC4/cyfitter_cfg.c **** * Summary:
 284:Generated_Source\PSoC4/cyfitter_cfg.c **** *  This function is called by the start-up code for the selected device. It
 285:Generated_Source\PSoC4/cyfitter_cfg.c **** *  performs all of the necessary device configuration based on the design
 286:Generated_Source\PSoC4/cyfitter_cfg.c **** *  settings.  This includes settings from the Design Wide Resources (DWR) such
 287:Generated_Source\PSoC4/cyfitter_cfg.c **** *  as Clocks and Pins as well as any component configuration that is necessary.
 288:Generated_Source\PSoC4/cyfitter_cfg.c **** *
 289:Generated_Source\PSoC4/cyfitter_cfg.c **** * Parameters:
 290:Generated_Source\PSoC4/cyfitter_cfg.c **** *   void
 291:Generated_Source\PSoC4/cyfitter_cfg.c **** *
 292:Generated_Source\PSoC4/cyfitter_cfg.c **** * Return:
 293:Generated_Source\PSoC4/cyfitter_cfg.c **** *   void
 294:Generated_Source\PSoC4/cyfitter_cfg.c **** *
 295:Generated_Source\PSoC4/cyfitter_cfg.c **** *******************************************************************************/
 296:Generated_Source\PSoC4/cyfitter_cfg.c **** CY_CFG_SECTION
 297:Generated_Source\PSoC4/cyfitter_cfg.c **** void cyfitter_cfg(void)
 298:Generated_Source\PSoC4/cyfitter_cfg.c **** {
 278              		.loc 1 298 0
 279              		.cfi_startproc
 280              		@ args = 0, pretend = 0, frame = 0
 281              		@ frame_needed = 0, uses_anonymous_args = 0
 282 00b4 10B5     		push	{r4, lr}
 283              		.cfi_def_cfa_offset 8
 284              		.cfi_offset 4, -8
 285              		.cfi_offset 14, -4
 299:Generated_Source\PSoC4/cyfitter_cfg.c **** 	/* Disable interrupts by default. Let user enable if/when they want. */
 300:Generated_Source\PSoC4/cyfitter_cfg.c **** 	CyGlobalIntDisable;
 286              		.loc 1 300 0
 287              		.syntax divided
 288              	@ 300 "Generated_Source\PSoC4\cyfitter_cfg.c" 1
 289 00b6 72B6     		CPSID   i
 290              	@ 0 "" 2
 291              	.LVL18:
 292              		.thumb
 293              		.syntax unified
 294              	.LBB3:
 301:Generated_Source\PSoC4/cyfitter_cfg.c **** 
 302:Generated_Source\PSoC4/cyfitter_cfg.c **** 	{
 303:Generated_Source\PSoC4/cyfitter_cfg.c **** 		static const uint32 CYCODE cy_cfg_addr_table[] = {
 304:Generated_Source\PSoC4/cyfitter_cfg.c **** 			0x400F0001u, /* Base address: 0x400F0000 Count: 1 */
 305:Generated_Source\PSoC4/cyfitter_cfg.c **** 			0x400F365Fu, /* Base address: 0x400F3600 Count: 95 */
 306:Generated_Source\PSoC4/cyfitter_cfg.c **** 			0x400F3738u, /* Base address: 0x400F3700 Count: 56 */
 307:Generated_Source\PSoC4/cyfitter_cfg.c **** 			0x400F4704u, /* Base address: 0x400F4700 Count: 4 */
 308:Generated_Source\PSoC4/cyfitter_cfg.c **** 			0x400F6002u, /* Base address: 0x400F6000 Count: 2 */
ARM GAS  C:\Users\LUCASC~1\AppData\Local\Temp\ccMspCyA.s 			page 12


 309:Generated_Source\PSoC4/cyfitter_cfg.c **** 		};
 310:Generated_Source\PSoC4/cyfitter_cfg.c **** 
 311:Generated_Source\PSoC4/cyfitter_cfg.c **** 		static const cy_cfg_addrvalue_t CYCODE cy_cfg_data_table[] = {
 312:Generated_Source\PSoC4/cyfitter_cfg.c **** 			{0x87u, 0x0Fu},
 313:Generated_Source\PSoC4/cyfitter_cfg.c **** 			{0x05u, 0x80u},
 314:Generated_Source\PSoC4/cyfitter_cfg.c **** 			{0x07u, 0x13u},
 315:Generated_Source\PSoC4/cyfitter_cfg.c **** 			{0x08u, 0x06u},
 316:Generated_Source\PSoC4/cyfitter_cfg.c **** 			{0x0Au, 0x09u},
 317:Generated_Source\PSoC4/cyfitter_cfg.c **** 			{0x0Bu, 0x08u},
 318:Generated_Source\PSoC4/cyfitter_cfg.c **** 			{0x0Cu, 0x07u},
 319:Generated_Source\PSoC4/cyfitter_cfg.c **** 			{0x0Eu, 0x08u},
 320:Generated_Source\PSoC4/cyfitter_cfg.c **** 			{0x17u, 0x0Cu},
 321:Generated_Source\PSoC4/cyfitter_cfg.c **** 			{0x19u, 0x2Cu},
 322:Generated_Source\PSoC4/cyfitter_cfg.c **** 			{0x1Au, 0x0Bu},
 323:Generated_Source\PSoC4/cyfitter_cfg.c **** 			{0x1Bu, 0x43u},
 324:Generated_Source\PSoC4/cyfitter_cfg.c **** 			{0x1Cu, 0x07u},
 325:Generated_Source\PSoC4/cyfitter_cfg.c **** 			{0x1Eu, 0x18u},
 326:Generated_Source\PSoC4/cyfitter_cfg.c **** 			{0x21u, 0x71u},
 327:Generated_Source\PSoC4/cyfitter_cfg.c **** 			{0x23u, 0x06u},
 328:Generated_Source\PSoC4/cyfitter_cfg.c **** 			{0x26u, 0x10u},
 329:Generated_Source\PSoC4/cyfitter_cfg.c **** 			{0x28u, 0x14u},
 330:Generated_Source\PSoC4/cyfitter_cfg.c **** 			{0x2Au, 0x09u},
 331:Generated_Source\PSoC4/cyfitter_cfg.c **** 			{0x2Du, 0x71u},
 332:Generated_Source\PSoC4/cyfitter_cfg.c **** 			{0x2Fu, 0x0Eu},
 333:Generated_Source\PSoC4/cyfitter_cfg.c **** 			{0x30u, 0x01u},
 334:Generated_Source\PSoC4/cyfitter_cfg.c **** 			{0x31u, 0x30u},
 335:Generated_Source\PSoC4/cyfitter_cfg.c **** 			{0x33u, 0x0Fu},
 336:Generated_Source\PSoC4/cyfitter_cfg.c **** 			{0x35u, 0xC0u},
 337:Generated_Source\PSoC4/cyfitter_cfg.c **** 			{0x36u, 0x1Eu},
 338:Generated_Source\PSoC4/cyfitter_cfg.c **** 			{0x39u, 0x22u},
 339:Generated_Source\PSoC4/cyfitter_cfg.c **** 			{0x3Au, 0x80u},
 340:Generated_Source\PSoC4/cyfitter_cfg.c **** 			{0x3Bu, 0x08u},
 341:Generated_Source\PSoC4/cyfitter_cfg.c **** 			{0x3Eu, 0x01u},
 342:Generated_Source\PSoC4/cyfitter_cfg.c **** 			{0x3Fu, 0x01u},
 343:Generated_Source\PSoC4/cyfitter_cfg.c **** 			{0x40u, 0x01u},
 344:Generated_Source\PSoC4/cyfitter_cfg.c **** 			{0x46u, 0x40u},
 345:Generated_Source\PSoC4/cyfitter_cfg.c **** 			{0x49u, 0xFFu},
 346:Generated_Source\PSoC4/cyfitter_cfg.c **** 			{0x4Au, 0x07u},
 347:Generated_Source\PSoC4/cyfitter_cfg.c **** 			{0x4Bu, 0xFFu},
 348:Generated_Source\PSoC4/cyfitter_cfg.c **** 			{0x4Cu, 0x40u},
 349:Generated_Source\PSoC4/cyfitter_cfg.c **** 			{0x4Du, 0x20u},
 350:Generated_Source\PSoC4/cyfitter_cfg.c **** 			{0x4Eu, 0xF0u},
 351:Generated_Source\PSoC4/cyfitter_cfg.c **** 			{0x4Fu, 0x05u},
 352:Generated_Source\PSoC4/cyfitter_cfg.c **** 			{0x50u, 0x08u},
 353:Generated_Source\PSoC4/cyfitter_cfg.c **** 			{0x58u, 0x04u},
 354:Generated_Source\PSoC4/cyfitter_cfg.c **** 			{0x59u, 0x04u},
 355:Generated_Source\PSoC4/cyfitter_cfg.c **** 			{0x5Au, 0x04u},
 356:Generated_Source\PSoC4/cyfitter_cfg.c **** 			{0x5Fu, 0x01u},
 357:Generated_Source\PSoC4/cyfitter_cfg.c **** 			{0x60u, 0x40u},
 358:Generated_Source\PSoC4/cyfitter_cfg.c **** 			{0x61u, 0xA8u},
 359:Generated_Source\PSoC4/cyfitter_cfg.c **** 			{0x62u, 0x40u},
 360:Generated_Source\PSoC4/cyfitter_cfg.c **** 			{0x63u, 0x20u},
 361:Generated_Source\PSoC4/cyfitter_cfg.c **** 			{0x82u, 0x05u},
 362:Generated_Source\PSoC4/cyfitter_cfg.c **** 			{0x83u, 0x03u},
 363:Generated_Source\PSoC4/cyfitter_cfg.c **** 			{0x85u, 0x14u},
 364:Generated_Source\PSoC4/cyfitter_cfg.c **** 			{0x86u, 0x06u},
 365:Generated_Source\PSoC4/cyfitter_cfg.c **** 			{0x89u, 0x10u},
ARM GAS  C:\Users\LUCASC~1\AppData\Local\Temp\ccMspCyA.s 			page 13


 366:Generated_Source\PSoC4/cyfitter_cfg.c **** 			{0x8Du, 0x0Cu},
 367:Generated_Source\PSoC4/cyfitter_cfg.c **** 			{0x8Eu, 0x03u},
 368:Generated_Source\PSoC4/cyfitter_cfg.c **** 			{0x8Fu, 0x11u},
 369:Generated_Source\PSoC4/cyfitter_cfg.c **** 			{0x90u, 0x10u},
 370:Generated_Source\PSoC4/cyfitter_cfg.c **** 			{0x94u, 0x06u},
 371:Generated_Source\PSoC4/cyfitter_cfg.c **** 			{0x95u, 0x1Cu},
 372:Generated_Source\PSoC4/cyfitter_cfg.c **** 			{0x96u, 0x01u},
 373:Generated_Source\PSoC4/cyfitter_cfg.c **** 			{0x97u, 0x02u},
 374:Generated_Source\PSoC4/cyfitter_cfg.c **** 			{0x98u, 0x08u},
 375:Generated_Source\PSoC4/cyfitter_cfg.c **** 			{0x99u, 0x09u},
 376:Generated_Source\PSoC4/cyfitter_cfg.c **** 			{0x9Bu, 0x10u},
 377:Generated_Source\PSoC4/cyfitter_cfg.c **** 			{0xA1u, 0x10u},
 378:Generated_Source\PSoC4/cyfitter_cfg.c **** 			{0xA3u, 0x0Cu},
 379:Generated_Source\PSoC4/cyfitter_cfg.c **** 			{0xA6u, 0x01u},
 380:Generated_Source\PSoC4/cyfitter_cfg.c **** 			{0xAAu, 0x02u},
 381:Generated_Source\PSoC4/cyfitter_cfg.c **** 			{0xB2u, 0x08u},
 382:Generated_Source\PSoC4/cyfitter_cfg.c **** 			{0xB4u, 0x10u},
 383:Generated_Source\PSoC4/cyfitter_cfg.c **** 			{0xB6u, 0x07u},
 384:Generated_Source\PSoC4/cyfitter_cfg.c **** 			{0xB7u, 0x1Fu},
 385:Generated_Source\PSoC4/cyfitter_cfg.c **** 			{0xBAu, 0x80u},
 386:Generated_Source\PSoC4/cyfitter_cfg.c **** 			{0xBEu, 0x14u},
 387:Generated_Source\PSoC4/cyfitter_cfg.c **** 			{0xC0u, 0x12u},
 388:Generated_Source\PSoC4/cyfitter_cfg.c **** 			{0xC1u, 0x05u},
 389:Generated_Source\PSoC4/cyfitter_cfg.c **** 			{0xC5u, 0xEEu},
 390:Generated_Source\PSoC4/cyfitter_cfg.c **** 			{0xC6u, 0xC0u},
 391:Generated_Source\PSoC4/cyfitter_cfg.c **** 			{0xC7u, 0x0Bu},
 392:Generated_Source\PSoC4/cyfitter_cfg.c **** 			{0xC8u, 0x1Bu},
 393:Generated_Source\PSoC4/cyfitter_cfg.c **** 			{0xC9u, 0xFFu},
 394:Generated_Source\PSoC4/cyfitter_cfg.c **** 			{0xCAu, 0xFFu},
 395:Generated_Source\PSoC4/cyfitter_cfg.c **** 			{0xCBu, 0xFFu},
 396:Generated_Source\PSoC4/cyfitter_cfg.c **** 			{0xCEu, 0xF0u},
 397:Generated_Source\PSoC4/cyfitter_cfg.c **** 			{0xCFu, 0x44u},
 398:Generated_Source\PSoC4/cyfitter_cfg.c **** 			{0xD0u, 0x0Cu},
 399:Generated_Source\PSoC4/cyfitter_cfg.c **** 			{0xD4u, 0x01u},
 400:Generated_Source\PSoC4/cyfitter_cfg.c **** 			{0xD8u, 0x04u},
 401:Generated_Source\PSoC4/cyfitter_cfg.c **** 			{0xD9u, 0x04u},
 402:Generated_Source\PSoC4/cyfitter_cfg.c **** 			{0xDAu, 0x04u},
 403:Generated_Source\PSoC4/cyfitter_cfg.c **** 			{0xDBu, 0x04u},
 404:Generated_Source\PSoC4/cyfitter_cfg.c **** 			{0xDFu, 0x01u},
 405:Generated_Source\PSoC4/cyfitter_cfg.c **** 			{0xE6u, 0xC0u},
 406:Generated_Source\PSoC4/cyfitter_cfg.c **** 			{0xEAu, 0x40u},
 407:Generated_Source\PSoC4/cyfitter_cfg.c **** 			{0xEBu, 0x02u},
 408:Generated_Source\PSoC4/cyfitter_cfg.c **** 			{0x01u, 0x80u},
 409:Generated_Source\PSoC4/cyfitter_cfg.c **** 			{0x02u, 0x20u},
 410:Generated_Source\PSoC4/cyfitter_cfg.c **** 			{0x03u, 0x80u},
 411:Generated_Source\PSoC4/cyfitter_cfg.c **** 			{0x04u, 0x20u},
 412:Generated_Source\PSoC4/cyfitter_cfg.c **** 			{0x05u, 0xA0u},
 413:Generated_Source\PSoC4/cyfitter_cfg.c **** 			{0x09u, 0x08u},
 414:Generated_Source\PSoC4/cyfitter_cfg.c **** 			{0x0Au, 0x80u},
 415:Generated_Source\PSoC4/cyfitter_cfg.c **** 			{0x0Bu, 0x08u},
 416:Generated_Source\PSoC4/cyfitter_cfg.c **** 			{0x0Eu, 0x02u},
 417:Generated_Source\PSoC4/cyfitter_cfg.c **** 			{0x0Fu, 0x08u},
 418:Generated_Source\PSoC4/cyfitter_cfg.c **** 			{0x10u, 0x20u},
 419:Generated_Source\PSoC4/cyfitter_cfg.c **** 			{0x11u, 0x20u},
 420:Generated_Source\PSoC4/cyfitter_cfg.c **** 			{0x17u, 0x28u},
 421:Generated_Source\PSoC4/cyfitter_cfg.c **** 			{0x18u, 0x04u},
 422:Generated_Source\PSoC4/cyfitter_cfg.c **** 			{0x19u, 0x84u},
ARM GAS  C:\Users\LUCASC~1\AppData\Local\Temp\ccMspCyA.s 			page 14


 423:Generated_Source\PSoC4/cyfitter_cfg.c **** 			{0x1Eu, 0x42u},
 424:Generated_Source\PSoC4/cyfitter_cfg.c **** 			{0x1Fu, 0x80u},
 425:Generated_Source\PSoC4/cyfitter_cfg.c **** 			{0x20u, 0x01u},
 426:Generated_Source\PSoC4/cyfitter_cfg.c **** 			{0x22u, 0x40u},
 427:Generated_Source\PSoC4/cyfitter_cfg.c **** 			{0x25u, 0x08u},
 428:Generated_Source\PSoC4/cyfitter_cfg.c **** 			{0x26u, 0x20u},
 429:Generated_Source\PSoC4/cyfitter_cfg.c **** 			{0x27u, 0x68u},
 430:Generated_Source\PSoC4/cyfitter_cfg.c **** 			{0x2Bu, 0x80u},
 431:Generated_Source\PSoC4/cyfitter_cfg.c **** 			{0x2Du, 0xC0u},
 432:Generated_Source\PSoC4/cyfitter_cfg.c **** 			{0x2Fu, 0x80u},
 433:Generated_Source\PSoC4/cyfitter_cfg.c **** 			{0x31u, 0x08u},
 434:Generated_Source\PSoC4/cyfitter_cfg.c **** 			{0x32u, 0x20u},
 435:Generated_Source\PSoC4/cyfitter_cfg.c **** 			{0x37u, 0x28u},
 436:Generated_Source\PSoC4/cyfitter_cfg.c **** 			{0x38u, 0x09u},
 437:Generated_Source\PSoC4/cyfitter_cfg.c **** 			{0x39u, 0x40u},
 438:Generated_Source\PSoC4/cyfitter_cfg.c **** 			{0x3Au, 0x10u},
 439:Generated_Source\PSoC4/cyfitter_cfg.c **** 			{0x3Du, 0x20u},
 440:Generated_Source\PSoC4/cyfitter_cfg.c **** 			{0x3Eu, 0x04u},
 441:Generated_Source\PSoC4/cyfitter_cfg.c **** 			{0x3Fu, 0x08u},
 442:Generated_Source\PSoC4/cyfitter_cfg.c **** 			{0x42u, 0x04u},
 443:Generated_Source\PSoC4/cyfitter_cfg.c **** 			{0x43u, 0x80u},
 444:Generated_Source\PSoC4/cyfitter_cfg.c **** 			{0x47u, 0x40u},
 445:Generated_Source\PSoC4/cyfitter_cfg.c **** 			{0x49u, 0x81u},
 446:Generated_Source\PSoC4/cyfitter_cfg.c **** 			{0x4Bu, 0x08u},
 447:Generated_Source\PSoC4/cyfitter_cfg.c **** 			{0x4Cu, 0x20u},
 448:Generated_Source\PSoC4/cyfitter_cfg.c **** 			{0x4Fu, 0x08u},
 449:Generated_Source\PSoC4/cyfitter_cfg.c **** 			{0x50u, 0x14u},
 450:Generated_Source\PSoC4/cyfitter_cfg.c **** 			{0x55u, 0x10u},
 451:Generated_Source\PSoC4/cyfitter_cfg.c **** 			{0x56u, 0x10u},
 452:Generated_Source\PSoC4/cyfitter_cfg.c **** 			{0x59u, 0x25u},
 453:Generated_Source\PSoC4/cyfitter_cfg.c **** 			{0x5Au, 0x40u},
 454:Generated_Source\PSoC4/cyfitter_cfg.c **** 			{0x8Cu, 0x04u},
 455:Generated_Source\PSoC4/cyfitter_cfg.c **** 			{0xC0u, 0xCDu},
 456:Generated_Source\PSoC4/cyfitter_cfg.c **** 			{0xC2u, 0xCEu},
 457:Generated_Source\PSoC4/cyfitter_cfg.c **** 			{0xC4u, 0x66u},
 458:Generated_Source\PSoC4/cyfitter_cfg.c **** 			{0xCAu, 0x91u},
 459:Generated_Source\PSoC4/cyfitter_cfg.c **** 			{0xCCu, 0x66u},
 460:Generated_Source\PSoC4/cyfitter_cfg.c **** 			{0xCEu, 0x6Fu},
 461:Generated_Source\PSoC4/cyfitter_cfg.c **** 			{0xD0u, 0x1Cu},
 462:Generated_Source\PSoC4/cyfitter_cfg.c **** 			{0xD2u, 0x08u},
 463:Generated_Source\PSoC4/cyfitter_cfg.c **** 			{0xD6u, 0x0Fu},
 464:Generated_Source\PSoC4/cyfitter_cfg.c **** 			{0x50u, 0x02u},
 465:Generated_Source\PSoC4/cyfitter_cfg.c **** 			{0x8Cu, 0x02u},
 466:Generated_Source\PSoC4/cyfitter_cfg.c **** 			{0xD4u, 0x01u},
 467:Generated_Source\PSoC4/cyfitter_cfg.c **** 			{0xE4u, 0x02u},
 468:Generated_Source\PSoC4/cyfitter_cfg.c **** 			{0x01u, 0x01u},
 469:Generated_Source\PSoC4/cyfitter_cfg.c **** 			{0x12u, 0x01u},
 470:Generated_Source\PSoC4/cyfitter_cfg.c **** 		};
 471:Generated_Source\PSoC4/cyfitter_cfg.c **** 
 472:Generated_Source\PSoC4/cyfitter_cfg.c **** 
 473:Generated_Source\PSoC4/cyfitter_cfg.c **** 
 474:Generated_Source\PSoC4/cyfitter_cfg.c **** 		CYPACKED typedef struct {
 475:Generated_Source\PSoC4/cyfitter_cfg.c **** 			void CYFAR *address;
 476:Generated_Source\PSoC4/cyfitter_cfg.c **** 			uint16 size;
 477:Generated_Source\PSoC4/cyfitter_cfg.c **** 		} CYPACKED_ATTR cfg_memset_t;
 478:Generated_Source\PSoC4/cyfitter_cfg.c **** 
 479:Generated_Source\PSoC4/cyfitter_cfg.c **** 		static const cfg_memset_t CYCODE cfg_memset_list[] = {
ARM GAS  C:\Users\LUCASC~1\AppData\Local\Temp\ccMspCyA.s 			page 15


 480:Generated_Source\PSoC4/cyfitter_cfg.c **** 			/* address, size */
 481:Generated_Source\PSoC4/cyfitter_cfg.c **** 			{(void CYFAR *)(CYDEV_UDB_P0_U0_BASE), 2048u},
 482:Generated_Source\PSoC4/cyfitter_cfg.c **** 			{(void CYFAR *)(CYDEV_UDB_DSI0_BASE), 2048u},
 483:Generated_Source\PSoC4/cyfitter_cfg.c **** 		};
 484:Generated_Source\PSoC4/cyfitter_cfg.c **** 
 485:Generated_Source\PSoC4/cyfitter_cfg.c **** 		uint8 CYDATA i;
 486:Generated_Source\PSoC4/cyfitter_cfg.c **** 
 487:Generated_Source\PSoC4/cyfitter_cfg.c **** 		/* Zero out critical memory blocks before beginning configuration */
 488:Generated_Source\PSoC4/cyfitter_cfg.c **** 		for (i = 0u; i < (sizeof(cfg_memset_list)/sizeof(cfg_memset_list[0])); i++)
 295              		.loc 1 488 0
 296 00b8 0024     		movs	r4, #0
 297 00ba 0FE0     		b	.L14
 298              	.LVL19:
 299              	.L15:
 300              	.LBB4:
 489:Generated_Source\PSoC4/cyfitter_cfg.c **** 		{
 490:Generated_Source\PSoC4/cyfitter_cfg.c **** 			const cfg_memset_t CYCODE * CYDATA ms = &cfg_memset_list[i];
 491:Generated_Source\PSoC4/cyfitter_cfg.c **** 			CYMEMZERO(ms->address, (size_t)(uint32)(ms->size));
 301              		.loc 1 491 0 discriminator 3
 302 00bc 2C48     		ldr	r0, .L16
 303 00be 6200     		lsls	r2, r4, #1
 304 00c0 1319     		adds	r3, r2, r4
 305 00c2 5900     		lsls	r1, r3, #1
 306 00c4 0B00     		movs	r3, r1
 307 00c6 4118     		adds	r1, r0, r1
 308 00c8 8988     		ldrh	r1, [r1, #4]
 309 00ca 1A5A     		ldrh	r2, [r3, r0]
 310 00cc C318     		adds	r3, r0, r3
 311 00ce 5888     		ldrh	r0, [r3, #2]
 312 00d0 0004     		lsls	r0, r0, #16
 313 00d2 1043     		orrs	r0, r2
 314 00d4 FFF7FEFF 		bl	CYMEMZERO
 315              	.LVL20:
 316              	.LBE4:
 488:Generated_Source\PSoC4/cyfitter_cfg.c **** 		{
 317              		.loc 1 488 0 discriminator 3
 318 00d8 0134     		adds	r4, r4, #1
 319              	.LVL21:
 320 00da E4B2     		uxtb	r4, r4
 321              	.LVL22:
 322              	.L14:
 488:Generated_Source\PSoC4/cyfitter_cfg.c **** 		{
 323              		.loc 1 488 0 is_stmt 0 discriminator 1
 324 00dc 012C     		cmp	r4, #1
 325 00de EDD9     		bls	.L15
 492:Generated_Source\PSoC4/cyfitter_cfg.c **** 		}
 493:Generated_Source\PSoC4/cyfitter_cfg.c **** 
 494:Generated_Source\PSoC4/cyfitter_cfg.c **** 		cfg_write_bytes32(cy_cfg_addr_table, cy_cfg_data_table);
 326              		.loc 1 494 0 is_stmt 1
 327 00e0 2349     		ldr	r1, .L16
 328 00e2 0C31     		adds	r1, r1, #12
 329 00e4 2348     		ldr	r0, .L16+4
 330 00e6 4830     		adds	r0, r0, #72
 331 00e8 FFF7FEFF 		bl	cfg_write_bytes32
 332              	.LVL23:
 495:Generated_Source\PSoC4/cyfitter_cfg.c **** 
 496:Generated_Source\PSoC4/cyfitter_cfg.c **** 		/* HSIOM Starting address: CYDEV_HSIOM_BASE */
ARM GAS  C:\Users\LUCASC~1\AppData\Local\Temp\ccMspCyA.s 			page 16


 497:Generated_Source\PSoC4/cyfitter_cfg.c **** 		CY_SET_REG32((void *)(CYREG_HSIOM_PORT_SEL2), 0x000000EEu);
 333              		.loc 1 497 0
 334 00ec EE23     		movs	r3, #238
 335 00ee 224A     		ldr	r2, .L16+8
 336 00f0 1360     		str	r3, [r2]
 498:Generated_Source\PSoC4/cyfitter_cfg.c **** 		CY_SET_REG32((void *)(CYREG_HSIOM_PORT_SEL3), 0x0000EE30u);
 337              		.loc 1 498 0
 338 00f2 2249     		ldr	r1, .L16+12
 339 00f4 224A     		ldr	r2, .L16+16
 340 00f6 1160     		str	r1, [r2]
 499:Generated_Source\PSoC4/cyfitter_cfg.c **** 		CY_SET_REG32((void *)(CYREG_HSIOM_PORT_SEL4), 0x000000EEu);
 341              		.loc 1 499 0
 342 00f8 224A     		ldr	r2, .L16+20
 343 00fa 1360     		str	r3, [r2]
 500:Generated_Source\PSoC4/cyfitter_cfg.c **** 
 501:Generated_Source\PSoC4/cyfitter_cfg.c **** 		/* UDB_PA_0 Starting address: CYDEV_UDB_PA0_BASE */
 502:Generated_Source\PSoC4/cyfitter_cfg.c **** 		CY_SET_REG32((void *)(CYDEV_UDB_PA0_BASE), 0x00990000u);
 344              		.loc 1 502 0
 345 00fc 9923     		movs	r3, #153
 346 00fe 1B04     		lsls	r3, r3, #16
 347 0100 214A     		ldr	r2, .L16+24
 348 0102 1360     		str	r3, [r2]
 503:Generated_Source\PSoC4/cyfitter_cfg.c **** 
 504:Generated_Source\PSoC4/cyfitter_cfg.c **** 		/* UDB_PA_2 Starting address: CYDEV_UDB_PA2_BASE */
 505:Generated_Source\PSoC4/cyfitter_cfg.c **** 		CY_SET_REG32((void *)(CYDEV_UDB_PA2_BASE), 0x00990000u);
 349              		.loc 1 505 0
 350 0104 214A     		ldr	r2, .L16+28
 351 0106 1360     		str	r3, [r2]
 506:Generated_Source\PSoC4/cyfitter_cfg.c **** 
 507:Generated_Source\PSoC4/cyfitter_cfg.c **** 		/* UDB_PA_5 Starting address: CYDEV_UDB_PA5_BASE */
 508:Generated_Source\PSoC4/cyfitter_cfg.c **** 		CY_SET_REG32((void *)(CYDEV_UDB_PA5_BASE), 0x00990000u);
 352              		.loc 1 508 0
 353 0108 214A     		ldr	r2, .L16+32
 354 010a 1360     		str	r3, [r2]
 509:Generated_Source\PSoC4/cyfitter_cfg.c **** 
 510:Generated_Source\PSoC4/cyfitter_cfg.c **** 		/* UDB_PA_7 Starting address: CYDEV_UDB_PA7_BASE */
 511:Generated_Source\PSoC4/cyfitter_cfg.c **** 		CY_SET_REG32((void *)(CYDEV_UDB_PA7_BASE), 0x00990000u);
 355              		.loc 1 511 0
 356 010c 214A     		ldr	r2, .L16+36
 357 010e 1360     		str	r3, [r2]
 512:Generated_Source\PSoC4/cyfitter_cfg.c **** 		CY_SET_REG32((void *)(CYREG_UDB_PA7_CFG8), 0x00080000u);
 358              		.loc 1 512 0
 359 0110 8022     		movs	r2, #128
 360 0112 1203     		lsls	r2, r2, #12
 361 0114 204B     		ldr	r3, .L16+40
 362 0116 1A60     		str	r2, [r3]
 513:Generated_Source\PSoC4/cyfitter_cfg.c **** 
 514:Generated_Source\PSoC4/cyfitter_cfg.c **** 		/* Enable UDB array and digital routing */
 515:Generated_Source\PSoC4/cyfitter_cfg.c **** 		CY_SET_XTND_REG8((void *)CYREG_UDB_UDB_WAIT_CFG, (uint8)((CY_GET_XTND_REG8((void *)CYREG_UDB_UDB_
 363              		.loc 1 515 0
 364 0118 2049     		ldr	r1, .L16+44
 365 011a 0B78     		ldrb	r3, [r1]
 366 011c 3C22     		movs	r2, #60
 367 011e 9343     		bics	r3, r2
 368 0120 1422     		movs	r2, #20
 369 0122 1343     		orrs	r3, r2
 370 0124 DBB2     		uxtb	r3, r3
ARM GAS  C:\Users\LUCASC~1\AppData\Local\Temp\ccMspCyA.s 			page 17


 371 0126 0B70     		strb	r3, [r1]
 516:Generated_Source\PSoC4/cyfitter_cfg.c **** 		CY_SET_XTND_REG8((void *)CYREG_UDB_UDB_BANK_CTL, (uint8)(CY_GET_XTND_REG8((void *)CYREG_UDB_UDB_B
 372              		.loc 1 516 0
 373 0128 1D4A     		ldr	r2, .L16+48
 374 012a 1178     		ldrb	r1, [r2]
 375 012c 1623     		movs	r3, #22
 376 012e 0B43     		orrs	r3, r1
 377 0130 DBB2     		uxtb	r3, r3
 378 0132 1370     		strb	r3, [r2]
 379              	.LBE3:
 517:Generated_Source\PSoC4/cyfitter_cfg.c **** 	}
 518:Generated_Source\PSoC4/cyfitter_cfg.c **** 
 519:Generated_Source\PSoC4/cyfitter_cfg.c **** 	/* Perform second pass device configuration. These items must be configured in specific order afte
 520:Generated_Source\PSoC4/cyfitter_cfg.c **** 	/* IOPINS0_2 Starting address: CYDEV_GPIO_PRT2_BASE */
 521:Generated_Source\PSoC4/cyfitter_cfg.c **** 	CY_SET_REG32((void *)(CYDEV_GPIO_PRT2_BASE), 0x00000003u);
 380              		.loc 1 521 0
 381 0134 0322     		movs	r2, #3
 382 0136 1B4B     		ldr	r3, .L16+52
 383 0138 1A60     		str	r2, [r3]
 522:Generated_Source\PSoC4/cyfitter_cfg.c **** 	CY_SET_REG32((void *)(CYREG_GPIO_PRT2_PC), 0x00000024u);
 384              		.loc 1 522 0
 385 013a 2423     		movs	r3, #36
 386 013c 1A49     		ldr	r1, .L16+56
 387 013e 0B60     		str	r3, [r1]
 523:Generated_Source\PSoC4/cyfitter_cfg.c **** 
 524:Generated_Source\PSoC4/cyfitter_cfg.c **** 	/* IOPINS0_3 Starting address: CYDEV_GPIO_PRT3_BASE */
 525:Generated_Source\PSoC4/cyfitter_cfg.c **** 	CY_SET_REG32((void *)(CYDEV_GPIO_PRT3_BASE), 0x00000002u);
 388              		.loc 1 525 0
 389 0140 0220     		movs	r0, #2
 390 0142 1A49     		ldr	r1, .L16+60
 391 0144 0860     		str	r0, [r1]
 526:Generated_Source\PSoC4/cyfitter_cfg.c **** 	CY_SET_REG32((void *)(CYREG_GPIO_PRT3_PC), 0x00000DB0u);
 392              		.loc 1 526 0
 393 0146 DB20     		movs	r0, #219
 394 0148 0001     		lsls	r0, r0, #4
 395 014a 1949     		ldr	r1, .L16+64
 396 014c 0860     		str	r0, [r1]
 527:Generated_Source\PSoC4/cyfitter_cfg.c **** 
 528:Generated_Source\PSoC4/cyfitter_cfg.c **** 	/* IOPINS0_4 Starting address: CYDEV_GPIO_PRT4_BASE */
 529:Generated_Source\PSoC4/cyfitter_cfg.c **** 	CY_SET_REG32((void *)(CYDEV_GPIO_PRT4_BASE), 0x00000003u);
 397              		.loc 1 529 0
 398 014e 1949     		ldr	r1, .L16+68
 399 0150 0A60     		str	r2, [r1]
 530:Generated_Source\PSoC4/cyfitter_cfg.c **** 	CY_SET_REG32((void *)(CYREG_GPIO_PRT4_PC), 0x00000024u);
 400              		.loc 1 530 0
 401 0152 194A     		ldr	r2, .L16+72
 402 0154 1360     		str	r3, [r2]
 531:Generated_Source\PSoC4/cyfitter_cfg.c **** 
 532:Generated_Source\PSoC4/cyfitter_cfg.c **** 	/* IOPINS0_5 Starting address: CYDEV_GPIO_PRT5_BASE */
 533:Generated_Source\PSoC4/cyfitter_cfg.c **** 	CY_SET_REG32((void *)(CYDEV_GPIO_PRT5_BASE), 0x00000004u);
 403              		.loc 1 533 0
 404 0156 0422     		movs	r2, #4
 405 0158 184B     		ldr	r3, .L16+76
 406 015a 1A60     		str	r2, [r3]
 534:Generated_Source\PSoC4/cyfitter_cfg.c **** 	CY_SET_REG32((void *)(CYREG_GPIO_PRT5_PC), 0x00000180u);
 407              		.loc 1 534 0
 408 015c 7D32     		adds	r2, r2, #125
ARM GAS  C:\Users\LUCASC~1\AppData\Local\Temp\ccMspCyA.s 			page 18


 409 015e FF32     		adds	r2, r2, #255
 410 0160 174B     		ldr	r3, .L16+80
 411 0162 1A60     		str	r2, [r3]
 535:Generated_Source\PSoC4/cyfitter_cfg.c **** 
 536:Generated_Source\PSoC4/cyfitter_cfg.c **** 
 537:Generated_Source\PSoC4/cyfitter_cfg.c **** 	/* Setup clocks based on selections from Clock DWR */
 538:Generated_Source\PSoC4/cyfitter_cfg.c **** 	ClockSetup();
 412              		.loc 1 538 0
 413 0164 FFF74CFF 		bl	ClockSetup
 414              	.LVL24:
 539:Generated_Source\PSoC4/cyfitter_cfg.c **** 
 540:Generated_Source\PSoC4/cyfitter_cfg.c **** 	/* Perform basic analog initialization to defaults */
 541:Generated_Source\PSoC4/cyfitter_cfg.c **** 	AnalogSetDefault();
 415              		.loc 1 541 0
 416 0168 FFF7FEFF 		bl	AnalogSetDefault
 417              	.LVL25:
 542:Generated_Source\PSoC4/cyfitter_cfg.c **** 
 543:Generated_Source\PSoC4/cyfitter_cfg.c **** }
 418              		.loc 1 543 0
 419              		@ sp needed
 420              	.LVL26:
 421 016c 10BD     		pop	{r4, pc}
 422              	.L17:
 423 016e C046     		.align	2
 424              	.L16:
 425 0170 00000000 		.word	.LANCHOR0
 426 0174 00010000 		.word	.LANCHOR1
 427 0178 00020240 		.word	1073873408
 428 017c 30EE0000 		.word	60976
 429 0180 00030240 		.word	1073873664
 430 0184 00040240 		.word	1073873920
 431 0188 00500F40 		.word	1074745344
 432 018c 20500F40 		.word	1074745376
 433 0190 50500F40 		.word	1074745424
 434 0194 70500F40 		.word	1074745456
 435 0198 78500F40 		.word	1074745464
 436 019c 01700F40 		.word	1074753537
 437 01a0 00700F40 		.word	1074753536
 438 01a4 00020440 		.word	1074004480
 439 01a8 08020440 		.word	1074004488
 440 01ac 00030440 		.word	1074004736
 441 01b0 08030440 		.word	1074004744
 442 01b4 00040440 		.word	1074004992
 443 01b8 08040440 		.word	1074005000
 444 01bc 00050440 		.word	1074005248
 445 01c0 08050440 		.word	1074005256
 446              		.cfi_endproc
 447              	.LFE7:
 448              		.size	cyfitter_cfg, .-cyfitter_cfg
 449              		.section	.rodata
 450              		.align	2
 451              		.set	.LANCHOR0,. + 0
 452              		.set	.LANCHOR1,. + 256
 453              		.type	cfg_memset_list.4971, %object
 454              		.size	cfg_memset_list.4971, 12
 455              	cfg_memset_list.4971:
 456 0000 00300F40 		.word	1074737152
ARM GAS  C:\Users\LUCASC~1\AppData\Local\Temp\ccMspCyA.s 			page 19


 457 0004 0008     		.short	2048
 458 0006 00400F40 		.4byte	1074741248
 459 000a 0008     		.short	2048
 460              		.type	cy_cfg_data_table.4966, %object
 461              		.size	cy_cfg_data_table.4966, 316
 462              	cy_cfg_data_table.4966:
 463 000c 87       		.byte	-121
 464 000d 0F       		.byte	15
 465 000e 05       		.byte	5
 466 000f 80       		.byte	-128
 467 0010 07       		.byte	7
 468 0011 13       		.byte	19
 469 0012 08       		.byte	8
 470 0013 06       		.byte	6
 471 0014 0A       		.byte	10
 472 0015 09       		.byte	9
 473 0016 0B       		.byte	11
 474 0017 08       		.byte	8
 475 0018 0C       		.byte	12
 476 0019 07       		.byte	7
 477 001a 0E       		.byte	14
 478 001b 08       		.byte	8
 479 001c 17       		.byte	23
 480 001d 0C       		.byte	12
 481 001e 19       		.byte	25
 482 001f 2C       		.byte	44
 483 0020 1A       		.byte	26
 484 0021 0B       		.byte	11
 485 0022 1B       		.byte	27
 486 0023 43       		.byte	67
 487 0024 1C       		.byte	28
 488 0025 07       		.byte	7
 489 0026 1E       		.byte	30
 490 0027 18       		.byte	24
 491 0028 21       		.byte	33
 492 0029 71       		.byte	113
 493 002a 23       		.byte	35
 494 002b 06       		.byte	6
 495 002c 26       		.byte	38
 496 002d 10       		.byte	16
 497 002e 28       		.byte	40
 498 002f 14       		.byte	20
 499 0030 2A       		.byte	42
 500 0031 09       		.byte	9
 501 0032 2D       		.byte	45
 502 0033 71       		.byte	113
 503 0034 2F       		.byte	47
 504 0035 0E       		.byte	14
 505 0036 30       		.byte	48
 506 0037 01       		.byte	1
 507 0038 31       		.byte	49
 508 0039 30       		.byte	48
 509 003a 33       		.byte	51
 510 003b 0F       		.byte	15
 511 003c 35       		.byte	53
 512 003d C0       		.byte	-64
 513 003e 36       		.byte	54
ARM GAS  C:\Users\LUCASC~1\AppData\Local\Temp\ccMspCyA.s 			page 20


 514 003f 1E       		.byte	30
 515 0040 39       		.byte	57
 516 0041 22       		.byte	34
 517 0042 3A       		.byte	58
 518 0043 80       		.byte	-128
 519 0044 3B       		.byte	59
 520 0045 08       		.byte	8
 521 0046 3E       		.byte	62
 522 0047 01       		.byte	1
 523 0048 3F       		.byte	63
 524 0049 01       		.byte	1
 525 004a 40       		.byte	64
 526 004b 01       		.byte	1
 527 004c 46       		.byte	70
 528 004d 40       		.byte	64
 529 004e 49       		.byte	73
 530 004f FF       		.byte	-1
 531 0050 4A       		.byte	74
 532 0051 07       		.byte	7
 533 0052 4B       		.byte	75
 534 0053 FF       		.byte	-1
 535 0054 4C       		.byte	76
 536 0055 40       		.byte	64
 537 0056 4D       		.byte	77
 538 0057 20       		.byte	32
 539 0058 4E       		.byte	78
 540 0059 F0       		.byte	-16
 541 005a 4F       		.byte	79
 542 005b 05       		.byte	5
 543 005c 50       		.byte	80
 544 005d 08       		.byte	8
 545 005e 58       		.byte	88
 546 005f 04       		.byte	4
 547 0060 59       		.byte	89
 548 0061 04       		.byte	4
 549 0062 5A       		.byte	90
 550 0063 04       		.byte	4
 551 0064 5F       		.byte	95
 552 0065 01       		.byte	1
 553 0066 60       		.byte	96
 554 0067 40       		.byte	64
 555 0068 61       		.byte	97
 556 0069 A8       		.byte	-88
 557 006a 62       		.byte	98
 558 006b 40       		.byte	64
 559 006c 63       		.byte	99
 560 006d 20       		.byte	32
 561 006e 82       		.byte	-126
 562 006f 05       		.byte	5
 563 0070 83       		.byte	-125
 564 0071 03       		.byte	3
 565 0072 85       		.byte	-123
 566 0073 14       		.byte	20
 567 0074 86       		.byte	-122
 568 0075 06       		.byte	6
 569 0076 89       		.byte	-119
 570 0077 10       		.byte	16
ARM GAS  C:\Users\LUCASC~1\AppData\Local\Temp\ccMspCyA.s 			page 21


 571 0078 8D       		.byte	-115
 572 0079 0C       		.byte	12
 573 007a 8E       		.byte	-114
 574 007b 03       		.byte	3
 575 007c 8F       		.byte	-113
 576 007d 11       		.byte	17
 577 007e 90       		.byte	-112
 578 007f 10       		.byte	16
 579 0080 94       		.byte	-108
 580 0081 06       		.byte	6
 581 0082 95       		.byte	-107
 582 0083 1C       		.byte	28
 583 0084 96       		.byte	-106
 584 0085 01       		.byte	1
 585 0086 97       		.byte	-105
 586 0087 02       		.byte	2
 587 0088 98       		.byte	-104
 588 0089 08       		.byte	8
 589 008a 99       		.byte	-103
 590 008b 09       		.byte	9
 591 008c 9B       		.byte	-101
 592 008d 10       		.byte	16
 593 008e A1       		.byte	-95
 594 008f 10       		.byte	16
 595 0090 A3       		.byte	-93
 596 0091 0C       		.byte	12
 597 0092 A6       		.byte	-90
 598 0093 01       		.byte	1
 599 0094 AA       		.byte	-86
 600 0095 02       		.byte	2
 601 0096 B2       		.byte	-78
 602 0097 08       		.byte	8
 603 0098 B4       		.byte	-76
 604 0099 10       		.byte	16
 605 009a B6       		.byte	-74
 606 009b 07       		.byte	7
 607 009c B7       		.byte	-73
 608 009d 1F       		.byte	31
 609 009e BA       		.byte	-70
 610 009f 80       		.byte	-128
 611 00a0 BE       		.byte	-66
 612 00a1 14       		.byte	20
 613 00a2 C0       		.byte	-64
 614 00a3 12       		.byte	18
 615 00a4 C1       		.byte	-63
 616 00a5 05       		.byte	5
 617 00a6 C5       		.byte	-59
 618 00a7 EE       		.byte	-18
 619 00a8 C6       		.byte	-58
 620 00a9 C0       		.byte	-64
 621 00aa C7       		.byte	-57
 622 00ab 0B       		.byte	11
 623 00ac C8       		.byte	-56
 624 00ad 1B       		.byte	27
 625 00ae C9       		.byte	-55
 626 00af FF       		.byte	-1
 627 00b0 CA       		.byte	-54
ARM GAS  C:\Users\LUCASC~1\AppData\Local\Temp\ccMspCyA.s 			page 22


 628 00b1 FF       		.byte	-1
 629 00b2 CB       		.byte	-53
 630 00b3 FF       		.byte	-1
 631 00b4 CE       		.byte	-50
 632 00b5 F0       		.byte	-16
 633 00b6 CF       		.byte	-49
 634 00b7 44       		.byte	68
 635 00b8 D0       		.byte	-48
 636 00b9 0C       		.byte	12
 637 00ba D4       		.byte	-44
 638 00bb 01       		.byte	1
 639 00bc D8       		.byte	-40
 640 00bd 04       		.byte	4
 641 00be D9       		.byte	-39
 642 00bf 04       		.byte	4
 643 00c0 DA       		.byte	-38
 644 00c1 04       		.byte	4
 645 00c2 DB       		.byte	-37
 646 00c3 04       		.byte	4
 647 00c4 DF       		.byte	-33
 648 00c5 01       		.byte	1
 649 00c6 E6       		.byte	-26
 650 00c7 C0       		.byte	-64
 651 00c8 EA       		.byte	-22
 652 00c9 40       		.byte	64
 653 00ca EB       		.byte	-21
 654 00cb 02       		.byte	2
 655 00cc 01       		.byte	1
 656 00cd 80       		.byte	-128
 657 00ce 02       		.byte	2
 658 00cf 20       		.byte	32
 659 00d0 03       		.byte	3
 660 00d1 80       		.byte	-128
 661 00d2 04       		.byte	4
 662 00d3 20       		.byte	32
 663 00d4 05       		.byte	5
 664 00d5 A0       		.byte	-96
 665 00d6 09       		.byte	9
 666 00d7 08       		.byte	8
 667 00d8 0A       		.byte	10
 668 00d9 80       		.byte	-128
 669 00da 0B       		.byte	11
 670 00db 08       		.byte	8
 671 00dc 0E       		.byte	14
 672 00dd 02       		.byte	2
 673 00de 0F       		.byte	15
 674 00df 08       		.byte	8
 675 00e0 10       		.byte	16
 676 00e1 20       		.byte	32
 677 00e2 11       		.byte	17
 678 00e3 20       		.byte	32
 679 00e4 17       		.byte	23
 680 00e5 28       		.byte	40
 681 00e6 18       		.byte	24
 682 00e7 04       		.byte	4
 683 00e8 19       		.byte	25
 684 00e9 84       		.byte	-124
ARM GAS  C:\Users\LUCASC~1\AppData\Local\Temp\ccMspCyA.s 			page 23


 685 00ea 1E       		.byte	30
 686 00eb 42       		.byte	66
 687 00ec 1F       		.byte	31
 688 00ed 80       		.byte	-128
 689 00ee 20       		.byte	32
 690 00ef 01       		.byte	1
 691 00f0 22       		.byte	34
 692 00f1 40       		.byte	64
 693 00f2 25       		.byte	37
 694 00f3 08       		.byte	8
 695 00f4 26       		.byte	38
 696 00f5 20       		.byte	32
 697 00f6 27       		.byte	39
 698 00f7 68       		.byte	104
 699 00f8 2B       		.byte	43
 700 00f9 80       		.byte	-128
 701 00fa 2D       		.byte	45
 702 00fb C0       		.byte	-64
 703 00fc 2F       		.byte	47
 704 00fd 80       		.byte	-128
 705 00fe 31       		.byte	49
 706 00ff 08       		.byte	8
 707 0100 32       		.byte	50
 708 0101 20       		.byte	32
 709 0102 37       		.byte	55
 710 0103 28       		.byte	40
 711 0104 38       		.byte	56
 712 0105 09       		.byte	9
 713 0106 39       		.byte	57
 714 0107 40       		.byte	64
 715 0108 3A       		.byte	58
 716 0109 10       		.byte	16
 717 010a 3D       		.byte	61
 718 010b 20       		.byte	32
 719 010c 3E       		.byte	62
 720 010d 04       		.byte	4
 721 010e 3F       		.byte	63
 722 010f 08       		.byte	8
 723 0110 42       		.byte	66
 724 0111 04       		.byte	4
 725 0112 43       		.byte	67
 726 0113 80       		.byte	-128
 727 0114 47       		.byte	71
 728 0115 40       		.byte	64
 729 0116 49       		.byte	73
 730 0117 81       		.byte	-127
 731 0118 4B       		.byte	75
 732 0119 08       		.byte	8
 733 011a 4C       		.byte	76
 734 011b 20       		.byte	32
 735 011c 4F       		.byte	79
 736 011d 08       		.byte	8
 737 011e 50       		.byte	80
 738 011f 14       		.byte	20
 739 0120 55       		.byte	85
 740 0121 10       		.byte	16
 741 0122 56       		.byte	86
ARM GAS  C:\Users\LUCASC~1\AppData\Local\Temp\ccMspCyA.s 			page 24


 742 0123 10       		.byte	16
 743 0124 59       		.byte	89
 744 0125 25       		.byte	37
 745 0126 5A       		.byte	90
 746 0127 40       		.byte	64
 747 0128 8C       		.byte	-116
 748 0129 04       		.byte	4
 749 012a C0       		.byte	-64
 750 012b CD       		.byte	-51
 751 012c C2       		.byte	-62
 752 012d CE       		.byte	-50
 753 012e C4       		.byte	-60
 754 012f 66       		.byte	102
 755 0130 CA       		.byte	-54
 756 0131 91       		.byte	-111
 757 0132 CC       		.byte	-52
 758 0133 66       		.byte	102
 759 0134 CE       		.byte	-50
 760 0135 6F       		.byte	111
 761 0136 D0       		.byte	-48
 762 0137 1C       		.byte	28
 763 0138 D2       		.byte	-46
 764 0139 08       		.byte	8
 765 013a D6       		.byte	-42
 766 013b 0F       		.byte	15
 767 013c 50       		.byte	80
 768 013d 02       		.byte	2
 769 013e 8C       		.byte	-116
 770 013f 02       		.byte	2
 771 0140 D4       		.byte	-44
 772 0141 01       		.byte	1
 773 0142 E4       		.byte	-28
 774 0143 02       		.byte	2
 775 0144 01       		.byte	1
 776 0145 01       		.byte	1
 777 0146 12       		.byte	18
 778 0147 01       		.byte	1
 779              		.type	cy_cfg_addr_table.4965, %object
 780              		.size	cy_cfg_addr_table.4965, 20
 781              	cy_cfg_addr_table.4965:
 782 0148 01000F40 		.word	1074724865
 783 014c 5F360F40 		.word	1074738783
 784 0150 38370F40 		.word	1074739000
 785 0154 04470F40 		.word	1074743044
 786 0158 02600F40 		.word	1074749442
 787              		.text
 788              	.Letext0:
 789              		.file 2 "c:\\program files (x86)\\cypress\\psoc creator\\4.2\\psoc creator\\import\\gnu\\arm\\5.4.
 790              		.file 3 "Generated_Source\\PSoC4\\cytypes.h"
 791              		.file 4 "Generated_Source\\PSoC4\\CyLib.h"