ARM GAS  C:\Users\LUCASC~1\AppData\Local\Temp\ccqsUena.s 			page 1


   1              		.syntax unified
   2              		.cpu cortex-m0
   3              		.fpu softvfp
   4              		.eabi_attribute 20, 1
   5              		.eabi_attribute 21, 1
   6              		.eabi_attribute 23, 3
   7              		.eabi_attribute 24, 1
   8              		.eabi_attribute 25, 1
   9              		.eabi_attribute 26, 1
  10              		.eabi_attribute 30, 1
  11              		.eabi_attribute 34, 0
  12              		.eabi_attribute 18, 4
  13              		.thumb
  14              		.syntax unified
  15              		.file	"cyfitter_cfg.c"
  16              		.text
  17              	.Ltext0:
  18              		.cfi_sections	.debug_frame
  19              		.section	.text.cfg_write_bytes32,"ax",%progbits
  20              		.align	2
  21              		.code	16
  22              		.thumb_func
  23              		.type	cfg_write_bytes32, %function
  24              	cfg_write_bytes32:
  25              	.LFB4:
  26              		.file 1 "Generated_Source\\PSoC4\\cyfitter_cfg.c"
   1:Generated_Source\PSoC4/cyfitter_cfg.c **** 
   2:Generated_Source\PSoC4/cyfitter_cfg.c **** /*******************************************************************************
   3:Generated_Source\PSoC4/cyfitter_cfg.c **** * File Name: cyfitter_cfg.c
   4:Generated_Source\PSoC4/cyfitter_cfg.c **** * 
   5:Generated_Source\PSoC4/cyfitter_cfg.c **** * PSoC Creator  4.2
   6:Generated_Source\PSoC4/cyfitter_cfg.c **** *
   7:Generated_Source\PSoC4/cyfitter_cfg.c **** * Description:
   8:Generated_Source\PSoC4/cyfitter_cfg.c **** * This file contains device initialization code.
   9:Generated_Source\PSoC4/cyfitter_cfg.c **** * Except for the user defined sections in CyClockStartupError(), this file should not be modified.
  10:Generated_Source\PSoC4/cyfitter_cfg.c **** * This file is automatically generated by PSoC Creator.
  11:Generated_Source\PSoC4/cyfitter_cfg.c **** *
  12:Generated_Source\PSoC4/cyfitter_cfg.c **** ********************************************************************************
  13:Generated_Source\PSoC4/cyfitter_cfg.c **** * Copyright (c) 2007-2018 Cypress Semiconductor.  All rights reserved.
  14:Generated_Source\PSoC4/cyfitter_cfg.c **** * You may use this file only in accordance with the license, terms, conditions, 
  15:Generated_Source\PSoC4/cyfitter_cfg.c **** * disclaimers, and limitations in the end user license agreement accompanying 
  16:Generated_Source\PSoC4/cyfitter_cfg.c **** * the software package with which this file was provided.
  17:Generated_Source\PSoC4/cyfitter_cfg.c **** ********************************************************************************/
  18:Generated_Source\PSoC4/cyfitter_cfg.c **** 
  19:Generated_Source\PSoC4/cyfitter_cfg.c **** #include <string.h>
  20:Generated_Source\PSoC4/cyfitter_cfg.c **** #include "cytypes.h"
  21:Generated_Source\PSoC4/cyfitter_cfg.c **** #include "cydevice_trm.h"
  22:Generated_Source\PSoC4/cyfitter_cfg.c **** #include "cyfitter.h"
  23:Generated_Source\PSoC4/cyfitter_cfg.c **** #include "CyLib.h"
  24:Generated_Source\PSoC4/cyfitter_cfg.c **** #include "CyLFClk.h"
  25:Generated_Source\PSoC4/cyfitter_cfg.c **** #include "cyfitter_cfg.h"
  26:Generated_Source\PSoC4/cyfitter_cfg.c **** #include "cyapicallbacks.h"
  27:Generated_Source\PSoC4/cyfitter_cfg.c **** 
  28:Generated_Source\PSoC4/cyfitter_cfg.c **** 
  29:Generated_Source\PSoC4/cyfitter_cfg.c **** #if defined(__GNUC__) || defined(__ARMCC_VERSION)
  30:Generated_Source\PSoC4/cyfitter_cfg.c ****     #define CYPACKED 
  31:Generated_Source\PSoC4/cyfitter_cfg.c ****     #define CYPACKED_ATTR __attribute__ ((packed))
ARM GAS  C:\Users\LUCASC~1\AppData\Local\Temp\ccqsUena.s 			page 2


  32:Generated_Source\PSoC4/cyfitter_cfg.c ****     #define CYALIGNED __attribute__ ((aligned))
  33:Generated_Source\PSoC4/cyfitter_cfg.c ****     #define CY_CFG_UNUSED __attribute__ ((unused))
  34:Generated_Source\PSoC4/cyfitter_cfg.c ****     #ifndef CY_CFG_SECTION
  35:Generated_Source\PSoC4/cyfitter_cfg.c ****         #define CY_CFG_SECTION __attribute__ ((section(".psocinit")))
  36:Generated_Source\PSoC4/cyfitter_cfg.c ****     #endif
  37:Generated_Source\PSoC4/cyfitter_cfg.c ****     
  38:Generated_Source\PSoC4/cyfitter_cfg.c ****     #if defined(__ARMCC_VERSION)
  39:Generated_Source\PSoC4/cyfitter_cfg.c ****         #define CY_CFG_MEMORY_BARRIER() __memory_changed()
  40:Generated_Source\PSoC4/cyfitter_cfg.c ****     #else
  41:Generated_Source\PSoC4/cyfitter_cfg.c ****         #define CY_CFG_MEMORY_BARRIER() __sync_synchronize()
  42:Generated_Source\PSoC4/cyfitter_cfg.c ****     #endif
  43:Generated_Source\PSoC4/cyfitter_cfg.c ****     
  44:Generated_Source\PSoC4/cyfitter_cfg.c **** #elif defined(__ICCARM__)
  45:Generated_Source\PSoC4/cyfitter_cfg.c ****     #include <intrinsics.h>
  46:Generated_Source\PSoC4/cyfitter_cfg.c **** 
  47:Generated_Source\PSoC4/cyfitter_cfg.c ****     #define CYPACKED __packed
  48:Generated_Source\PSoC4/cyfitter_cfg.c ****     #define CYPACKED_ATTR 
  49:Generated_Source\PSoC4/cyfitter_cfg.c ****     #define CYALIGNED _Pragma("data_alignment=4")
  50:Generated_Source\PSoC4/cyfitter_cfg.c ****     #define CY_CFG_UNUSED _Pragma("diag_suppress=Pe177")
  51:Generated_Source\PSoC4/cyfitter_cfg.c ****     #define CY_CFG_SECTION _Pragma("location=\".psocinit\"")
  52:Generated_Source\PSoC4/cyfitter_cfg.c ****     
  53:Generated_Source\PSoC4/cyfitter_cfg.c ****     #define CY_CFG_MEMORY_BARRIER() __DMB()
  54:Generated_Source\PSoC4/cyfitter_cfg.c ****     
  55:Generated_Source\PSoC4/cyfitter_cfg.c **** #else
  56:Generated_Source\PSoC4/cyfitter_cfg.c ****     #error Unsupported toolchain
  57:Generated_Source\PSoC4/cyfitter_cfg.c **** #endif
  58:Generated_Source\PSoC4/cyfitter_cfg.c **** 
  59:Generated_Source\PSoC4/cyfitter_cfg.c **** #ifndef CYCODE
  60:Generated_Source\PSoC4/cyfitter_cfg.c ****     #define CYCODE
  61:Generated_Source\PSoC4/cyfitter_cfg.c **** #endif
  62:Generated_Source\PSoC4/cyfitter_cfg.c **** #ifndef CYDATA
  63:Generated_Source\PSoC4/cyfitter_cfg.c ****     #define CYDATA
  64:Generated_Source\PSoC4/cyfitter_cfg.c **** #endif
  65:Generated_Source\PSoC4/cyfitter_cfg.c **** #ifndef CYFAR
  66:Generated_Source\PSoC4/cyfitter_cfg.c ****     #define CYFAR
  67:Generated_Source\PSoC4/cyfitter_cfg.c **** #endif
  68:Generated_Source\PSoC4/cyfitter_cfg.c **** #ifndef CYXDATA
  69:Generated_Source\PSoC4/cyfitter_cfg.c ****     #define CYXDATA
  70:Generated_Source\PSoC4/cyfitter_cfg.c **** #endif
  71:Generated_Source\PSoC4/cyfitter_cfg.c **** 
  72:Generated_Source\PSoC4/cyfitter_cfg.c **** 
  73:Generated_Source\PSoC4/cyfitter_cfg.c **** CY_CFG_UNUSED
  74:Generated_Source\PSoC4/cyfitter_cfg.c **** static void CYMEMZERO(void *s, size_t n);
  75:Generated_Source\PSoC4/cyfitter_cfg.c **** CY_CFG_UNUSED
  76:Generated_Source\PSoC4/cyfitter_cfg.c **** static void CYMEMZERO(void *s, size_t n)
  77:Generated_Source\PSoC4/cyfitter_cfg.c **** {
  78:Generated_Source\PSoC4/cyfitter_cfg.c **** 	(void)memset(s, 0, n);
  79:Generated_Source\PSoC4/cyfitter_cfg.c **** }
  80:Generated_Source\PSoC4/cyfitter_cfg.c **** CY_CFG_UNUSED
  81:Generated_Source\PSoC4/cyfitter_cfg.c **** static void CYCONFIGCPY(void *dest, const void *src, size_t n);
  82:Generated_Source\PSoC4/cyfitter_cfg.c **** CY_CFG_UNUSED
  83:Generated_Source\PSoC4/cyfitter_cfg.c **** static void CYCONFIGCPY(void *dest, const void *src, size_t n)
  84:Generated_Source\PSoC4/cyfitter_cfg.c **** {
  85:Generated_Source\PSoC4/cyfitter_cfg.c **** 	(void)memcpy(dest, src, n);
  86:Generated_Source\PSoC4/cyfitter_cfg.c **** }
  87:Generated_Source\PSoC4/cyfitter_cfg.c **** CY_CFG_UNUSED
  88:Generated_Source\PSoC4/cyfitter_cfg.c **** static void CYCONFIGCPYCODE(void *dest, const void *src, size_t n);
ARM GAS  C:\Users\LUCASC~1\AppData\Local\Temp\ccqsUena.s 			page 3


  89:Generated_Source\PSoC4/cyfitter_cfg.c **** CY_CFG_UNUSED
  90:Generated_Source\PSoC4/cyfitter_cfg.c **** static void CYCONFIGCPYCODE(void *dest, const void *src, size_t n)
  91:Generated_Source\PSoC4/cyfitter_cfg.c **** {
  92:Generated_Source\PSoC4/cyfitter_cfg.c **** 	(void)memcpy(dest, src, n);
  93:Generated_Source\PSoC4/cyfitter_cfg.c **** }
  94:Generated_Source\PSoC4/cyfitter_cfg.c **** 
  95:Generated_Source\PSoC4/cyfitter_cfg.c **** 
  96:Generated_Source\PSoC4/cyfitter_cfg.c **** 
  97:Generated_Source\PSoC4/cyfitter_cfg.c **** 
  98:Generated_Source\PSoC4/cyfitter_cfg.c **** /* Clock startup error codes                                                   */
  99:Generated_Source\PSoC4/cyfitter_cfg.c **** #define CYCLOCKSTART_NO_ERROR    0u
 100:Generated_Source\PSoC4/cyfitter_cfg.c **** #define CYCLOCKSTART_XTAL_ERROR  1u
 101:Generated_Source\PSoC4/cyfitter_cfg.c **** #define CYCLOCKSTART_32KHZ_ERROR 2u
 102:Generated_Source\PSoC4/cyfitter_cfg.c **** #define CYCLOCKSTART_PLL_ERROR   3u
 103:Generated_Source\PSoC4/cyfitter_cfg.c **** #define CYCLOCKSTART_FLL_ERROR   4u
 104:Generated_Source\PSoC4/cyfitter_cfg.c **** #define CYCLOCKSTART_WCO_ERROR   5u
 105:Generated_Source\PSoC4/cyfitter_cfg.c **** 
 106:Generated_Source\PSoC4/cyfitter_cfg.c **** 
 107:Generated_Source\PSoC4/cyfitter_cfg.c **** #ifdef CY_NEED_CYCLOCKSTARTUPERROR
 108:Generated_Source\PSoC4/cyfitter_cfg.c **** /*******************************************************************************
 109:Generated_Source\PSoC4/cyfitter_cfg.c **** * Function Name: CyClockStartupError
 110:Generated_Source\PSoC4/cyfitter_cfg.c **** ********************************************************************************
 111:Generated_Source\PSoC4/cyfitter_cfg.c **** * Summary:
 112:Generated_Source\PSoC4/cyfitter_cfg.c **** *  If an error is encountered during clock configuration (crystal startup error,
 113:Generated_Source\PSoC4/cyfitter_cfg.c **** *  PLL lock error, etc.), the system will end up here.  Unless reimplemented by
 114:Generated_Source\PSoC4/cyfitter_cfg.c **** *  the customer, this function will stop in an infinite loop.
 115:Generated_Source\PSoC4/cyfitter_cfg.c **** *
 116:Generated_Source\PSoC4/cyfitter_cfg.c **** * Parameters:
 117:Generated_Source\PSoC4/cyfitter_cfg.c **** *   void
 118:Generated_Source\PSoC4/cyfitter_cfg.c **** *
 119:Generated_Source\PSoC4/cyfitter_cfg.c **** * Return:
 120:Generated_Source\PSoC4/cyfitter_cfg.c **** *   void
 121:Generated_Source\PSoC4/cyfitter_cfg.c **** *
 122:Generated_Source\PSoC4/cyfitter_cfg.c **** *******************************************************************************/
 123:Generated_Source\PSoC4/cyfitter_cfg.c **** CY_CFG_UNUSED
 124:Generated_Source\PSoC4/cyfitter_cfg.c **** static void CyClockStartupError(uint8 errorCode);
 125:Generated_Source\PSoC4/cyfitter_cfg.c **** CY_CFG_UNUSED
 126:Generated_Source\PSoC4/cyfitter_cfg.c **** static void CyClockStartupError(uint8 errorCode)
 127:Generated_Source\PSoC4/cyfitter_cfg.c **** {
 128:Generated_Source\PSoC4/cyfitter_cfg.c ****     /* To remove the compiler warning if errorCode not used.                */
 129:Generated_Source\PSoC4/cyfitter_cfg.c ****     errorCode = errorCode;
 130:Generated_Source\PSoC4/cyfitter_cfg.c **** 
 131:Generated_Source\PSoC4/cyfitter_cfg.c ****     /* If we have a clock startup error (bad MHz crystal, PLL lock, etc.),  */
 132:Generated_Source\PSoC4/cyfitter_cfg.c ****     /* we will end up here to allow the customer to implement something to  */
 133:Generated_Source\PSoC4/cyfitter_cfg.c ****     /* deal with the clock condition.                                       */
 134:Generated_Source\PSoC4/cyfitter_cfg.c **** 
 135:Generated_Source\PSoC4/cyfitter_cfg.c **** #ifdef CY_CFG_CLOCK_STARTUP_ERROR_CALLBACK
 136:Generated_Source\PSoC4/cyfitter_cfg.c ****     CY_CFG_Clock_Startup_ErrorCallback();
 137:Generated_Source\PSoC4/cyfitter_cfg.c **** #else
 138:Generated_Source\PSoC4/cyfitter_cfg.c ****     /*  If not using CY_CFG_CLOCK_STARTUP_ERROR_CALLBACK, place your clock startup code here. */
 139:Generated_Source\PSoC4/cyfitter_cfg.c ****     /* `#START CyClockStartupError` */
 140:Generated_Source\PSoC4/cyfitter_cfg.c **** 
 141:Generated_Source\PSoC4/cyfitter_cfg.c **** 
 142:Generated_Source\PSoC4/cyfitter_cfg.c **** 
 143:Generated_Source\PSoC4/cyfitter_cfg.c ****     /* `#END` */
 144:Generated_Source\PSoC4/cyfitter_cfg.c **** 
 145:Generated_Source\PSoC4/cyfitter_cfg.c ****     while(1) {}
ARM GAS  C:\Users\LUCASC~1\AppData\Local\Temp\ccqsUena.s 			page 4


 146:Generated_Source\PSoC4/cyfitter_cfg.c **** #endif /* CY_CFG_CLOCK_STARTUP_ERROR_CALLBACK */
 147:Generated_Source\PSoC4/cyfitter_cfg.c **** }
 148:Generated_Source\PSoC4/cyfitter_cfg.c **** #endif
 149:Generated_Source\PSoC4/cyfitter_cfg.c **** 
 150:Generated_Source\PSoC4/cyfitter_cfg.c **** #define CY_CFG_BASE_ADDR_COUNT 8u
 151:Generated_Source\PSoC4/cyfitter_cfg.c **** CYPACKED typedef struct
 152:Generated_Source\PSoC4/cyfitter_cfg.c **** {
 153:Generated_Source\PSoC4/cyfitter_cfg.c **** 	uint8 offset;
 154:Generated_Source\PSoC4/cyfitter_cfg.c **** 	uint8 value;
 155:Generated_Source\PSoC4/cyfitter_cfg.c **** } CYPACKED_ATTR cy_cfg_addrvalue_t;
 156:Generated_Source\PSoC4/cyfitter_cfg.c **** 
 157:Generated_Source\PSoC4/cyfitter_cfg.c **** 
 158:Generated_Source\PSoC4/cyfitter_cfg.c **** 
 159:Generated_Source\PSoC4/cyfitter_cfg.c **** /*******************************************************************************
 160:Generated_Source\PSoC4/cyfitter_cfg.c **** * Function Name: cfg_write_bytes32
 161:Generated_Source\PSoC4/cyfitter_cfg.c **** ********************************************************************************
 162:Generated_Source\PSoC4/cyfitter_cfg.c **** * Summary:
 163:Generated_Source\PSoC4/cyfitter_cfg.c **** *  This function is used for setting up the chip configuration areas that
 164:Generated_Source\PSoC4/cyfitter_cfg.c **** *  contain relatively sparse data.
 165:Generated_Source\PSoC4/cyfitter_cfg.c **** *
 166:Generated_Source\PSoC4/cyfitter_cfg.c **** * Parameters:
 167:Generated_Source\PSoC4/cyfitter_cfg.c **** *   void
 168:Generated_Source\PSoC4/cyfitter_cfg.c **** *
 169:Generated_Source\PSoC4/cyfitter_cfg.c **** * Return:
 170:Generated_Source\PSoC4/cyfitter_cfg.c **** *   void
 171:Generated_Source\PSoC4/cyfitter_cfg.c **** *
 172:Generated_Source\PSoC4/cyfitter_cfg.c **** *******************************************************************************/
 173:Generated_Source\PSoC4/cyfitter_cfg.c **** static void cfg_write_bytes32(const uint32 addr_table[], const cy_cfg_addrvalue_t data_table[]);
 174:Generated_Source\PSoC4/cyfitter_cfg.c **** static void cfg_write_bytes32(const uint32 addr_table[], const cy_cfg_addrvalue_t data_table[])
 175:Generated_Source\PSoC4/cyfitter_cfg.c **** {
  27              		.loc 1 175 0
  28              		.cfi_startproc
  29              		@ args = 0, pretend = 0, frame = 0
  30              		@ frame_needed = 0, uses_anonymous_args = 0
  31              	.LVL0:
  32 0000 F0B5     		push	{r4, r5, r6, r7, lr}
  33              		.cfi_def_cfa_offset 20
  34              		.cfi_offset 4, -20
  35              		.cfi_offset 5, -16
  36              		.cfi_offset 6, -12
  37              		.cfi_offset 7, -8
  38              		.cfi_offset 14, -4
  39              	.LVL1:
 176:Generated_Source\PSoC4/cyfitter_cfg.c **** 	/* For 32-bit little-endian architectures */
 177:Generated_Source\PSoC4/cyfitter_cfg.c **** 	uint32 i, j = 0u;
  40              		.loc 1 177 0
  41 0002 0025     		movs	r5, #0
 178:Generated_Source\PSoC4/cyfitter_cfg.c **** 	for (i = 0u; i < CY_CFG_BASE_ADDR_COUNT; i++)
  42              		.loc 1 178 0
  43 0004 0027     		movs	r7, #0
  44 0006 11E0     		b	.L2
  45              	.LVL2:
  46              	.L5:
  47              	.LBB2:
 179:Generated_Source\PSoC4/cyfitter_cfg.c **** 	{
 180:Generated_Source\PSoC4/cyfitter_cfg.c **** 		uint32 baseAddr = addr_table[i];
  48              		.loc 1 180 0
ARM GAS  C:\Users\LUCASC~1\AppData\Local\Temp\ccqsUena.s 			page 5


  49 0008 BB00     		lsls	r3, r7, #2
  50 000a C658     		ldr	r6, [r0, r3]
  51              	.LVL3:
 181:Generated_Source\PSoC4/cyfitter_cfg.c **** 		uint8 count = (uint8)baseAddr;
  52              		.loc 1 181 0
  53 000c F3B2     		uxtb	r3, r6
  54              	.LVL4:
 182:Generated_Source\PSoC4/cyfitter_cfg.c **** 		baseAddr &= 0xFFFFFF00u;
  55              		.loc 1 182 0
  56 000e FF22     		movs	r2, #255
  57 0010 9643     		bics	r6, r2
  58              	.LVL5:
 183:Generated_Source\PSoC4/cyfitter_cfg.c **** 		while (count != 0u)
  59              		.loc 1 183 0
  60 0012 08E0     		b	.L3
  61              	.L4:
 184:Generated_Source\PSoC4/cyfitter_cfg.c **** 		{
 185:Generated_Source\PSoC4/cyfitter_cfg.c **** 			CY_SET_REG8((void *)(baseAddr + data_table[j].offset), data_table[j].value);
  62              		.loc 1 185 0
  63 0014 6A00     		lsls	r2, r5, #1
  64 0016 8A18     		adds	r2, r1, r2
  65 0018 1478     		ldrb	r4, [r2]
  66 001a A419     		adds	r4, r4, r6
  67 001c 5278     		ldrb	r2, [r2, #1]
  68 001e 2270     		strb	r2, [r4]
 186:Generated_Source\PSoC4/cyfitter_cfg.c **** 			j++;
  69              		.loc 1 186 0
  70 0020 0135     		adds	r5, r5, #1
  71              	.LVL6:
 187:Generated_Source\PSoC4/cyfitter_cfg.c **** 			count--;
  72              		.loc 1 187 0
  73 0022 013B     		subs	r3, r3, #1
  74              	.LVL7:
  75 0024 DBB2     		uxtb	r3, r3
  76              	.LVL8:
  77              	.L3:
 183:Generated_Source\PSoC4/cyfitter_cfg.c **** 		{
  78              		.loc 1 183 0
  79 0026 002B     		cmp	r3, #0
  80 0028 F4D1     		bne	.L4
  81              	.LBE2:
 178:Generated_Source\PSoC4/cyfitter_cfg.c **** 	{
  82              		.loc 1 178 0 discriminator 2
  83 002a 0137     		adds	r7, r7, #1
  84              	.LVL9:
  85              	.L2:
 178:Generated_Source\PSoC4/cyfitter_cfg.c **** 	{
  86              		.loc 1 178 0 is_stmt 0 discriminator 1
  87 002c 072F     		cmp	r7, #7
  88 002e EBD9     		bls	.L5
 188:Generated_Source\PSoC4/cyfitter_cfg.c **** 		}
 189:Generated_Source\PSoC4/cyfitter_cfg.c **** 	}
 190:Generated_Source\PSoC4/cyfitter_cfg.c **** }
  89              		.loc 1 190 0 is_stmt 1
  90              		@ sp needed
  91              	.LVL10:
  92              	.LVL11:
ARM GAS  C:\Users\LUCASC~1\AppData\Local\Temp\ccqsUena.s 			page 6


  93 0030 F0BD     		pop	{r4, r5, r6, r7, pc}
  94              		.cfi_endproc
  95              	.LFE4:
  96              		.size	cfg_write_bytes32, .-cfg_write_bytes32
  97 0032 C046     		.section	.text.CYMEMZERO,"ax",%progbits
  98              		.align	2
  99              		.code	16
 100              		.thumb_func
 101              		.type	CYMEMZERO, %function
 102              	CYMEMZERO:
 103              	.LFB1:
  77:Generated_Source\PSoC4/cyfitter_cfg.c **** 	(void)memset(s, 0, n);
 104              		.loc 1 77 0
 105              		.cfi_startproc
 106              		@ args = 0, pretend = 0, frame = 0
 107              		@ frame_needed = 0, uses_anonymous_args = 0
 108              	.LVL12:
 109 0000 10B5     		push	{r4, lr}
 110              		.cfi_def_cfa_offset 8
 111              		.cfi_offset 4, -8
 112              		.cfi_offset 14, -4
 113 0002 0A00     		movs	r2, r1
  78:Generated_Source\PSoC4/cyfitter_cfg.c **** }
 114              		.loc 1 78 0
 115 0004 0021     		movs	r1, #0
 116              	.LVL13:
 117 0006 FFF7FEFF 		bl	memset
 118              	.LVL14:
  79:Generated_Source\PSoC4/cyfitter_cfg.c **** CY_CFG_UNUSED
 119              		.loc 1 79 0
 120              		@ sp needed
 121 000a 10BD     		pop	{r4, pc}
 122              		.cfi_endproc
 123              	.LFE1:
 124              		.size	CYMEMZERO, .-CYMEMZERO
 125              		.section	.psocinit,"ax",%progbits
 126              		.align	2
 127              		.code	16
 128              		.thumb_func
 129              		.type	ClockSetup, %function
 130              	ClockSetup:
 131              	.LFB5:
 191:Generated_Source\PSoC4/cyfitter_cfg.c **** 
 192:Generated_Source\PSoC4/cyfitter_cfg.c **** 
 193:Generated_Source\PSoC4/cyfitter_cfg.c **** /*******************************************************************************
 194:Generated_Source\PSoC4/cyfitter_cfg.c **** * Function Name: ClockSetup
 195:Generated_Source\PSoC4/cyfitter_cfg.c **** ********************************************************************************
 196:Generated_Source\PSoC4/cyfitter_cfg.c **** *
 197:Generated_Source\PSoC4/cyfitter_cfg.c **** * Summary:
 198:Generated_Source\PSoC4/cyfitter_cfg.c **** *   Performs the initialization of all of the clocks in the device based on the
 199:Generated_Source\PSoC4/cyfitter_cfg.c **** *   settings in the Clock tab of the DWR.  This includes enabling the requested
 200:Generated_Source\PSoC4/cyfitter_cfg.c **** *   clocks and setting the necessary dividers to produce the desired frequency. 
 201:Generated_Source\PSoC4/cyfitter_cfg.c **** *
 202:Generated_Source\PSoC4/cyfitter_cfg.c **** * Parameters:
 203:Generated_Source\PSoC4/cyfitter_cfg.c **** *   void
 204:Generated_Source\PSoC4/cyfitter_cfg.c **** *
 205:Generated_Source\PSoC4/cyfitter_cfg.c **** * Return:
ARM GAS  C:\Users\LUCASC~1\AppData\Local\Temp\ccqsUena.s 			page 7


 206:Generated_Source\PSoC4/cyfitter_cfg.c **** *   void
 207:Generated_Source\PSoC4/cyfitter_cfg.c **** *
 208:Generated_Source\PSoC4/cyfitter_cfg.c **** *******************************************************************************/
 209:Generated_Source\PSoC4/cyfitter_cfg.c **** static void ClockSetup(void);
 210:Generated_Source\PSoC4/cyfitter_cfg.c **** CY_CFG_SECTION
 211:Generated_Source\PSoC4/cyfitter_cfg.c **** static void ClockSetup(void)
 212:Generated_Source\PSoC4/cyfitter_cfg.c **** {
 132              		.loc 1 212 0
 133              		.cfi_startproc
 134              		@ args = 0, pretend = 0, frame = 0
 135              		@ frame_needed = 0, uses_anonymous_args = 0
 136 0000 10B5     		push	{r4, lr}
 137              		.cfi_def_cfa_offset 8
 138              		.cfi_offset 4, -8
 139              		.cfi_offset 14, -4
 213:Generated_Source\PSoC4/cyfitter_cfg.c **** 
 214:Generated_Source\PSoC4/cyfitter_cfg.c **** 	/* Set Flash Cycles based on max possible frequency in case a glitch occurs during ClockSetup(). *
 215:Generated_Source\PSoC4/cyfitter_cfg.c **** 	CY_SET_REG32((void CYXDATA *)(CYREG_CPUSS_FLASH_CTL), (0x0012u));
 140              		.loc 1 215 0
 141 0002 1222     		movs	r2, #18
 142 0004 1E4B     		ldr	r3, .L8
 143 0006 1A60     		str	r2, [r3]
 216:Generated_Source\PSoC4/cyfitter_cfg.c **** 	/* Setup and trim IMO based on desired frequency. */
 217:Generated_Source\PSoC4/cyfitter_cfg.c **** 	CySysClkWriteImoFreq(48u);
 144              		.loc 1 217 0
 145 0008 3020     		movs	r0, #48
 146 000a FFF7FEFF 		bl	CySysClkWriteImoFreq
 147              	.LVL15:
 218:Generated_Source\PSoC4/cyfitter_cfg.c **** 	/* CYDEV_CLK_ILO_CONFIG Starting address: CYDEV_CLK_ILO_CONFIG */
 219:Generated_Source\PSoC4/cyfitter_cfg.c **** 	CY_SET_REG32((void *)(CYREG_CLK_ILO_CONFIG), 0x80000006u);
 148              		.loc 1 219 0
 149 000e 1D4A     		ldr	r2, .L8+4
 150 0010 1D4B     		ldr	r3, .L8+8
 151 0012 1A60     		str	r2, [r3]
 220:Generated_Source\PSoC4/cyfitter_cfg.c **** 
 221:Generated_Source\PSoC4/cyfitter_cfg.c **** 
 222:Generated_Source\PSoC4/cyfitter_cfg.c **** 	/* Setup phase aligned clocks */
 223:Generated_Source\PSoC4/cyfitter_cfg.c **** 	CY_SET_REG32((void *)CYREG_PERI_DIV_16_CTL3, 0x00003300u);
 152              		.loc 1 223 0
 153 0014 CC22     		movs	r2, #204
 154 0016 9201     		lsls	r2, r2, #6
 155 0018 1C4B     		ldr	r3, .L8+12
 156 001a 1A60     		str	r2, [r3]
 224:Generated_Source\PSoC4/cyfitter_cfg.c **** 	CY_SET_REG32((void *)CYREG_PERI_DIV_CMD, 0x8000FF43u);
 157              		.loc 1 224 0
 158 001c 1C4B     		ldr	r3, .L8+16
 159 001e 1D4A     		ldr	r2, .L8+20
 160 0020 1A60     		str	r2, [r3]
 225:Generated_Source\PSoC4/cyfitter_cfg.c **** 	CY_SET_REG32((void *)CYREG_PERI_DIV_16_CTL0, 0x0000FE00u);
 161              		.loc 1 225 0
 162 0022 FE22     		movs	r2, #254
 163 0024 1202     		lsls	r2, r2, #8
 164 0026 1C49     		ldr	r1, .L8+24
 165 0028 0A60     		str	r2, [r1]
 226:Generated_Source\PSoC4/cyfitter_cfg.c **** 	CY_SET_REG32((void *)CYREG_PERI_DIV_CMD, 0x8000FF40u);
 166              		.loc 1 226 0
 167 002a 1C49     		ldr	r1, .L8+28
ARM GAS  C:\Users\LUCASC~1\AppData\Local\Temp\ccqsUena.s 			page 8


 168 002c 1960     		str	r1, [r3]
 227:Generated_Source\PSoC4/cyfitter_cfg.c **** 	CY_SET_REG32((void *)CYREG_PERI_DIV_16_CTL1, 0x0000FE00u);
 169              		.loc 1 227 0
 170 002e 1C49     		ldr	r1, .L8+32
 171 0030 0A60     		str	r2, [r1]
 228:Generated_Source\PSoC4/cyfitter_cfg.c **** 	CY_SET_REG32((void *)CYREG_PERI_DIV_CMD, 0x8000FF41u);
 172              		.loc 1 228 0
 173 0032 1C4A     		ldr	r2, .L8+36
 174 0034 1A60     		str	r2, [r3]
 229:Generated_Source\PSoC4/cyfitter_cfg.c **** 	CY_SET_REG32((void *)CYREG_PERI_DIV_16_CTL2, 0x00001D00u);
 175              		.loc 1 229 0
 176 0036 E821     		movs	r1, #232
 177 0038 4901     		lsls	r1, r1, #5
 178 003a 1B4A     		ldr	r2, .L8+40
 179 003c 1160     		str	r1, [r2]
 230:Generated_Source\PSoC4/cyfitter_cfg.c **** 	CY_SET_REG32((void *)CYREG_PERI_DIV_CMD, 0x8000FF42u);
 180              		.loc 1 230 0
 181 003e 1B4A     		ldr	r2, .L8+44
 182 0040 1A60     		str	r2, [r3]
 231:Generated_Source\PSoC4/cyfitter_cfg.c **** 
 232:Generated_Source\PSoC4/cyfitter_cfg.c **** 	/* CYDEV_CLK_IMO_CONFIG Starting address: CYDEV_CLK_IMO_CONFIG */
 233:Generated_Source\PSoC4/cyfitter_cfg.c **** 	CY_SET_REG32((void *)(CYREG_CLK_IMO_CONFIG), 0x80000000u);
 183              		.loc 1 233 0
 184 0042 8022     		movs	r2, #128
 185 0044 1206     		lsls	r2, r2, #24
 186 0046 1A4B     		ldr	r3, .L8+48
 187 0048 1A60     		str	r2, [r3]
 234:Generated_Source\PSoC4/cyfitter_cfg.c **** 
 235:Generated_Source\PSoC4/cyfitter_cfg.c **** 	/* CYDEV_CLK_SELECT Starting address: CYDEV_CLK_SELECT */
 236:Generated_Source\PSoC4/cyfitter_cfg.c **** 	CY_SET_REG32((void *)(CYREG_CLK_SELECT), 0x00040000u);
 188              		.loc 1 236 0
 189 004a 8022     		movs	r2, #128
 190 004c D202     		lsls	r2, r2, #11
 191 004e 194B     		ldr	r3, .L8+52
 192 0050 1A60     		str	r2, [r3]
 237:Generated_Source\PSoC4/cyfitter_cfg.c **** 
 238:Generated_Source\PSoC4/cyfitter_cfg.c **** 	/* CYDEV_PERI_PCLK_CTL19 Starting address: CYDEV_PERI_PCLK_CTL19 */
 239:Generated_Source\PSoC4/cyfitter_cfg.c **** 	CY_SET_REG32((void *)(CYREG_PERI_PCLK_CTL19), 0x00000043u);
 193              		.loc 1 239 0
 194 0052 4322     		movs	r2, #67
 195 0054 184B     		ldr	r3, .L8+56
 196 0056 1A60     		str	r2, [r3]
 240:Generated_Source\PSoC4/cyfitter_cfg.c **** 
 241:Generated_Source\PSoC4/cyfitter_cfg.c **** 	/* CYDEV_PERI_PCLK_CTL7 Starting address: CYDEV_PERI_PCLK_CTL7 */
 242:Generated_Source\PSoC4/cyfitter_cfg.c **** 	CY_SET_REG32((void *)(CYREG_PERI_PCLK_CTL7), 0x00000040u);
 197              		.loc 1 242 0
 198 0058 033A     		subs	r2, r2, #3
 199 005a 184B     		ldr	r3, .L8+60
 200 005c 1A60     		str	r2, [r3]
 243:Generated_Source\PSoC4/cyfitter_cfg.c **** 
 244:Generated_Source\PSoC4/cyfitter_cfg.c **** 	/* CYDEV_PERI_PCLK_CTL6 Starting address: CYDEV_PERI_PCLK_CTL6 */
 245:Generated_Source\PSoC4/cyfitter_cfg.c **** 	CY_SET_REG32((void *)(CYREG_PERI_PCLK_CTL6), 0x00000041u);
 201              		.loc 1 245 0
 202 005e 0132     		adds	r2, r2, #1
 203 0060 174B     		ldr	r3, .L8+64
 204 0062 1A60     		str	r2, [r3]
 246:Generated_Source\PSoC4/cyfitter_cfg.c **** 
ARM GAS  C:\Users\LUCASC~1\AppData\Local\Temp\ccqsUena.s 			page 9


 247:Generated_Source\PSoC4/cyfitter_cfg.c **** 	/* CYDEV_PERI_PCLK_CTL2 Starting address: CYDEV_PERI_PCLK_CTL2 */
 248:Generated_Source\PSoC4/cyfitter_cfg.c **** 	CY_SET_REG32((void *)(CYREG_PERI_PCLK_CTL2), 0x00000042u);
 205              		.loc 1 248 0
 206 0064 0132     		adds	r2, r2, #1
 207 0066 174B     		ldr	r3, .L8+68
 208 0068 1A60     		str	r2, [r3]
 249:Generated_Source\PSoC4/cyfitter_cfg.c **** 
 250:Generated_Source\PSoC4/cyfitter_cfg.c **** 	(void)CyIntSetVector(8u, &CySysWdtIsr);
 209              		.loc 1 250 0
 210 006a 1749     		ldr	r1, .L8+72
 211 006c 0820     		movs	r0, #8
 212 006e FFF7FEFF 		bl	CyIntSetVector
 213              	.LVL16:
 251:Generated_Source\PSoC4/cyfitter_cfg.c **** 	CyIntEnable(8u);
 214              		.loc 1 251 0
 215 0072 0820     		movs	r0, #8
 216 0074 FFF7FEFF 		bl	CyIntEnable
 217              	.LVL17:
 252:Generated_Source\PSoC4/cyfitter_cfg.c **** 	CY_SET_REG32((void *)(CYREG_WDT_CONFIG), 0x00000000u);
 218              		.loc 1 252 0
 219 0078 0022     		movs	r2, #0
 220 007a 144B     		ldr	r3, .L8+76
 221 007c 1A60     		str	r2, [r3]
 253:Generated_Source\PSoC4/cyfitter_cfg.c **** }
 222              		.loc 1 253 0
 223              		@ sp needed
 224 007e 10BD     		pop	{r4, pc}
 225              	.L9:
 226              		.align	2
 227              	.L8:
 228 0080 30001040 		.word	1074790448
 229 0084 06000080 		.word	-2147483642
 230 0088 04010B40 		.word	1074462980
 231 008c 0C030140 		.word	1073808140
 232 0090 00000140 		.word	1073807360
 233 0094 43FF0080 		.word	-2147418301
 234 0098 00030140 		.word	1073808128
 235 009c 40FF0080 		.word	-2147418304
 236 00a0 04030140 		.word	1073808132
 237 00a4 41FF0080 		.word	-2147418303
 238 00a8 08030140 		.word	1073808136
 239 00ac 42FF0080 		.word	-2147418302
 240 00b0 08010B40 		.word	1074462984
 241 00b4 00010B40 		.word	1074462976
 242 00b8 4C010140 		.word	1073807692
 243 00bc 1C010140 		.word	1073807644
 244 00c0 18010140 		.word	1073807640
 245 00c4 08010140 		.word	1073807624
 246 00c8 00000000 		.word	CySysWdtIsr
 247 00cc 0C020B40 		.word	1074463244
 248              		.cfi_endproc
 249              	.LFE5:
 250              		.size	ClockSetup, .-ClockSetup
 251              		.section	.text.SetAnalogRoutingPumps,"ax",%progbits
 252              		.align	2
 253              		.global	SetAnalogRoutingPumps
 254              		.code	16
ARM GAS  C:\Users\LUCASC~1\AppData\Local\Temp\ccqsUena.s 			page 10


 255              		.thumb_func
 256              		.type	SetAnalogRoutingPumps, %function
 257              	SetAnalogRoutingPumps:
 258              	.LFB7:
 254:Generated_Source\PSoC4/cyfitter_cfg.c **** 
 255:Generated_Source\PSoC4/cyfitter_cfg.c **** 
 256:Generated_Source\PSoC4/cyfitter_cfg.c **** /* Analog API Functions */
 257:Generated_Source\PSoC4/cyfitter_cfg.c **** 
 258:Generated_Source\PSoC4/cyfitter_cfg.c **** 
 259:Generated_Source\PSoC4/cyfitter_cfg.c **** /*******************************************************************************
 260:Generated_Source\PSoC4/cyfitter_cfg.c **** * Function Name: AnalogSetDefault
 261:Generated_Source\PSoC4/cyfitter_cfg.c **** ********************************************************************************
 262:Generated_Source\PSoC4/cyfitter_cfg.c **** *
 263:Generated_Source\PSoC4/cyfitter_cfg.c **** * Summary:
 264:Generated_Source\PSoC4/cyfitter_cfg.c **** *  Sets up the analog portions of the chip to default values based on chip
 265:Generated_Source\PSoC4/cyfitter_cfg.c **** *  configuration options from the project.
 266:Generated_Source\PSoC4/cyfitter_cfg.c **** *
 267:Generated_Source\PSoC4/cyfitter_cfg.c **** * Parameters:
 268:Generated_Source\PSoC4/cyfitter_cfg.c **** *  void
 269:Generated_Source\PSoC4/cyfitter_cfg.c **** *
 270:Generated_Source\PSoC4/cyfitter_cfg.c **** * Return:
 271:Generated_Source\PSoC4/cyfitter_cfg.c **** *  void
 272:Generated_Source\PSoC4/cyfitter_cfg.c **** *
 273:Generated_Source\PSoC4/cyfitter_cfg.c **** *******************************************************************************/
 274:Generated_Source\PSoC4/cyfitter_cfg.c **** static void AnalogSetDefault(void);
 275:Generated_Source\PSoC4/cyfitter_cfg.c **** static void AnalogSetDefault(void)
 276:Generated_Source\PSoC4/cyfitter_cfg.c **** {
 277:Generated_Source\PSoC4/cyfitter_cfg.c **** 	CY_SET_XTND_REG32((void CYFAR *)CYREG_CTBM0_DFT_CTRL, 0x00000003u);
 278:Generated_Source\PSoC4/cyfitter_cfg.c **** 	CY_SET_XTND_REG32((void CYFAR *)CYREG_CTBM1_DFT_CTRL, 0x00000003u);
 279:Generated_Source\PSoC4/cyfitter_cfg.c **** 	CY_SET_XTND_REG32((void CYFAR *)CYREG_PASS_DSAB_DSAB_CTRL, 0x00000000u);
 280:Generated_Source\PSoC4/cyfitter_cfg.c **** 	SetAnalogRoutingPumps(1);
 281:Generated_Source\PSoC4/cyfitter_cfg.c **** }
 282:Generated_Source\PSoC4/cyfitter_cfg.c **** 
 283:Generated_Source\PSoC4/cyfitter_cfg.c **** 
 284:Generated_Source\PSoC4/cyfitter_cfg.c **** /*******************************************************************************
 285:Generated_Source\PSoC4/cyfitter_cfg.c **** * Function Name: SetAnalogRoutingPumps
 286:Generated_Source\PSoC4/cyfitter_cfg.c **** ********************************************************************************
 287:Generated_Source\PSoC4/cyfitter_cfg.c **** *
 288:Generated_Source\PSoC4/cyfitter_cfg.c **** * Summary:
 289:Generated_Source\PSoC4/cyfitter_cfg.c **** * Enables or disables the analog pumps feeding analog routing switches.
 290:Generated_Source\PSoC4/cyfitter_cfg.c **** * Intended to be called at startup, based on the Vdda system configuration;
 291:Generated_Source\PSoC4/cyfitter_cfg.c **** * may be called during operation when the user informs us that the Vdda voltage crossed the pump th
 292:Generated_Source\PSoC4/cyfitter_cfg.c **** *
 293:Generated_Source\PSoC4/cyfitter_cfg.c **** * Parameters:
 294:Generated_Source\PSoC4/cyfitter_cfg.c **** *  enabled - 1 to enable the pumps, 0 to disable the pumps
 295:Generated_Source\PSoC4/cyfitter_cfg.c **** *
 296:Generated_Source\PSoC4/cyfitter_cfg.c **** * Return:
 297:Generated_Source\PSoC4/cyfitter_cfg.c **** *  void
 298:Generated_Source\PSoC4/cyfitter_cfg.c **** *
 299:Generated_Source\PSoC4/cyfitter_cfg.c **** *******************************************************************************/
 300:Generated_Source\PSoC4/cyfitter_cfg.c **** void SetAnalogRoutingPumps(uint8 enabled)
 301:Generated_Source\PSoC4/cyfitter_cfg.c **** {
 259              		.loc 1 301 0
 260              		.cfi_startproc
 261              		@ args = 0, pretend = 0, frame = 0
 262              		@ frame_needed = 0, uses_anonymous_args = 0
 263              		@ link register save eliminated.
ARM GAS  C:\Users\LUCASC~1\AppData\Local\Temp\ccqsUena.s 			page 11


 264              	.LVL18:
 302:Generated_Source\PSoC4/cyfitter_cfg.c **** 	uint32 regValue = CY_GET_XTND_REG32((void *)(CYREG_SAR_PUMP_CTRL));
 265              		.loc 1 302 0
 266 0000 0C4B     		ldr	r3, .L15
 267 0002 1B68     		ldr	r3, [r3]
 268              	.LVL19:
 303:Generated_Source\PSoC4/cyfitter_cfg.c **** 	if (enabled != 0u)
 269              		.loc 1 303 0
 270 0004 0028     		cmp	r0, #0
 271 0006 03D0     		beq	.L11
 304:Generated_Source\PSoC4/cyfitter_cfg.c **** 	{
 305:Generated_Source\PSoC4/cyfitter_cfg.c **** 		regValue |= 0x80000000u;
 272              		.loc 1 305 0
 273 0008 8022     		movs	r2, #128
 274 000a 1206     		lsls	r2, r2, #24
 275 000c 1343     		orrs	r3, r2
 276              	.LVL20:
 277 000e 01E0     		b	.L12
 278              	.L11:
 306:Generated_Source\PSoC4/cyfitter_cfg.c **** 	}
 307:Generated_Source\PSoC4/cyfitter_cfg.c **** 	else
 308:Generated_Source\PSoC4/cyfitter_cfg.c **** 	{
 309:Generated_Source\PSoC4/cyfitter_cfg.c **** 		regValue &= ~0x80000000u;
 279              		.loc 1 309 0
 280 0010 5B00     		lsls	r3, r3, #1
 281              	.LVL21:
 282 0012 5B08     		lsrs	r3, r3, #1
 283              	.LVL22:
 284              	.L12:
 310:Generated_Source\PSoC4/cyfitter_cfg.c **** 	}
 311:Generated_Source\PSoC4/cyfitter_cfg.c **** 	CY_SET_XTND_REG32((void *)(CYREG_SAR_PUMP_CTRL), regValue);
 285              		.loc 1 311 0
 286 0014 074A     		ldr	r2, .L15
 287 0016 1360     		str	r3, [r2]
 312:Generated_Source\PSoC4/cyfitter_cfg.c **** 	regValue = CY_GET_XTND_REG32((void *)(CYREG_CLK_IMO_CONFIG));
 288              		.loc 1 312 0
 289 0018 074B     		ldr	r3, .L15+4
 290              	.LVL23:
 291 001a 1B68     		ldr	r3, [r3]
 292              	.LVL24:
 313:Generated_Source\PSoC4/cyfitter_cfg.c **** 	if (enabled != 0u)
 293              		.loc 1 313 0
 294 001c 0028     		cmp	r0, #0
 295 001e 03D0     		beq	.L13
 314:Generated_Source\PSoC4/cyfitter_cfg.c **** 	{
 315:Generated_Source\PSoC4/cyfitter_cfg.c **** 		regValue |= 0x02000000u;
 296              		.loc 1 315 0
 297 0020 8022     		movs	r2, #128
 298 0022 9204     		lsls	r2, r2, #18
 299 0024 1343     		orrs	r3, r2
 300              	.LVL25:
 301 0026 01E0     		b	.L14
 302              	.L13:
 316:Generated_Source\PSoC4/cyfitter_cfg.c **** 	}
 317:Generated_Source\PSoC4/cyfitter_cfg.c **** 	else
 318:Generated_Source\PSoC4/cyfitter_cfg.c **** 	{
 319:Generated_Source\PSoC4/cyfitter_cfg.c **** 		regValue &= ~0x02000000u;
ARM GAS  C:\Users\LUCASC~1\AppData\Local\Temp\ccqsUena.s 			page 12


 303              		.loc 1 319 0
 304 0028 044A     		ldr	r2, .L15+8
 305 002a 1340     		ands	r3, r2
 306              	.LVL26:
 307              	.L14:
 320:Generated_Source\PSoC4/cyfitter_cfg.c **** 	}
 321:Generated_Source\PSoC4/cyfitter_cfg.c **** 	CY_SET_XTND_REG32((void *)(CYREG_CLK_IMO_CONFIG), regValue);
 308              		.loc 1 321 0
 309 002c 024A     		ldr	r2, .L15+4
 310 002e 1360     		str	r3, [r2]
 322:Generated_Source\PSoC4/cyfitter_cfg.c **** }
 311              		.loc 1 322 0
 312              		@ sp needed
 313 0030 7047     		bx	lr
 314              	.L16:
 315 0032 C046     		.align	2
 316              	.L15:
 317 0034 80033A40 		.word	1077543808
 318 0038 08010B40 		.word	1074462984
 319 003c FFFFFFFD 		.word	-33554433
 320              		.cfi_endproc
 321              	.LFE7:
 322              		.size	SetAnalogRoutingPumps, .-SetAnalogRoutingPumps
 323              		.section	.text.AnalogSetDefault,"ax",%progbits
 324              		.align	2
 325              		.code	16
 326              		.thumb_func
 327              		.type	AnalogSetDefault, %function
 328              	AnalogSetDefault:
 329              	.LFB6:
 276:Generated_Source\PSoC4/cyfitter_cfg.c **** 	CY_SET_XTND_REG32((void CYFAR *)CYREG_CTBM0_DFT_CTRL, 0x00000003u);
 330              		.loc 1 276 0
 331              		.cfi_startproc
 332              		@ args = 0, pretend = 0, frame = 0
 333              		@ frame_needed = 0, uses_anonymous_args = 0
 334 0000 10B5     		push	{r4, lr}
 335              		.cfi_def_cfa_offset 8
 336              		.cfi_offset 4, -8
 337              		.cfi_offset 14, -4
 277:Generated_Source\PSoC4/cyfitter_cfg.c **** 	CY_SET_XTND_REG32((void CYFAR *)CYREG_CTBM1_DFT_CTRL, 0x00000003u);
 338              		.loc 1 277 0
 339 0002 0323     		movs	r3, #3
 340 0004 054A     		ldr	r2, .L18
 341 0006 1360     		str	r3, [r2]
 278:Generated_Source\PSoC4/cyfitter_cfg.c **** 	CY_SET_XTND_REG32((void CYFAR *)CYREG_PASS_DSAB_DSAB_CTRL, 0x00000000u);
 342              		.loc 1 278 0
 343 0008 054A     		ldr	r2, .L18+4
 344 000a 1360     		str	r3, [r2]
 279:Generated_Source\PSoC4/cyfitter_cfg.c **** 	SetAnalogRoutingPumps(1);
 345              		.loc 1 279 0
 346 000c 0022     		movs	r2, #0
 347 000e 054B     		ldr	r3, .L18+8
 348 0010 1A60     		str	r2, [r3]
 280:Generated_Source\PSoC4/cyfitter_cfg.c **** }
 349              		.loc 1 280 0
 350 0012 0120     		movs	r0, #1
 351 0014 FFF7FEFF 		bl	SetAnalogRoutingPumps
ARM GAS  C:\Users\LUCASC~1\AppData\Local\Temp\ccqsUena.s 			page 13


 352              	.LVL27:
 281:Generated_Source\PSoC4/cyfitter_cfg.c **** 
 353              		.loc 1 281 0
 354              		@ sp needed
 355 0018 10BD     		pop	{r4, pc}
 356              	.L19:
 357 001a C046     		.align	2
 358              	.L18:
 359 001c 30003040 		.word	1076887600
 360 0020 30003140 		.word	1076953136
 361 0024 000E3F40 		.word	1077874176
 362              		.cfi_endproc
 363              	.LFE6:
 364              		.size	AnalogSetDefault, .-AnalogSetDefault
 365              		.section	.psocinit
 366              		.align	2
 367              		.global	cyfitter_cfg
 368              		.code	16
 369              		.thumb_func
 370              		.type	cyfitter_cfg, %function
 371              	cyfitter_cfg:
 372              	.LFB8:
 323:Generated_Source\PSoC4/cyfitter_cfg.c **** 
 324:Generated_Source\PSoC4/cyfitter_cfg.c **** 
 325:Generated_Source\PSoC4/cyfitter_cfg.c **** 
 326:Generated_Source\PSoC4/cyfitter_cfg.c **** 
 327:Generated_Source\PSoC4/cyfitter_cfg.c **** /*******************************************************************************
 328:Generated_Source\PSoC4/cyfitter_cfg.c **** * Function Name: cyfitter_cfg
 329:Generated_Source\PSoC4/cyfitter_cfg.c **** ********************************************************************************
 330:Generated_Source\PSoC4/cyfitter_cfg.c **** * Summary:
 331:Generated_Source\PSoC4/cyfitter_cfg.c **** *  This function is called by the start-up code for the selected device. It
 332:Generated_Source\PSoC4/cyfitter_cfg.c **** *  performs all of the necessary device configuration based on the design
 333:Generated_Source\PSoC4/cyfitter_cfg.c **** *  settings.  This includes settings from the Design Wide Resources (DWR) such
 334:Generated_Source\PSoC4/cyfitter_cfg.c **** *  as Clocks and Pins as well as any component configuration that is necessary.
 335:Generated_Source\PSoC4/cyfitter_cfg.c **** *
 336:Generated_Source\PSoC4/cyfitter_cfg.c **** * Parameters:
 337:Generated_Source\PSoC4/cyfitter_cfg.c **** *   void
 338:Generated_Source\PSoC4/cyfitter_cfg.c **** *
 339:Generated_Source\PSoC4/cyfitter_cfg.c **** * Return:
 340:Generated_Source\PSoC4/cyfitter_cfg.c **** *   void
 341:Generated_Source\PSoC4/cyfitter_cfg.c **** *
 342:Generated_Source\PSoC4/cyfitter_cfg.c **** *******************************************************************************/
 343:Generated_Source\PSoC4/cyfitter_cfg.c **** CY_CFG_SECTION
 344:Generated_Source\PSoC4/cyfitter_cfg.c **** void cyfitter_cfg(void)
 345:Generated_Source\PSoC4/cyfitter_cfg.c **** {
 373              		.loc 1 345 0
 374              		.cfi_startproc
 375              		@ args = 0, pretend = 0, frame = 0
 376              		@ frame_needed = 0, uses_anonymous_args = 0
 377 00d0 10B5     		push	{r4, lr}
 378              		.cfi_def_cfa_offset 8
 379              		.cfi_offset 4, -8
 380              		.cfi_offset 14, -4
 346:Generated_Source\PSoC4/cyfitter_cfg.c **** 	/* Disable interrupts by default. Let user enable if/when they want. */
 347:Generated_Source\PSoC4/cyfitter_cfg.c **** 	CyGlobalIntDisable;
 381              		.loc 1 347 0
 382              		.syntax divided
ARM GAS  C:\Users\LUCASC~1\AppData\Local\Temp\ccqsUena.s 			page 14


 383              	@ 347 "Generated_Source\PSoC4\cyfitter_cfg.c" 1
 384 00d2 72B6     		CPSID   i
 385              	@ 0 "" 2
 386              	.LVL28:
 387              		.thumb
 388              		.syntax unified
 389              	.LBB3:
 348:Generated_Source\PSoC4/cyfitter_cfg.c **** 
 349:Generated_Source\PSoC4/cyfitter_cfg.c **** 	{
 350:Generated_Source\PSoC4/cyfitter_cfg.c **** 		static const uint32 CYCODE cy_cfg_addr_table[] = {
 351:Generated_Source\PSoC4/cyfitter_cfg.c **** 			0x400F0001u, /* Base address: 0x400F0000 Count: 1 */
 352:Generated_Source\PSoC4/cyfitter_cfg.c **** 			0x400F3502u, /* Base address: 0x400F3500 Count: 2 */
 353:Generated_Source\PSoC4/cyfitter_cfg.c **** 			0x400F3660u, /* Base address: 0x400F3600 Count: 96 */
 354:Generated_Source\PSoC4/cyfitter_cfg.c **** 			0x400F3738u, /* Base address: 0x400F3700 Count: 56 */
 355:Generated_Source\PSoC4/cyfitter_cfg.c **** 			0x400F4502u, /* Base address: 0x400F4500 Count: 2 */
 356:Generated_Source\PSoC4/cyfitter_cfg.c **** 			0x400F4605u, /* Base address: 0x400F4600 Count: 5 */
 357:Generated_Source\PSoC4/cyfitter_cfg.c **** 			0x400F4704u, /* Base address: 0x400F4700 Count: 4 */
 358:Generated_Source\PSoC4/cyfitter_cfg.c **** 			0x400F6002u, /* Base address: 0x400F6000 Count: 2 */
 359:Generated_Source\PSoC4/cyfitter_cfg.c **** 		};
 360:Generated_Source\PSoC4/cyfitter_cfg.c **** 
 361:Generated_Source\PSoC4/cyfitter_cfg.c **** 		static const cy_cfg_addrvalue_t CYCODE cy_cfg_data_table[] = {
 362:Generated_Source\PSoC4/cyfitter_cfg.c **** 			{0x87u, 0x0Fu},
 363:Generated_Source\PSoC4/cyfitter_cfg.c **** 			{0x83u, 0x08u},
 364:Generated_Source\PSoC4/cyfitter_cfg.c **** 			{0xE4u, 0x01u},
 365:Generated_Source\PSoC4/cyfitter_cfg.c **** 			{0x01u, 0x80u},
 366:Generated_Source\PSoC4/cyfitter_cfg.c **** 			{0x03u, 0x13u},
 367:Generated_Source\PSoC4/cyfitter_cfg.c **** 			{0x07u, 0x08u},
 368:Generated_Source\PSoC4/cyfitter_cfg.c **** 			{0x08u, 0x14u},
 369:Generated_Source\PSoC4/cyfitter_cfg.c **** 			{0x0Cu, 0x10u},
 370:Generated_Source\PSoC4/cyfitter_cfg.c **** 			{0x0Eu, 0x0Cu},
 371:Generated_Source\PSoC4/cyfitter_cfg.c **** 			{0x11u, 0x71u},
 372:Generated_Source\PSoC4/cyfitter_cfg.c **** 			{0x12u, 0x03u},
 373:Generated_Source\PSoC4/cyfitter_cfg.c **** 			{0x13u, 0x0Eu},
 374:Generated_Source\PSoC4/cyfitter_cfg.c **** 			{0x17u, 0x0Cu},
 375:Generated_Source\PSoC4/cyfitter_cfg.c **** 			{0x18u, 0x10u},
 376:Generated_Source\PSoC4/cyfitter_cfg.c **** 			{0x19u, 0x2Cu},
 377:Generated_Source\PSoC4/cyfitter_cfg.c **** 			{0x1Bu, 0x43u},
 378:Generated_Source\PSoC4/cyfitter_cfg.c **** 			{0x20u, 0x0Cu},
 379:Generated_Source\PSoC4/cyfitter_cfg.c **** 			{0x22u, 0x11u},
 380:Generated_Source\PSoC4/cyfitter_cfg.c **** 			{0x24u, 0x09u},
 381:Generated_Source\PSoC4/cyfitter_cfg.c **** 			{0x26u, 0x10u},
 382:Generated_Source\PSoC4/cyfitter_cfg.c **** 			{0x28u, 0x1Cu},
 383:Generated_Source\PSoC4/cyfitter_cfg.c **** 			{0x2Au, 0x02u},
 384:Generated_Source\PSoC4/cyfitter_cfg.c **** 			{0x2Du, 0x71u},
 385:Generated_Source\PSoC4/cyfitter_cfg.c **** 			{0x2Fu, 0x06u},
 386:Generated_Source\PSoC4/cyfitter_cfg.c **** 			{0x30u, 0x1Fu},
 387:Generated_Source\PSoC4/cyfitter_cfg.c **** 			{0x31u, 0x30u},
 388:Generated_Source\PSoC4/cyfitter_cfg.c **** 			{0x33u, 0x0Fu},
 389:Generated_Source\PSoC4/cyfitter_cfg.c **** 			{0x35u, 0xC0u},
 390:Generated_Source\PSoC4/cyfitter_cfg.c **** 			{0x38u, 0x08u},
 391:Generated_Source\PSoC4/cyfitter_cfg.c **** 			{0x39u, 0x22u},
 392:Generated_Source\PSoC4/cyfitter_cfg.c **** 			{0x3Bu, 0x08u},
 393:Generated_Source\PSoC4/cyfitter_cfg.c **** 			{0x3Eu, 0x04u},
 394:Generated_Source\PSoC4/cyfitter_cfg.c **** 			{0x3Fu, 0x01u},
 395:Generated_Source\PSoC4/cyfitter_cfg.c **** 			{0x40u, 0x01u},
 396:Generated_Source\PSoC4/cyfitter_cfg.c **** 			{0x45u, 0x04u},
 397:Generated_Source\PSoC4/cyfitter_cfg.c **** 			{0x49u, 0xFFu},
ARM GAS  C:\Users\LUCASC~1\AppData\Local\Temp\ccqsUena.s 			page 15


 398:Generated_Source\PSoC4/cyfitter_cfg.c **** 			{0x4Au, 0x07u},
 399:Generated_Source\PSoC4/cyfitter_cfg.c **** 			{0x4Bu, 0xFFu},
 400:Generated_Source\PSoC4/cyfitter_cfg.c **** 			{0x4Cu, 0x40u},
 401:Generated_Source\PSoC4/cyfitter_cfg.c **** 			{0x4Du, 0x20u},
 402:Generated_Source\PSoC4/cyfitter_cfg.c **** 			{0x4Eu, 0xF0u},
 403:Generated_Source\PSoC4/cyfitter_cfg.c **** 			{0x4Fu, 0x05u},
 404:Generated_Source\PSoC4/cyfitter_cfg.c **** 			{0x50u, 0x08u},
 405:Generated_Source\PSoC4/cyfitter_cfg.c **** 			{0x58u, 0x04u},
 406:Generated_Source\PSoC4/cyfitter_cfg.c **** 			{0x59u, 0x04u},
 407:Generated_Source\PSoC4/cyfitter_cfg.c **** 			{0x5Au, 0x04u},
 408:Generated_Source\PSoC4/cyfitter_cfg.c **** 			{0x5Fu, 0x01u},
 409:Generated_Source\PSoC4/cyfitter_cfg.c **** 			{0x60u, 0x40u},
 410:Generated_Source\PSoC4/cyfitter_cfg.c **** 			{0x61u, 0xA8u},
 411:Generated_Source\PSoC4/cyfitter_cfg.c **** 			{0x62u, 0x40u},
 412:Generated_Source\PSoC4/cyfitter_cfg.c **** 			{0x63u, 0x20u},
 413:Generated_Source\PSoC4/cyfitter_cfg.c **** 			{0x83u, 0x01u},
 414:Generated_Source\PSoC4/cyfitter_cfg.c **** 			{0x86u, 0x08u},
 415:Generated_Source\PSoC4/cyfitter_cfg.c **** 			{0x8Cu, 0x13u},
 416:Generated_Source\PSoC4/cyfitter_cfg.c **** 			{0x8Eu, 0x0Cu},
 417:Generated_Source\PSoC4/cyfitter_cfg.c **** 			{0x90u, 0x13u},
 418:Generated_Source\PSoC4/cyfitter_cfg.c **** 			{0x92u, 0x04u},
 419:Generated_Source\PSoC4/cyfitter_cfg.c **** 			{0x93u, 0x03u},
 420:Generated_Source\PSoC4/cyfitter_cfg.c **** 			{0x95u, 0x06u},
 421:Generated_Source\PSoC4/cyfitter_cfg.c **** 			{0x97u, 0x01u},
 422:Generated_Source\PSoC4/cyfitter_cfg.c **** 			{0x98u, 0x20u},
 423:Generated_Source\PSoC4/cyfitter_cfg.c **** 			{0x9Bu, 0x06u},
 424:Generated_Source\PSoC4/cyfitter_cfg.c **** 			{0x9Cu, 0x40u},
 425:Generated_Source\PSoC4/cyfitter_cfg.c **** 			{0xA2u, 0x15u},
 426:Generated_Source\PSoC4/cyfitter_cfg.c **** 			{0xA4u, 0x03u},
 427:Generated_Source\PSoC4/cyfitter_cfg.c **** 			{0xA6u, 0x14u},
 428:Generated_Source\PSoC4/cyfitter_cfg.c **** 			{0xA8u, 0x0Au},
 429:Generated_Source\PSoC4/cyfitter_cfg.c **** 			{0xAAu, 0x14u},
 430:Generated_Source\PSoC4/cyfitter_cfg.c **** 			{0xABu, 0x02u},
 431:Generated_Source\PSoC4/cyfitter_cfg.c **** 			{0xAFu, 0x05u},
 432:Generated_Source\PSoC4/cyfitter_cfg.c **** 			{0xB0u, 0x10u},
 433:Generated_Source\PSoC4/cyfitter_cfg.c **** 			{0xB1u, 0x07u},
 434:Generated_Source\PSoC4/cyfitter_cfg.c **** 			{0xB2u, 0x20u},
 435:Generated_Source\PSoC4/cyfitter_cfg.c **** 			{0xB4u, 0x40u},
 436:Generated_Source\PSoC4/cyfitter_cfg.c **** 			{0xB6u, 0x0Fu},
 437:Generated_Source\PSoC4/cyfitter_cfg.c **** 			{0xBAu, 0x80u},
 438:Generated_Source\PSoC4/cyfitter_cfg.c **** 			{0xBBu, 0x02u},
 439:Generated_Source\PSoC4/cyfitter_cfg.c **** 			{0xBEu, 0x15u},
 440:Generated_Source\PSoC4/cyfitter_cfg.c **** 			{0xC0u, 0x51u},
 441:Generated_Source\PSoC4/cyfitter_cfg.c **** 			{0xC1u, 0x04u},
 442:Generated_Source\PSoC4/cyfitter_cfg.c **** 			{0xC5u, 0xECu},
 443:Generated_Source\PSoC4/cyfitter_cfg.c **** 			{0xC6u, 0xB0u},
 444:Generated_Source\PSoC4/cyfitter_cfg.c **** 			{0xC7u, 0x0Eu},
 445:Generated_Source\PSoC4/cyfitter_cfg.c **** 			{0xC8u, 0x1Bu},
 446:Generated_Source\PSoC4/cyfitter_cfg.c **** 			{0xC9u, 0xFFu},
 447:Generated_Source\PSoC4/cyfitter_cfg.c **** 			{0xCAu, 0xFFu},
 448:Generated_Source\PSoC4/cyfitter_cfg.c **** 			{0xCBu, 0xFFu},
 449:Generated_Source\PSoC4/cyfitter_cfg.c **** 			{0xCEu, 0xF0u},
 450:Generated_Source\PSoC4/cyfitter_cfg.c **** 			{0xCFu, 0x44u},
 451:Generated_Source\PSoC4/cyfitter_cfg.c **** 			{0xD0u, 0x0Cu},
 452:Generated_Source\PSoC4/cyfitter_cfg.c **** 			{0xD4u, 0x01u},
 453:Generated_Source\PSoC4/cyfitter_cfg.c **** 			{0xD8u, 0x04u},
 454:Generated_Source\PSoC4/cyfitter_cfg.c **** 			{0xD9u, 0x04u},
ARM GAS  C:\Users\LUCASC~1\AppData\Local\Temp\ccqsUena.s 			page 16


 455:Generated_Source\PSoC4/cyfitter_cfg.c **** 			{0xDAu, 0x04u},
 456:Generated_Source\PSoC4/cyfitter_cfg.c **** 			{0xDBu, 0x04u},
 457:Generated_Source\PSoC4/cyfitter_cfg.c **** 			{0xDFu, 0x01u},
 458:Generated_Source\PSoC4/cyfitter_cfg.c **** 			{0xE6u, 0xC0u},
 459:Generated_Source\PSoC4/cyfitter_cfg.c **** 			{0xEAu, 0x40u},
 460:Generated_Source\PSoC4/cyfitter_cfg.c **** 			{0xEBu, 0x02u},
 461:Generated_Source\PSoC4/cyfitter_cfg.c **** 			{0x01u, 0x80u},
 462:Generated_Source\PSoC4/cyfitter_cfg.c **** 			{0x02u, 0x20u},
 463:Generated_Source\PSoC4/cyfitter_cfg.c **** 			{0x04u, 0x20u},
 464:Generated_Source\PSoC4/cyfitter_cfg.c **** 			{0x05u, 0x80u},
 465:Generated_Source\PSoC4/cyfitter_cfg.c **** 			{0x09u, 0x02u},
 466:Generated_Source\PSoC4/cyfitter_cfg.c **** 			{0x0Bu, 0x0Au},
 467:Generated_Source\PSoC4/cyfitter_cfg.c **** 			{0x0Eu, 0x80u},
 468:Generated_Source\PSoC4/cyfitter_cfg.c **** 			{0x0Fu, 0x08u},
 469:Generated_Source\PSoC4/cyfitter_cfg.c **** 			{0x10u, 0xB0u},
 470:Generated_Source\PSoC4/cyfitter_cfg.c **** 			{0x13u, 0x20u},
 471:Generated_Source\PSoC4/cyfitter_cfg.c **** 			{0x15u, 0x02u},
 472:Generated_Source\PSoC4/cyfitter_cfg.c **** 			{0x17u, 0x28u},
 473:Generated_Source\PSoC4/cyfitter_cfg.c **** 			{0x18u, 0x04u},
 474:Generated_Source\PSoC4/cyfitter_cfg.c **** 			{0x19u, 0x84u},
 475:Generated_Source\PSoC4/cyfitter_cfg.c **** 			{0x1Au, 0x40u},
 476:Generated_Source\PSoC4/cyfitter_cfg.c **** 			{0x1Eu, 0x80u},
 477:Generated_Source\PSoC4/cyfitter_cfg.c **** 			{0x1Fu, 0x09u},
 478:Generated_Source\PSoC4/cyfitter_cfg.c **** 			{0x21u, 0x03u},
 479:Generated_Source\PSoC4/cyfitter_cfg.c **** 			{0x22u, 0x02u},
 480:Generated_Source\PSoC4/cyfitter_cfg.c **** 			{0x25u, 0x08u},
 481:Generated_Source\PSoC4/cyfitter_cfg.c **** 			{0x26u, 0x20u},
 482:Generated_Source\PSoC4/cyfitter_cfg.c **** 			{0x27u, 0x68u},
 483:Generated_Source\PSoC4/cyfitter_cfg.c **** 			{0x29u, 0x80u},
 484:Generated_Source\PSoC4/cyfitter_cfg.c **** 			{0x2Bu, 0x04u},
 485:Generated_Source\PSoC4/cyfitter_cfg.c **** 			{0x2Du, 0x80u},
 486:Generated_Source\PSoC4/cyfitter_cfg.c **** 			{0x31u, 0x0Au},
 487:Generated_Source\PSoC4/cyfitter_cfg.c **** 			{0x32u, 0x20u},
 488:Generated_Source\PSoC4/cyfitter_cfg.c **** 			{0x36u, 0x02u},
 489:Generated_Source\PSoC4/cyfitter_cfg.c **** 			{0x37u, 0x28u},
 490:Generated_Source\PSoC4/cyfitter_cfg.c **** 			{0x39u, 0x01u},
 491:Generated_Source\PSoC4/cyfitter_cfg.c **** 			{0x3Eu, 0x01u},
 492:Generated_Source\PSoC4/cyfitter_cfg.c **** 			{0x3Fu, 0x0Au},
 493:Generated_Source\PSoC4/cyfitter_cfg.c **** 			{0x41u, 0x02u},
 494:Generated_Source\PSoC4/cyfitter_cfg.c **** 			{0x42u, 0x01u},
 495:Generated_Source\PSoC4/cyfitter_cfg.c **** 			{0x47u, 0x40u},
 496:Generated_Source\PSoC4/cyfitter_cfg.c **** 			{0x48u, 0x20u},
 497:Generated_Source\PSoC4/cyfitter_cfg.c **** 			{0x49u, 0x81u},
 498:Generated_Source\PSoC4/cyfitter_cfg.c **** 			{0x4Cu, 0x80u},
 499:Generated_Source\PSoC4/cyfitter_cfg.c **** 			{0x4Du, 0x01u},
 500:Generated_Source\PSoC4/cyfitter_cfg.c **** 			{0x4Fu, 0x0Au},
 501:Generated_Source\PSoC4/cyfitter_cfg.c **** 			{0x50u, 0x10u},
 502:Generated_Source\PSoC4/cyfitter_cfg.c **** 			{0x53u, 0x04u},
 503:Generated_Source\PSoC4/cyfitter_cfg.c **** 			{0x58u, 0x10u},
 504:Generated_Source\PSoC4/cyfitter_cfg.c **** 			{0x59u, 0x05u},
 505:Generated_Source\PSoC4/cyfitter_cfg.c **** 			{0x5Au, 0x40u},
 506:Generated_Source\PSoC4/cyfitter_cfg.c **** 			{0x8Cu, 0x04u},
 507:Generated_Source\PSoC4/cyfitter_cfg.c **** 			{0xA7u, 0x08u},
 508:Generated_Source\PSoC4/cyfitter_cfg.c **** 			{0xC0u, 0xC5u},
 509:Generated_Source\PSoC4/cyfitter_cfg.c **** 			{0xC2u, 0x5Bu},
 510:Generated_Source\PSoC4/cyfitter_cfg.c **** 			{0xC4u, 0x7Eu},
 511:Generated_Source\PSoC4/cyfitter_cfg.c **** 			{0xCAu, 0x1Cu},
ARM GAS  C:\Users\LUCASC~1\AppData\Local\Temp\ccqsUena.s 			page 17


 512:Generated_Source\PSoC4/cyfitter_cfg.c **** 			{0xCCu, 0xE7u},
 513:Generated_Source\PSoC4/cyfitter_cfg.c **** 			{0xCEu, 0xC1u},
 514:Generated_Source\PSoC4/cyfitter_cfg.c **** 			{0xD0u, 0x19u},
 515:Generated_Source\PSoC4/cyfitter_cfg.c **** 			{0xD2u, 0x08u},
 516:Generated_Source\PSoC4/cyfitter_cfg.c **** 			{0xD6u, 0x0Fu},
 517:Generated_Source\PSoC4/cyfitter_cfg.c **** 			{0x5Au, 0x80u},
 518:Generated_Source\PSoC4/cyfitter_cfg.c **** 			{0xD4u, 0x01u},
 519:Generated_Source\PSoC4/cyfitter_cfg.c **** 			{0x3Au, 0x08u},
 520:Generated_Source\PSoC4/cyfitter_cfg.c **** 			{0x3Eu, 0x08u},
 521:Generated_Source\PSoC4/cyfitter_cfg.c **** 			{0x82u, 0x48u},
 522:Generated_Source\PSoC4/cyfitter_cfg.c **** 			{0x96u, 0x80u},
 523:Generated_Source\PSoC4/cyfitter_cfg.c **** 			{0xCEu, 0x03u},
 524:Generated_Source\PSoC4/cyfitter_cfg.c **** 			{0x50u, 0x02u},
 525:Generated_Source\PSoC4/cyfitter_cfg.c **** 			{0x8Cu, 0x02u},
 526:Generated_Source\PSoC4/cyfitter_cfg.c **** 			{0xD4u, 0x01u},
 527:Generated_Source\PSoC4/cyfitter_cfg.c **** 			{0xE4u, 0x02u},
 528:Generated_Source\PSoC4/cyfitter_cfg.c **** 			{0x01u, 0x01u},
 529:Generated_Source\PSoC4/cyfitter_cfg.c **** 			{0x12u, 0x01u},
 530:Generated_Source\PSoC4/cyfitter_cfg.c **** 		};
 531:Generated_Source\PSoC4/cyfitter_cfg.c **** 
 532:Generated_Source\PSoC4/cyfitter_cfg.c **** 
 533:Generated_Source\PSoC4/cyfitter_cfg.c **** 
 534:Generated_Source\PSoC4/cyfitter_cfg.c **** 		CYPACKED typedef struct {
 535:Generated_Source\PSoC4/cyfitter_cfg.c **** 			void CYFAR *address;
 536:Generated_Source\PSoC4/cyfitter_cfg.c **** 			uint16 size;
 537:Generated_Source\PSoC4/cyfitter_cfg.c **** 		} CYPACKED_ATTR cfg_memset_t;
 538:Generated_Source\PSoC4/cyfitter_cfg.c **** 
 539:Generated_Source\PSoC4/cyfitter_cfg.c **** 		static const cfg_memset_t CYCODE cfg_memset_list[] = {
 540:Generated_Source\PSoC4/cyfitter_cfg.c **** 			/* address, size */
 541:Generated_Source\PSoC4/cyfitter_cfg.c **** 			{(void CYFAR *)(CYDEV_UDB_P0_U0_BASE), 2048u},
 542:Generated_Source\PSoC4/cyfitter_cfg.c **** 			{(void CYFAR *)(CYDEV_UDB_DSI0_BASE), 2048u},
 543:Generated_Source\PSoC4/cyfitter_cfg.c **** 		};
 544:Generated_Source\PSoC4/cyfitter_cfg.c **** 
 545:Generated_Source\PSoC4/cyfitter_cfg.c **** 		uint8 CYDATA i;
 546:Generated_Source\PSoC4/cyfitter_cfg.c **** 
 547:Generated_Source\PSoC4/cyfitter_cfg.c **** 		/* Zero out critical memory blocks before beginning configuration */
 548:Generated_Source\PSoC4/cyfitter_cfg.c **** 		for (i = 0u; i < (sizeof(cfg_memset_list)/sizeof(cfg_memset_list[0])); i++)
 390              		.loc 1 548 0
 391 00d4 0024     		movs	r4, #0
 392 00d6 0FE0     		b	.L21
 393              	.LVL29:
 394              	.L22:
 395              	.LBB4:
 549:Generated_Source\PSoC4/cyfitter_cfg.c **** 		{
 550:Generated_Source\PSoC4/cyfitter_cfg.c **** 			const cfg_memset_t CYCODE * CYDATA ms = &cfg_memset_list[i];
 551:Generated_Source\PSoC4/cyfitter_cfg.c **** 			CYMEMZERO(ms->address, (size_t)(uint32)(ms->size));
 396              		.loc 1 551 0 discriminator 3
 397 00d8 2A48     		ldr	r0, .L23
 398 00da 6200     		lsls	r2, r4, #1
 399 00dc 1319     		adds	r3, r2, r4
 400 00de 5900     		lsls	r1, r3, #1
 401 00e0 0B00     		movs	r3, r1
 402 00e2 4118     		adds	r1, r0, r1
 403 00e4 8988     		ldrh	r1, [r1, #4]
 404 00e6 1A5A     		ldrh	r2, [r3, r0]
 405 00e8 C318     		adds	r3, r0, r3
 406 00ea 5888     		ldrh	r0, [r3, #2]
ARM GAS  C:\Users\LUCASC~1\AppData\Local\Temp\ccqsUena.s 			page 18


 407 00ec 0004     		lsls	r0, r0, #16
 408 00ee 1043     		orrs	r0, r2
 409 00f0 FFF7FEFF 		bl	CYMEMZERO
 410              	.LVL30:
 411              	.LBE4:
 548:Generated_Source\PSoC4/cyfitter_cfg.c **** 		{
 412              		.loc 1 548 0 discriminator 3
 413 00f4 0134     		adds	r4, r4, #1
 414              	.LVL31:
 415 00f6 E4B2     		uxtb	r4, r4
 416              	.LVL32:
 417              	.L21:
 548:Generated_Source\PSoC4/cyfitter_cfg.c **** 		{
 418              		.loc 1 548 0 is_stmt 0 discriminator 1
 419 00f8 012C     		cmp	r4, #1
 420 00fa EDD9     		bls	.L22
 552:Generated_Source\PSoC4/cyfitter_cfg.c **** 		}
 553:Generated_Source\PSoC4/cyfitter_cfg.c **** 
 554:Generated_Source\PSoC4/cyfitter_cfg.c **** 		cfg_write_bytes32(cy_cfg_addr_table, cy_cfg_data_table);
 421              		.loc 1 554 0 is_stmt 1
 422 00fc 2149     		ldr	r1, .L23
 423 00fe 0C31     		adds	r1, r1, #12
 424 0100 2148     		ldr	r0, .L23+4
 425 0102 5C30     		adds	r0, r0, #92
 426 0104 FFF7FEFF 		bl	cfg_write_bytes32
 427              	.LVL33:
 555:Generated_Source\PSoC4/cyfitter_cfg.c **** 
 556:Generated_Source\PSoC4/cyfitter_cfg.c **** 		/* HSIOM Starting address: CYDEV_HSIOM_BASE */
 557:Generated_Source\PSoC4/cyfitter_cfg.c **** 		CY_SET_REG32((void *)(CYREG_HSIOM_PORT_SEL3), 0x0000EE30u);
 428              		.loc 1 557 0
 429 0108 204A     		ldr	r2, .L23+8
 430 010a 214B     		ldr	r3, .L23+12
 431 010c 1A60     		str	r2, [r3]
 558:Generated_Source\PSoC4/cyfitter_cfg.c **** 		CY_SET_REG32((void *)(CYREG_HSIOM_PORT_SEL4), 0x000000EEu);
 432              		.loc 1 558 0
 433 010e EE22     		movs	r2, #238
 434 0110 204B     		ldr	r3, .L23+16
 435 0112 1A60     		str	r2, [r3]
 559:Generated_Source\PSoC4/cyfitter_cfg.c **** 
 560:Generated_Source\PSoC4/cyfitter_cfg.c **** 		/* UDB_PA_4 Starting address: CYDEV_UDB_PA4_BASE */
 561:Generated_Source\PSoC4/cyfitter_cfg.c **** 		CY_SET_REG32((void *)(CYDEV_UDB_PA4_BASE), 0x00990000u);
 436              		.loc 1 561 0
 437 0114 9923     		movs	r3, #153
 438 0116 1B04     		lsls	r3, r3, #16
 439 0118 1F4A     		ldr	r2, .L23+20
 440 011a 1360     		str	r3, [r2]
 562:Generated_Source\PSoC4/cyfitter_cfg.c **** 
 563:Generated_Source\PSoC4/cyfitter_cfg.c **** 		/* UDB_PA_5 Starting address: CYDEV_UDB_PA5_BASE */
 564:Generated_Source\PSoC4/cyfitter_cfg.c **** 		CY_SET_REG32((void *)(CYDEV_UDB_PA5_BASE), 0x00990000u);
 441              		.loc 1 564 0
 442 011c 1F4A     		ldr	r2, .L23+24
 443 011e 1360     		str	r3, [r2]
 565:Generated_Source\PSoC4/cyfitter_cfg.c **** 		CY_SET_REG32((void *)(CYREG_UDB_PA5_CFG8), 0x00200000u);
 444              		.loc 1 565 0
 445 0120 8021     		movs	r1, #128
 446 0122 8903     		lsls	r1, r1, #14
 447 0124 1E4A     		ldr	r2, .L23+28
ARM GAS  C:\Users\LUCASC~1\AppData\Local\Temp\ccqsUena.s 			page 19


 448 0126 1160     		str	r1, [r2]
 566:Generated_Source\PSoC4/cyfitter_cfg.c **** 
 567:Generated_Source\PSoC4/cyfitter_cfg.c **** 		/* UDB_PA_7 Starting address: CYDEV_UDB_PA7_BASE */
 568:Generated_Source\PSoC4/cyfitter_cfg.c **** 		CY_SET_REG32((void *)(CYDEV_UDB_PA7_BASE), 0x00990000u);
 449              		.loc 1 568 0
 450 0128 1E4A     		ldr	r2, .L23+32
 451 012a 1360     		str	r3, [r2]
 569:Generated_Source\PSoC4/cyfitter_cfg.c **** 		CY_SET_REG32((void *)(CYREG_UDB_PA7_CFG8), 0x00080000u);
 452              		.loc 1 569 0
 453 012c 8022     		movs	r2, #128
 454 012e 1203     		lsls	r2, r2, #12
 455 0130 1D4B     		ldr	r3, .L23+36
 456 0132 1A60     		str	r2, [r3]
 570:Generated_Source\PSoC4/cyfitter_cfg.c **** 
 571:Generated_Source\PSoC4/cyfitter_cfg.c **** 		/* Enable UDB array and digital routing */
 572:Generated_Source\PSoC4/cyfitter_cfg.c **** 		CY_SET_XTND_REG8((void *)CYREG_UDB_UDB_WAIT_CFG, (uint8)((CY_GET_XTND_REG8((void *)CYREG_UDB_UDB_
 457              		.loc 1 572 0
 458 0134 1D49     		ldr	r1, .L23+40
 459 0136 0B78     		ldrb	r3, [r1]
 460 0138 3C22     		movs	r2, #60
 461 013a 9343     		bics	r3, r2
 462 013c 1422     		movs	r2, #20
 463 013e 1343     		orrs	r3, r2
 464 0140 DBB2     		uxtb	r3, r3
 465 0142 0B70     		strb	r3, [r1]
 573:Generated_Source\PSoC4/cyfitter_cfg.c **** 		CY_SET_XTND_REG8((void *)CYREG_UDB_UDB_BANK_CTL, (uint8)(CY_GET_XTND_REG8((void *)CYREG_UDB_UDB_B
 466              		.loc 1 573 0
 467 0144 1A4A     		ldr	r2, .L23+44
 468 0146 1178     		ldrb	r1, [r2]
 469 0148 1623     		movs	r3, #22
 470 014a 0B43     		orrs	r3, r1
 471 014c DBB2     		uxtb	r3, r3
 472 014e 1370     		strb	r3, [r2]
 473              	.LBE3:
 574:Generated_Source\PSoC4/cyfitter_cfg.c **** 	}
 575:Generated_Source\PSoC4/cyfitter_cfg.c **** 
 576:Generated_Source\PSoC4/cyfitter_cfg.c **** 	/* Perform second pass device configuration. These items must be configured in specific order afte
 577:Generated_Source\PSoC4/cyfitter_cfg.c **** 	/* IOPINS0_0 Starting address: CYDEV_GPIO_PRT0_BASE */
 578:Generated_Source\PSoC4/cyfitter_cfg.c **** 	CY_SET_REG32((void *)(CYDEV_GPIO_PRT0_BASE), 0x00000040u);
 474              		.loc 1 578 0
 475 0150 4023     		movs	r3, #64
 476 0152 184A     		ldr	r2, .L23+48
 477 0154 1360     		str	r3, [r2]
 579:Generated_Source\PSoC4/cyfitter_cfg.c **** 	CY_SET_REG32((void *)(CYREG_GPIO_PRT0_PC2), 0x00000040u);
 478              		.loc 1 579 0
 479 0156 184A     		ldr	r2, .L23+52
 480 0158 1360     		str	r3, [r2]
 580:Generated_Source\PSoC4/cyfitter_cfg.c **** 
 581:Generated_Source\PSoC4/cyfitter_cfg.c **** 	/* IOPINS0_3 Starting address: CYDEV_GPIO_PRT3_BASE */
 582:Generated_Source\PSoC4/cyfitter_cfg.c **** 	CY_SET_REG32((void *)(CYDEV_GPIO_PRT3_BASE), 0x00000002u);
 481              		.loc 1 582 0
 482 015a 0222     		movs	r2, #2
 483 015c 174B     		ldr	r3, .L23+56
 484 015e 1A60     		str	r2, [r3]
 583:Generated_Source\PSoC4/cyfitter_cfg.c **** 	CY_SET_REG32((void *)(CYREG_GPIO_PRT3_PC), 0x00000DB0u);
 485              		.loc 1 583 0
 486 0160 DB22     		movs	r2, #219
ARM GAS  C:\Users\LUCASC~1\AppData\Local\Temp\ccqsUena.s 			page 20


 487 0162 1201     		lsls	r2, r2, #4
 488 0164 164B     		ldr	r3, .L23+60
 489 0166 1A60     		str	r2, [r3]
 584:Generated_Source\PSoC4/cyfitter_cfg.c **** 
 585:Generated_Source\PSoC4/cyfitter_cfg.c **** 	/* IOPINS0_4 Starting address: CYDEV_GPIO_PRT4_BASE */
 586:Generated_Source\PSoC4/cyfitter_cfg.c **** 	CY_SET_REG32((void *)(CYDEV_GPIO_PRT4_BASE), 0x000000D3u);
 490              		.loc 1 586 0
 491 0168 D322     		movs	r2, #211
 492 016a 164B     		ldr	r3, .L23+64
 493 016c 1A60     		str	r2, [r3]
 587:Generated_Source\PSoC4/cyfitter_cfg.c **** 	CY_SET_REG32((void *)(CYREG_GPIO_PRT4_PC), 0x00000024u);
 494              		.loc 1 587 0
 495 016e AF3A     		subs	r2, r2, #175
 496 0170 154B     		ldr	r3, .L23+68
 497 0172 1A60     		str	r2, [r3]
 588:Generated_Source\PSoC4/cyfitter_cfg.c **** 	CY_SET_REG32((void *)(CYREG_GPIO_PRT4_PC2), 0x000000F4u);
 498              		.loc 1 588 0
 499 0174 D032     		adds	r2, r2, #208
 500 0176 154B     		ldr	r3, .L23+72
 501 0178 1A60     		str	r2, [r3]
 589:Generated_Source\PSoC4/cyfitter_cfg.c **** 
 590:Generated_Source\PSoC4/cyfitter_cfg.c **** 
 591:Generated_Source\PSoC4/cyfitter_cfg.c **** 	/* Setup clocks based on selections from Clock DWR */
 592:Generated_Source\PSoC4/cyfitter_cfg.c **** 	ClockSetup();
 502              		.loc 1 592 0
 503 017a FFF741FF 		bl	ClockSetup
 504              	.LVL34:
 593:Generated_Source\PSoC4/cyfitter_cfg.c **** 
 594:Generated_Source\PSoC4/cyfitter_cfg.c **** 	/* Perform basic analog initialization to defaults */
 595:Generated_Source\PSoC4/cyfitter_cfg.c **** 	AnalogSetDefault();
 505              		.loc 1 595 0
 506 017e FFF7FEFF 		bl	AnalogSetDefault
 507              	.LVL35:
 596:Generated_Source\PSoC4/cyfitter_cfg.c **** 
 597:Generated_Source\PSoC4/cyfitter_cfg.c **** }
 508              		.loc 1 597 0
 509              		@ sp needed
 510              	.LVL36:
 511 0182 10BD     		pop	{r4, pc}
 512              	.L24:
 513              		.align	2
 514              	.L23:
 515 0184 00000000 		.word	.LANCHOR0
 516 0188 00010000 		.word	.LANCHOR1
 517 018c 30EE0000 		.word	60976
 518 0190 00030240 		.word	1073873664
 519 0194 00040240 		.word	1073873920
 520 0198 40500F40 		.word	1074745408
 521 019c 50500F40 		.word	1074745424
 522 01a0 58500F40 		.word	1074745432
 523 01a4 70500F40 		.word	1074745456
 524 01a8 78500F40 		.word	1074745464
 525 01ac 01700F40 		.word	1074753537
 526 01b0 00700F40 		.word	1074753536
 527 01b4 00000440 		.word	1074003968
 528 01b8 18000440 		.word	1074003992
 529 01bc 00030440 		.word	1074004736
ARM GAS  C:\Users\LUCASC~1\AppData\Local\Temp\ccqsUena.s 			page 21


 530 01c0 08030440 		.word	1074004744
 531 01c4 00040440 		.word	1074004992
 532 01c8 08040440 		.word	1074005000
 533 01cc 18040440 		.word	1074005016
 534              		.cfi_endproc
 535              	.LFE8:
 536              		.size	cyfitter_cfg, .-cyfitter_cfg
 537              		.section	.rodata
 538              		.align	2
 539              		.set	.LANCHOR0,. + 0
 540              		.set	.LANCHOR1,. + 256
 541              		.type	cfg_memset_list.4977, %object
 542              		.size	cfg_memset_list.4977, 12
 543              	cfg_memset_list.4977:
 544 0000 00300F40 		.word	1074737152
 545 0004 0008     		.short	2048
 546 0006 00400F40 		.4byte	1074741248
 547 000a 0008     		.short	2048
 548              		.type	cy_cfg_data_table.4972, %object
 549              		.size	cy_cfg_data_table.4972, 336
 550              	cy_cfg_data_table.4972:
 551 000c 87       		.byte	-121
 552 000d 0F       		.byte	15
 553 000e 83       		.byte	-125
 554 000f 08       		.byte	8
 555 0010 E4       		.byte	-28
 556 0011 01       		.byte	1
 557 0012 01       		.byte	1
 558 0013 80       		.byte	-128
 559 0014 03       		.byte	3
 560 0015 13       		.byte	19
 561 0016 07       		.byte	7
 562 0017 08       		.byte	8
 563 0018 08       		.byte	8
 564 0019 14       		.byte	20
 565 001a 0C       		.byte	12
 566 001b 10       		.byte	16
 567 001c 0E       		.byte	14
 568 001d 0C       		.byte	12
 569 001e 11       		.byte	17
 570 001f 71       		.byte	113
 571 0020 12       		.byte	18
 572 0021 03       		.byte	3
 573 0022 13       		.byte	19
 574 0023 0E       		.byte	14
 575 0024 17       		.byte	23
 576 0025 0C       		.byte	12
 577 0026 18       		.byte	24
 578 0027 10       		.byte	16
 579 0028 19       		.byte	25
 580 0029 2C       		.byte	44
 581 002a 1B       		.byte	27
 582 002b 43       		.byte	67
 583 002c 20       		.byte	32
 584 002d 0C       		.byte	12
 585 002e 22       		.byte	34
 586 002f 11       		.byte	17
ARM GAS  C:\Users\LUCASC~1\AppData\Local\Temp\ccqsUena.s 			page 22


 587 0030 24       		.byte	36
 588 0031 09       		.byte	9
 589 0032 26       		.byte	38
 590 0033 10       		.byte	16
 591 0034 28       		.byte	40
 592 0035 1C       		.byte	28
 593 0036 2A       		.byte	42
 594 0037 02       		.byte	2
 595 0038 2D       		.byte	45
 596 0039 71       		.byte	113
 597 003a 2F       		.byte	47
 598 003b 06       		.byte	6
 599 003c 30       		.byte	48
 600 003d 1F       		.byte	31
 601 003e 31       		.byte	49
 602 003f 30       		.byte	48
 603 0040 33       		.byte	51
 604 0041 0F       		.byte	15
 605 0042 35       		.byte	53
 606 0043 C0       		.byte	-64
 607 0044 38       		.byte	56
 608 0045 08       		.byte	8
 609 0046 39       		.byte	57
 610 0047 22       		.byte	34
 611 0048 3B       		.byte	59
 612 0049 08       		.byte	8
 613 004a 3E       		.byte	62
 614 004b 04       		.byte	4
 615 004c 3F       		.byte	63
 616 004d 01       		.byte	1
 617 004e 40       		.byte	64
 618 004f 01       		.byte	1
 619 0050 45       		.byte	69
 620 0051 04       		.byte	4
 621 0052 49       		.byte	73
 622 0053 FF       		.byte	-1
 623 0054 4A       		.byte	74
 624 0055 07       		.byte	7
 625 0056 4B       		.byte	75
 626 0057 FF       		.byte	-1
 627 0058 4C       		.byte	76
 628 0059 40       		.byte	64
 629 005a 4D       		.byte	77
 630 005b 20       		.byte	32
 631 005c 4E       		.byte	78
 632 005d F0       		.byte	-16
 633 005e 4F       		.byte	79
 634 005f 05       		.byte	5
 635 0060 50       		.byte	80
 636 0061 08       		.byte	8
 637 0062 58       		.byte	88
 638 0063 04       		.byte	4
 639 0064 59       		.byte	89
 640 0065 04       		.byte	4
 641 0066 5A       		.byte	90
 642 0067 04       		.byte	4
 643 0068 5F       		.byte	95
ARM GAS  C:\Users\LUCASC~1\AppData\Local\Temp\ccqsUena.s 			page 23


 644 0069 01       		.byte	1
 645 006a 60       		.byte	96
 646 006b 40       		.byte	64
 647 006c 61       		.byte	97
 648 006d A8       		.byte	-88
 649 006e 62       		.byte	98
 650 006f 40       		.byte	64
 651 0070 63       		.byte	99
 652 0071 20       		.byte	32
 653 0072 83       		.byte	-125
 654 0073 01       		.byte	1
 655 0074 86       		.byte	-122
 656 0075 08       		.byte	8
 657 0076 8C       		.byte	-116
 658 0077 13       		.byte	19
 659 0078 8E       		.byte	-114
 660 0079 0C       		.byte	12
 661 007a 90       		.byte	-112
 662 007b 13       		.byte	19
 663 007c 92       		.byte	-110
 664 007d 04       		.byte	4
 665 007e 93       		.byte	-109
 666 007f 03       		.byte	3
 667 0080 95       		.byte	-107
 668 0081 06       		.byte	6
 669 0082 97       		.byte	-105
 670 0083 01       		.byte	1
 671 0084 98       		.byte	-104
 672 0085 20       		.byte	32
 673 0086 9B       		.byte	-101
 674 0087 06       		.byte	6
 675 0088 9C       		.byte	-100
 676 0089 40       		.byte	64
 677 008a A2       		.byte	-94
 678 008b 15       		.byte	21
 679 008c A4       		.byte	-92
 680 008d 03       		.byte	3
 681 008e A6       		.byte	-90
 682 008f 14       		.byte	20
 683 0090 A8       		.byte	-88
 684 0091 0A       		.byte	10
 685 0092 AA       		.byte	-86
 686 0093 14       		.byte	20
 687 0094 AB       		.byte	-85
 688 0095 02       		.byte	2
 689 0096 AF       		.byte	-81
 690 0097 05       		.byte	5
 691 0098 B0       		.byte	-80
 692 0099 10       		.byte	16
 693 009a B1       		.byte	-79
 694 009b 07       		.byte	7
 695 009c B2       		.byte	-78
 696 009d 20       		.byte	32
 697 009e B4       		.byte	-76
 698 009f 40       		.byte	64
 699 00a0 B6       		.byte	-74
 700 00a1 0F       		.byte	15
ARM GAS  C:\Users\LUCASC~1\AppData\Local\Temp\ccqsUena.s 			page 24


 701 00a2 BA       		.byte	-70
 702 00a3 80       		.byte	-128
 703 00a4 BB       		.byte	-69
 704 00a5 02       		.byte	2
 705 00a6 BE       		.byte	-66
 706 00a7 15       		.byte	21
 707 00a8 C0       		.byte	-64
 708 00a9 51       		.byte	81
 709 00aa C1       		.byte	-63
 710 00ab 04       		.byte	4
 711 00ac C5       		.byte	-59
 712 00ad EC       		.byte	-20
 713 00ae C6       		.byte	-58
 714 00af B0       		.byte	-80
 715 00b0 C7       		.byte	-57
 716 00b1 0E       		.byte	14
 717 00b2 C8       		.byte	-56
 718 00b3 1B       		.byte	27
 719 00b4 C9       		.byte	-55
 720 00b5 FF       		.byte	-1
 721 00b6 CA       		.byte	-54
 722 00b7 FF       		.byte	-1
 723 00b8 CB       		.byte	-53
 724 00b9 FF       		.byte	-1
 725 00ba CE       		.byte	-50
 726 00bb F0       		.byte	-16
 727 00bc CF       		.byte	-49
 728 00bd 44       		.byte	68
 729 00be D0       		.byte	-48
 730 00bf 0C       		.byte	12
 731 00c0 D4       		.byte	-44
 732 00c1 01       		.byte	1
 733 00c2 D8       		.byte	-40
 734 00c3 04       		.byte	4
 735 00c4 D9       		.byte	-39
 736 00c5 04       		.byte	4
 737 00c6 DA       		.byte	-38
 738 00c7 04       		.byte	4
 739 00c8 DB       		.byte	-37
 740 00c9 04       		.byte	4
 741 00ca DF       		.byte	-33
 742 00cb 01       		.byte	1
 743 00cc E6       		.byte	-26
 744 00cd C0       		.byte	-64
 745 00ce EA       		.byte	-22
 746 00cf 40       		.byte	64
 747 00d0 EB       		.byte	-21
 748 00d1 02       		.byte	2
 749 00d2 01       		.byte	1
 750 00d3 80       		.byte	-128
 751 00d4 02       		.byte	2
 752 00d5 20       		.byte	32
 753 00d6 04       		.byte	4
 754 00d7 20       		.byte	32
 755 00d8 05       		.byte	5
 756 00d9 80       		.byte	-128
 757 00da 09       		.byte	9
ARM GAS  C:\Users\LUCASC~1\AppData\Local\Temp\ccqsUena.s 			page 25


 758 00db 02       		.byte	2
 759 00dc 0B       		.byte	11
 760 00dd 0A       		.byte	10
 761 00de 0E       		.byte	14
 762 00df 80       		.byte	-128
 763 00e0 0F       		.byte	15
 764 00e1 08       		.byte	8
 765 00e2 10       		.byte	16
 766 00e3 B0       		.byte	-80
 767 00e4 13       		.byte	19
 768 00e5 20       		.byte	32
 769 00e6 15       		.byte	21
 770 00e7 02       		.byte	2
 771 00e8 17       		.byte	23
 772 00e9 28       		.byte	40
 773 00ea 18       		.byte	24
 774 00eb 04       		.byte	4
 775 00ec 19       		.byte	25
 776 00ed 84       		.byte	-124
 777 00ee 1A       		.byte	26
 778 00ef 40       		.byte	64
 779 00f0 1E       		.byte	30
 780 00f1 80       		.byte	-128
 781 00f2 1F       		.byte	31
 782 00f3 09       		.byte	9
 783 00f4 21       		.byte	33
 784 00f5 03       		.byte	3
 785 00f6 22       		.byte	34
 786 00f7 02       		.byte	2
 787 00f8 25       		.byte	37
 788 00f9 08       		.byte	8
 789 00fa 26       		.byte	38
 790 00fb 20       		.byte	32
 791 00fc 27       		.byte	39
 792 00fd 68       		.byte	104
 793 00fe 29       		.byte	41
 794 00ff 80       		.byte	-128
 795 0100 2B       		.byte	43
 796 0101 04       		.byte	4
 797 0102 2D       		.byte	45
 798 0103 80       		.byte	-128
 799 0104 31       		.byte	49
 800 0105 0A       		.byte	10
 801 0106 32       		.byte	50
 802 0107 20       		.byte	32
 803 0108 36       		.byte	54
 804 0109 02       		.byte	2
 805 010a 37       		.byte	55
 806 010b 28       		.byte	40
 807 010c 39       		.byte	57
 808 010d 01       		.byte	1
 809 010e 3E       		.byte	62
 810 010f 01       		.byte	1
 811 0110 3F       		.byte	63
 812 0111 0A       		.byte	10
 813 0112 41       		.byte	65
 814 0113 02       		.byte	2
ARM GAS  C:\Users\LUCASC~1\AppData\Local\Temp\ccqsUena.s 			page 26


 815 0114 42       		.byte	66
 816 0115 01       		.byte	1
 817 0116 47       		.byte	71
 818 0117 40       		.byte	64
 819 0118 48       		.byte	72
 820 0119 20       		.byte	32
 821 011a 49       		.byte	73
 822 011b 81       		.byte	-127
 823 011c 4C       		.byte	76
 824 011d 80       		.byte	-128
 825 011e 4D       		.byte	77
 826 011f 01       		.byte	1
 827 0120 4F       		.byte	79
 828 0121 0A       		.byte	10
 829 0122 50       		.byte	80
 830 0123 10       		.byte	16
 831 0124 53       		.byte	83
 832 0125 04       		.byte	4
 833 0126 58       		.byte	88
 834 0127 10       		.byte	16
 835 0128 59       		.byte	89
 836 0129 05       		.byte	5
 837 012a 5A       		.byte	90
 838 012b 40       		.byte	64
 839 012c 8C       		.byte	-116
 840 012d 04       		.byte	4
 841 012e A7       		.byte	-89
 842 012f 08       		.byte	8
 843 0130 C0       		.byte	-64
 844 0131 C5       		.byte	-59
 845 0132 C2       		.byte	-62
 846 0133 5B       		.byte	91
 847 0134 C4       		.byte	-60
 848 0135 7E       		.byte	126
 849 0136 CA       		.byte	-54
 850 0137 1C       		.byte	28
 851 0138 CC       		.byte	-52
 852 0139 E7       		.byte	-25
 853 013a CE       		.byte	-50
 854 013b C1       		.byte	-63
 855 013c D0       		.byte	-48
 856 013d 19       		.byte	25
 857 013e D2       		.byte	-46
 858 013f 08       		.byte	8
 859 0140 D6       		.byte	-42
 860 0141 0F       		.byte	15
 861 0142 5A       		.byte	90
 862 0143 80       		.byte	-128
 863 0144 D4       		.byte	-44
 864 0145 01       		.byte	1
 865 0146 3A       		.byte	58
 866 0147 08       		.byte	8
 867 0148 3E       		.byte	62
 868 0149 08       		.byte	8
 869 014a 82       		.byte	-126
 870 014b 48       		.byte	72
 871 014c 96       		.byte	-106
ARM GAS  C:\Users\LUCASC~1\AppData\Local\Temp\ccqsUena.s 			page 27


 872 014d 80       		.byte	-128
 873 014e CE       		.byte	-50
 874 014f 03       		.byte	3
 875 0150 50       		.byte	80
 876 0151 02       		.byte	2
 877 0152 8C       		.byte	-116
 878 0153 02       		.byte	2
 879 0154 D4       		.byte	-44
 880 0155 01       		.byte	1
 881 0156 E4       		.byte	-28
 882 0157 02       		.byte	2
 883 0158 01       		.byte	1
 884 0159 01       		.byte	1
 885 015a 12       		.byte	18
 886 015b 01       		.byte	1
 887              		.type	cy_cfg_addr_table.4971, %object
 888              		.size	cy_cfg_addr_table.4971, 32
 889              	cy_cfg_addr_table.4971:
 890 015c 01000F40 		.word	1074724865
 891 0160 02350F40 		.word	1074738434
 892 0164 60360F40 		.word	1074738784
 893 0168 38370F40 		.word	1074739000
 894 016c 02450F40 		.word	1074742530
 895 0170 05460F40 		.word	1074742789
 896 0174 04470F40 		.word	1074743044
 897 0178 02600F40 		.word	1074749442
 898              		.text
 899              	.Letext0:
 900              		.file 2 "c:\\program files (x86)\\cypress\\psoc creator\\4.2\\psoc creator\\import\\gnu\\arm\\5.4.
 901              		.file 3 "Generated_Source\\PSoC4\\cytypes.h"
 902              		.file 4 "Generated_Source\\PSoC4\\CyLib.h"